; ModuleID = 'hy_obj.0.rs'
target datalayout = "e-i64:64-f80:128-n8:16:32:64"
target triple = "x86_64-apple-darwin"

%str_slice = type { i8*, i64 }
%"struct.core::intrinsics::TypeId<[]>[#3]" = type { i64 }
%"struct.regex::parse::Error<[]>[#10]" = type { i64, %"struct.collections::string::String<[]>[#6]" }
%"struct.collections::string::String<[]>[#6]" = type { %"struct.collections::vec::Vec<[u8]>[#6]" }
%"struct.collections::vec::Vec<[u8]>[#6]" = type { i64, i64, i8* }
%"struct.HyObjSlice<[]>" = type { %"struct.HyObj<[]>"**, i64, i64 }
%"struct.HyObj<[]>" = type { %"enum.HyObjType<[]>" }
%"enum.HyObjType<[]>" = type { i8, [7 x i8], [13 x i64] }
%"struct.rustrt::libunwind::_Unwind_Exception<[]>[#9]" = type { i64, void (i32, %"struct.rustrt::libunwind::_Unwind_Exception<[]>[#9]"*)*, [6 x i64] }
%"enum.rustrt::libunwind::_Unwind_Context<[]>[#9]" = type {}
%"struct.HyGenCtxt<[]>" = type { i8*, %"struct.HyObjSlice<[]>", %"struct.HyObjSlice<[]>", %"struct.HyObjSlice<[]>" }
%"enum.regex::re::Regex<[]>[#10]" = type { i8, [7 x i8], [12 x i64] }
%"struct.collections::vec::Vec<[Box<HyObj>]>[#6]" = type { i64, i64, %"struct.HyObj<[]>"** }
%"struct.collections::treemap::TreeMap<[collections::string::String, Box<HyObj>]>[#6]" = type { i8*, i64 }
%"struct.sync::comm::SyncSender<[Box<HyObj>]>[#8]" = type { %"struct.alloc::arc::Arc<[core::cell::UnsafeCell<sync::comm::sync::Packet<Box<HyObj>>>]>[#2]", %"struct.core::kinds::marker::NoSync<[]>[#3]", i8 }
%"struct.alloc::arc::Arc<[core::cell::UnsafeCell<sync::comm::sync::Packet<Box<HyObj>>>]>[#2]" = type { %"struct.alloc::arc::ArcInner<[core::cell::UnsafeCell<sync::comm::sync::Packet<Box<HyObj>>>]>[#2]"* }
%"struct.alloc::arc::ArcInner<[core::cell::UnsafeCell<sync::comm::sync::Packet<Box<HyObj>>>]>[#2]" = type { %"struct.core::atomic::AtomicUint<[]>[#3]", %"struct.core::atomic::AtomicUint<[]>[#3]", %"struct.core::cell::UnsafeCell<[sync::comm::sync::Packet<Box<HyObj>>]>[#3]" }
%"struct.core::atomic::AtomicUint<[]>[#3]" = type { %"struct.core::cell::UnsafeCell<[uint]>[#3]", %"struct.core::kinds::marker::NoCopy<[]>[#3]" }
%"struct.core::cell::UnsafeCell<[uint]>[#3]" = type { i64 }
%"struct.core::kinds::marker::NoCopy<[]>[#3]" = type {}
%"struct.core::cell::UnsafeCell<[sync::comm::sync::Packet<Box<HyObj>>]>[#3]" = type { %"struct.sync::comm::sync::Packet<[Box<HyObj>]>[#8]" }
%"struct.sync::comm::sync::Packet<[Box<HyObj>]>[#8]" = type { %"struct.core::atomic::AtomicUint<[]>[#3]", %"struct.rustrt::mutex::NativeMutex<[]>[#9]", %"struct.core::cell::UnsafeCell<[sync::comm::sync::State<Box<HyObj>>]>[#3]", i8 }
%"struct.rustrt::mutex::NativeMutex<[]>[#9]" = type { %"struct.rustrt::mutex::StaticNativeMutex<[]>[#9]", i8 }
%"struct.rustrt::mutex::StaticNativeMutex<[]>[#9]" = type { %"struct.rustrt::mutex::imp::Mutex<[]>[#9]" }
%"struct.rustrt::mutex::imp::Mutex<[]>[#9]" = type { %"struct.core::cell::UnsafeCell<[rustrt::mutex::imp::os::pthread_mutex_t]>[#3]", %"struct.core::cell::UnsafeCell<[rustrt::mutex::imp::os::pthread_cond_t]>[#3]" }
%"struct.core::cell::UnsafeCell<[rustrt::mutex::imp::os::pthread_mutex_t]>[#3]" = type { %"struct.rustrt::mutex::imp::os::pthread_mutex_t<[]>[#9]" }
%"struct.rustrt::mutex::imp::os::pthread_mutex_t<[]>[#9]" = type { i64, [56 x i8] }
%"struct.core::cell::UnsafeCell<[rustrt::mutex::imp::os::pthread_cond_t]>[#3]" = type { %"struct.rustrt::mutex::imp::os::pthread_cond_t<[]>[#9]" }
%"struct.rustrt::mutex::imp::os::pthread_cond_t<[]>[#9]" = type { i64, [40 x i8] }
%"struct.core::cell::UnsafeCell<[sync::comm::sync::State<Box<HyObj>>]>[#3]" = type { %"struct.sync::comm::sync::State<[Box<HyObj>]>[#8]" }
%"struct.sync::comm::sync::State<[Box<HyObj>]>[#8]" = type { i8, %"struct.sync::comm::sync::Queue<[]>[#8]", %"enum.sync::comm::sync::Blocker<[]>[#8]", %"struct.sync::comm::sync::Buffer<[Box<HyObj>]>[#8]", i64, i8* }
%"struct.sync::comm::sync::Queue<[]>[#8]" = type { %"struct.sync::comm::sync::Node<[]>[#8]"*, %"struct.sync::comm::sync::Node<[]>[#8]"* }
%"struct.sync::comm::sync::Node<[]>[#8]" = type { %"enum.core::option::Option<[rustrt::task::BlockedTask]>[#3]", %"struct.sync::comm::sync::Node<[]>[#8]"* }
%"enum.core::option::Option<[rustrt::task::BlockedTask]>[#3]" = type { i8, [7 x i8], [2 x i64] }
%"enum.sync::comm::sync::Blocker<[]>[#8]" = type { i8, [7 x i8], [2 x i64] }
%"struct.sync::comm::sync::Buffer<[Box<HyObj>]>[#8]" = type { %"struct.collections::vec::Vec<[core::option::Option<Box<HyObj>>]>[#6]", i64, i64 }
%"struct.collections::vec::Vec<[core::option::Option<Box<HyObj>>]>[#6]" = type { i64, i64, i8** }
%"struct.core::kinds::marker::NoSync<[]>[#3]" = type {}
%"struct.sync::comm::Receiver<[Box<HyObj>]>[#8]" = type { %"struct.core::cell::UnsafeCell<[sync::comm::Flavor<Box<HyObj>>]>[#3]", %"struct.core::cell::Cell<[uint]>[#3]", %"struct.core::kinds::marker::NoSync<[]>[#3]", i8 }
%"struct.core::cell::UnsafeCell<[sync::comm::Flavor<Box<HyObj>>]>[#3]" = type { %"enum.sync::comm::Flavor<[Box<HyObj>]>[#8]" }
%"enum.sync::comm::Flavor<[Box<HyObj>]>[#8]" = type { i8, [7 x i8], [1 x i64] }
%"struct.core::cell::Cell<[uint]>[#3]" = type { %"struct.core::cell::UnsafeCell<[uint]>[#3]", %"struct.core::kinds::marker::NoSync<[]>[#3]" }
%"struct.core::fmt::Argument<[]>[#3]" = type { %"enum.core::result::Result<[(), core::fmt::FormatError]>[#3]" (%"enum.core::fmt::Void<[]>[#3]"*, %"struct.core::fmt::Formatter<[]>[#3]"*)*, %"enum.core::fmt::Void<[]>[#3]"* }
%"enum.core::result::Result<[(), core::fmt::FormatError]>[#3]" = type { i8, [0 x i8], [1 x i8] }
%"struct.core::fmt::Formatter<[]>[#3]" = type { i64, i32, i8, %"enum.core::option::Option<[uint]>[#3]", %"enum.core::option::Option<[uint]>[#3]", { i8*, void (i8*)** }, %"struct.core::slice::Items<[core::fmt::Argument]>[#3]", { %"struct.core::fmt::Argument<[]>[#3]"*, i64 } }
%"enum.core::option::Option<[uint]>[#3]" = type { i8, [7 x i8], [1 x i64] }
%"struct.core::slice::Items<[core::fmt::Argument]>[#3]" = type { %"struct.core::fmt::Argument<[]>[#3]"*, %"struct.core::fmt::Argument<[]>[#3]"*, %"struct.core::kinds::marker::ContravariantLifetime<[]>[#3]" }
%"struct.core::kinds::marker::ContravariantLifetime<[]>[#3]" = type {}
%"enum.core::fmt::Void<[]>[#3]" = type {}
%"struct.core::fmt::Arguments<[]>[#3]" = type { { %str_slice*, i64 }, %"enum.core::option::Option<[&'static [core::fmt::rt::Argument]]>[#3]", { %"struct.core::fmt::Argument<[]>[#3]"*, i64 } }
%"enum.core::option::Option<[&'static [core::fmt::rt::Argument]]>[#3]" = type { { %"struct.core::fmt::rt::Argument<[]>[#3]"*, i64 } }
%"struct.core::fmt::rt::Argument<[]>[#3]" = type { %"enum.core::fmt::rt::Position<[]>[#3]", %"struct.core::fmt::rt::FormatSpec<[]>[#3]" }
%"enum.core::fmt::rt::Position<[]>[#3]" = type { i8, [7 x i8], [1 x i64] }
%"struct.core::fmt::rt::FormatSpec<[]>[#3]" = type { i32, i8, i64, %"enum.core::fmt::rt::Count<[]>[#3]", %"enum.core::fmt::rt::Count<[]>[#3]" }
%"enum.core::fmt::rt::Count<[]>[#3]" = type { i8, [7 x i8], [1 x i64] }
%"struct.core::slice::Items<[Box<HyObj>]>[#3]" = type { %"struct.HyObj<[]>"**, %"struct.HyObj<[]>"**, %"struct.core::kinds::marker::ContravariantLifetime<[]>[#3]" }
%"struct.collections::treemap::Entries<[collections::string::String, Box<HyObj>]>[#6]" = type { %"struct.collections::vec::Vec<[&'static collections::treemap::TreeNode<collections::string::String,Box<HyObj>>]>[#6]", %"struct.collections::treemap::TreeNode<[collections::string::String, Box<HyObj>]>[#6]"*, i64, i64 }
%"struct.collections::vec::Vec<[&'static collections::treemap::TreeNode<collections::string::String,Box<HyObj>>]>[#6]" = type { i64, i64, %"struct.collections::treemap::TreeNode<[collections::string::String, Box<HyObj>]>[#6]"** }
%"struct.collections::treemap::TreeNode<[collections::string::String, Box<HyObj>]>[#6]" = type { %"struct.collections::string::String<[]>[#6]", %"struct.HyObj<[]>"*, i8*, i8*, i64 }
%"enum.core::option::Option<[(&'static collections::string::String,&'static Box<HyObj>)]>[#3]" = type { i8, [7 x i8], [2 x i64] }
%"struct.rustrt::c_str::CString<[]>[#9]" = type { i8*, i8, i8 }
%"struct.core::slice::Items<[u8]>[#3]" = type { i8*, i8*, %"struct.core::kinds::marker::ContravariantLifetime<[]>[#3]" }
%"struct.core::raw::Slice<[u8]>[#3]" = type { i8*, i64 }
%"struct.core::raw::Slice<[Box<HyObj>]>[#3]" = type { %"struct.HyObj<[]>"**, i64 }
%"struct.core::slice::Items<[&'static collections::treemap::TreeNode<collections::string::String,Box<HyObj>>]>[#3]" = type { %"struct.collections::treemap::TreeNode<[collections::string::String, Box<HyObj>]>[#6]"**, %"struct.collections::treemap::TreeNode<[collections::string::String, Box<HyObj>]>[#6]"**, %"struct.core::kinds::marker::ContravariantLifetime<[]>[#3]" }
%"struct.core::raw::Slice<[&'static collections::treemap::TreeNode<collections::string::String,Box<HyObj>>]>[#3]" = type { %"struct.collections::treemap::TreeNode<[collections::string::String, Box<HyObj>]>[#6]"**, i64 }
%"struct.core::iter::Range<[uint]>[#3]" = type { i64, i64, i64 }
%"struct.core::raw::Slice<[i8]>[#3]" = type { i8*, i64 }
%"enum.core::option::Option<[&'static str]>[#3]" = type { %str_slice }
%"enum.core::result::Result<[regex::re::Regex, regex::parse::Error]>[#3]" = type { i8, [7 x i8], [13 x i64] }
%"struct.rustrt::mutex::LockGuard<[]>[#9]" = type { %"struct.rustrt::mutex::StaticNativeMutex<[]>[#9]"*, i8 }
%"enum.rustrt::task::BlockedTask<[]>[#9]" = type { i8, [7 x i8], [1 x i64] }
%"struct.rustrt::task::Task<[]>[#9]" = type { %"struct.rustrt::task::LocalStorage<[]>[#9]", %"struct.rustrt::unwind::Unwinder<[]>[#9]", %"struct.rustrt::task::Death<[]>[#9]", %"enum.core::option::Option<[collections::str::MaybeOwned]>[#3]", i8, %"enum.core::option::Option<[Box<rustrt::Runtime+Send>]>[#3]", i8 }
%"struct.rustrt::task::LocalStorage<[]>[#9]" = type { %"enum.core::option::Option<[collections::treemap::TreeMap<uint,rustrt::local_data::TLDValue>]>[#3]" }
%"enum.core::option::Option<[collections::treemap::TreeMap<uint,rustrt::local_data::TLDValue>]>[#3]" = type { i8, [7 x i8], [2 x i64] }
%"struct.rustrt::unwind::Unwinder<[]>[#9]" = type { i8 }
%"struct.rustrt::task::Death<[]>[#9]" = type { %"enum.core::option::Option<[proc(core::result::Result<(),Box<core::any::Any+Send>>):Send]>[#3]", %"struct.core::kinds::marker::NoCopy<[]>[#3]" }
%"enum.core::option::Option<[proc(core::result::Result<(),Box<core::any::Any+Send>>):Send]>[#3]" = type { { void (i8*, %"enum.core::result::Result<[(), Box<core::any::Any+Send>]>[#3]"*)*, i8* } }
%"enum.core::result::Result<[(), Box<core::any::Any+Send>]>[#3]" = type { { i8*, void (i8*)** } }
%"enum.core::option::Option<[collections::str::MaybeOwned]>[#3]" = type { i8, [7 x i8], [4 x i64] }
%"enum.core::option::Option<[Box<rustrt::Runtime+Send>]>[#3]" = type { { i8*, void (i8*)** } }
%"struct.alloc::arc::Arc<[core::atomic::AtomicUint]>[#2]" = type { %"struct.alloc::arc::ArcInner<[core::atomic::AtomicUint]>[#2]"* }
%"struct.alloc::arc::ArcInner<[core::atomic::AtomicUint]>[#2]" = type { %"struct.core::atomic::AtomicUint<[]>[#3]", %"struct.core::atomic::AtomicUint<[]>[#3]", %"struct.core::atomic::AtomicUint<[]>[#3]" }
%"struct.collections::treemap::TreeMap<[uint, rustrt::local_data::TLDValue]>[#6]" = type { i8*, i64 }
%"struct.collections::treemap::TreeNode<[uint, rustrt::local_data::TLDValue]>[#6]" = type { i64, %"struct.rustrt::local_data::TLDValue<[]>[#9]", i8*, i8*, i64 }
%"struct.rustrt::local_data::TLDValue<[]>[#9]" = type { {}*, void ({}*)* }
%"enum.collections::str::MaybeOwned<[]>[#6]" = type { i8, [7 x i8], [3 x i64] }
%"struct.core::slice::Items<[core::option::Option<Box<HyObj>>]>[#3]" = type { i8**, i8**, %"struct.core::kinds::marker::ContravariantLifetime<[]>[#3]" }
%"struct.core::raw::Slice<[core::option::Option<Box<HyObj>>]>[#3]" = type { i8**, i64 }
%"struct.alloc::arc::Arc<[core::cell::UnsafeCell<sync::comm::oneshot::Packet<Box<HyObj>>>]>[#2]" = type { %"struct.alloc::arc::ArcInner<[core::cell::UnsafeCell<sync::comm::oneshot::Packet<Box<HyObj>>>]>[#2]"* }
%"struct.alloc::arc::ArcInner<[core::cell::UnsafeCell<sync::comm::oneshot::Packet<Box<HyObj>>>]>[#2]" = type { %"struct.core::atomic::AtomicUint<[]>[#3]", %"struct.core::atomic::AtomicUint<[]>[#3]", %"struct.core::cell::UnsafeCell<[sync::comm::oneshot::Packet<Box<HyObj>>]>[#3]" }
%"struct.core::cell::UnsafeCell<[sync::comm::oneshot::Packet<Box<HyObj>>]>[#3]" = type { %"struct.sync::comm::oneshot::Packet<[Box<HyObj>]>[#8]" }
%"struct.sync::comm::oneshot::Packet<[Box<HyObj>]>[#8]" = type { %"struct.core::atomic::AtomicUint<[]>[#3]", i8*, %"enum.sync::comm::oneshot::MyUpgrade<[Box<HyObj>]>[#8]", i8 }
%"enum.sync::comm::oneshot::MyUpgrade<[Box<HyObj>]>[#8]" = type { i8, [7 x i8], [4 x i64] }
%"struct.alloc::arc::Arc<[core::cell::UnsafeCell<sync::comm::stream::Packet<Box<HyObj>>>]>[#2]" = type { %"struct.alloc::arc::ArcInner<[core::cell::UnsafeCell<sync::comm::stream::Packet<Box<HyObj>>>]>[#2]"* }
%"struct.alloc::arc::ArcInner<[core::cell::UnsafeCell<sync::comm::stream::Packet<Box<HyObj>>>]>[#2]" = type { %"struct.core::atomic::AtomicUint<[]>[#3]", %"struct.core::atomic::AtomicUint<[]>[#3]", %"struct.core::cell::UnsafeCell<[sync::comm::stream::Packet<Box<HyObj>>]>[#3]" }
%"struct.core::cell::UnsafeCell<[sync::comm::stream::Packet<Box<HyObj>>]>[#3]" = type { %"struct.sync::comm::stream::Packet<[Box<HyObj>]>[#8]" }
%"struct.sync::comm::stream::Packet<[Box<HyObj>]>[#8]" = type { %"struct.sync::spsc_queue::Queue<[sync::comm::stream::Message<Box<HyObj>>]>[#8]", %"struct.core::atomic::AtomicInt<[]>[#3]", i64, %"struct.core::atomic::AtomicUint<[]>[#3]", %"struct.core::atomic::AtomicBool<[]>[#3]", i8 }
%"struct.sync::spsc_queue::Queue<[sync::comm::stream::Message<Box<HyObj>>]>[#8]" = type { %"struct.core::cell::UnsafeCell<[*mut sync::spsc_queue::Node<sync::comm::stream::Message<Box<HyObj>>>]>[#3]", %"struct.core::atomic::AtomicPtr<[sync::spsc_queue::Node<sync::comm::stream::Message<Box<HyObj>>>]>[#3]", %"struct.core::cell::UnsafeCell<[*mut sync::spsc_queue::Node<sync::comm::stream::Message<Box<HyObj>>>]>[#3]", %"struct.core::cell::UnsafeCell<[*mut sync::spsc_queue::Node<sync::comm::stream::Message<Box<HyObj>>>]>[#3]", %"struct.core::cell::UnsafeCell<[*mut sync::spsc_queue::Node<sync::comm::stream::Message<Box<HyObj>>>]>[#3]", i64, %"struct.core::atomic::AtomicUint<[]>[#3]", %"struct.core::atomic::AtomicUint<[]>[#3]", i8 }
%"struct.core::atomic::AtomicPtr<[sync::spsc_queue::Node<sync::comm::stream::Message<Box<HyObj>>>]>[#3]" = type { %"struct.core::cell::UnsafeCell<[uint]>[#3]", %"struct.core::kinds::marker::NoCopy<[]>[#3]" }
%"struct.core::cell::UnsafeCell<[*mut sync::spsc_queue::Node<sync::comm::stream::Message<Box<HyObj>>>]>[#3]" = type { %"struct.sync::spsc_queue::Node<[sync::comm::stream::Message<Box<HyObj>>]>[#8]"* }
%"struct.sync::spsc_queue::Node<[sync::comm::stream::Message<Box<HyObj>>]>[#8]" = type { %"enum.core::option::Option<[sync::comm::stream::Message<Box<HyObj>>]>[#3]", %"struct.core::atomic::AtomicPtr<[sync::spsc_queue::Node<sync::comm::stream::Message<Box<HyObj>>>]>[#3]" }
%"enum.core::option::Option<[sync::comm::stream::Message<Box<HyObj>>]>[#3]" = type { i8, [7 x i8], [5 x i64] }
%"struct.core::atomic::AtomicInt<[]>[#3]" = type { %"struct.core::cell::UnsafeCell<[int]>[#3]", %"struct.core::kinds::marker::NoCopy<[]>[#3]" }
%"struct.core::cell::UnsafeCell<[int]>[#3]" = type { i64 }
%"struct.core::atomic::AtomicBool<[]>[#3]" = type { %"struct.core::cell::UnsafeCell<[uint]>[#3]", %"struct.core::kinds::marker::NoCopy<[]>[#3]" }
%"struct.alloc::arc::Arc<[core::cell::UnsafeCell<sync::comm::shared::Packet<Box<HyObj>>>]>[#2]" = type { %"struct.alloc::arc::ArcInner<[core::cell::UnsafeCell<sync::comm::shared::Packet<Box<HyObj>>>]>[#2]"* }
%"struct.alloc::arc::ArcInner<[core::cell::UnsafeCell<sync::comm::shared::Packet<Box<HyObj>>>]>[#2]" = type { %"struct.core::atomic::AtomicUint<[]>[#3]", %"struct.core::atomic::AtomicUint<[]>[#3]", %"struct.core::cell::UnsafeCell<[sync::comm::shared::Packet<Box<HyObj>>]>[#3]" }
%"struct.core::cell::UnsafeCell<[sync::comm::shared::Packet<Box<HyObj>>]>[#3]" = type { %"struct.sync::comm::shared::Packet<[Box<HyObj>]>[#8]" }
%"struct.sync::comm::shared::Packet<[Box<HyObj>]>[#8]" = type { %"struct.sync::mpsc_queue::Queue<[Box<HyObj>]>[#8]", %"struct.core::atomic::AtomicInt<[]>[#3]", i64, %"struct.core::atomic::AtomicUint<[]>[#3]", %"struct.core::atomic::AtomicInt<[]>[#3]", %"struct.core::atomic::AtomicBool<[]>[#3]", %"struct.core::atomic::AtomicInt<[]>[#3]", %"struct.rustrt::mutex::NativeMutex<[]>[#9]", i8 }
%"struct.sync::mpsc_queue::Queue<[Box<HyObj>]>[#8]" = type { %"struct.core::atomic::AtomicPtr<[sync::mpsc_queue::Node<Box<HyObj>>]>[#3]", %"struct.core::cell::UnsafeCell<[*mut sync::mpsc_queue::Node<Box<HyObj>>]>[#3]", i8 }
%"struct.core::atomic::AtomicPtr<[sync::mpsc_queue::Node<Box<HyObj>>]>[#3]" = type { %"struct.core::cell::UnsafeCell<[uint]>[#3]", %"struct.core::kinds::marker::NoCopy<[]>[#3]" }
%"struct.core::cell::UnsafeCell<[*mut sync::mpsc_queue::Node<Box<HyObj>>]>[#3]" = type { %"struct.sync::mpsc_queue::Node<[Box<HyObj>]>[#8]"* }
%"struct.sync::mpsc_queue::Node<[Box<HyObj>]>[#8]" = type { %"struct.core::atomic::AtomicPtr<[sync::mpsc_queue::Node<Box<HyObj>>]>[#3]", i8* }
%"enum.sync::comm::stream::Message<[Box<HyObj>]>[#8]" = type { i8, [7 x i8], [4 x i64] }
%"enum.sync::mpsc_queue::PopResult<[Box<HyObj>]>[#8]" = type { i8, [7 x i8], [1 x i64] }
%"enum.core::option::Option<[()]>[#3]" = type { i8, [0 x i8], [0 x i8] }
%"enum.core::option::Option<[core::option::Option<()>]>[#3]" = type { i8, [0 x i8], [1 x i8] }
%"struct.regex::re::ExDynamic<[]>[#10]" = type { %"struct.collections::string::String<[]>[#6]", %"struct.collections::vec::Vec<[core::option::Option<collections::string::String>]>[#6]", %"struct.regex::compile::Program<[]>[#10]" }
%"struct.collections::vec::Vec<[core::option::Option<collections::string::String>]>[#6]" = type { i64, i64, %"enum.core::option::Option<[collections::string::String]>[#3]"* }
%"enum.core::option::Option<[collections::string::String]>[#3]" = type { i8, [7 x i8], [3 x i64] }
%"struct.regex::compile::Program<[]>[#10]" = type { %"struct.collections::vec::Vec<[regex::compile::Inst]>[#6]", %"struct.collections::string::String<[]>[#6]" }
%"struct.collections::vec::Vec<[regex::compile::Inst]>[#6]" = type { i64, i64, %"enum.regex::compile::Inst<[]>[#10]"* }
%"enum.regex::compile::Inst<[]>[#10]" = type { i8, [7 x i8], [4 x i64] }
%"struct.regex::re::ExNative<[]>[#10]" = type { %str_slice, { %"enum.core::option::Option<[&'static str]>[#3]"*, i64 }*, void (%"struct.collections::vec::Vec<[core::option::Option<uint>]>[#6]"*, i8, %str_slice*, i64, i64)* }
%"struct.collections::vec::Vec<[core::option::Option<uint>]>[#6]" = type { i64, i64, %"enum.core::option::Option<[uint]>[#3]"* }
%"struct.core::slice::Items<[core::option::Option<collections::string::String>]>[#3]" = type { %"enum.core::option::Option<[collections::string::String]>[#3]"*, %"enum.core::option::Option<[collections::string::String]>[#3]"*, %"struct.core::kinds::marker::ContravariantLifetime<[]>[#3]" }
%"struct.core::raw::Slice<[core::option::Option<collections::string::String>]>[#3]" = type { %"enum.core::option::Option<[collections::string::String]>[#3]"*, i64 }
%"struct.core::slice::Items<[regex::compile::Inst]>[#3]" = type { %"enum.regex::compile::Inst<[]>[#10]"*, %"enum.regex::compile::Inst<[]>[#10]"*, %"struct.core::kinds::marker::ContravariantLifetime<[]>[#3]" }
%"struct.core::raw::Slice<[regex::compile::Inst]>[#3]" = type { %"enum.regex::compile::Inst<[]>[#10]"*, i64 }
%"struct.collections::vec::Vec<[(char,char)]>[#6]" = type { i64, i64, { i32, i32 }* }
%"struct.core::slice::Items<[(char,char)]>[#3]" = type { { i32, i32 }*, { i32, i32 }*, %"struct.core::kinds::marker::ContravariantLifetime<[]>[#3]" }
%"struct.core::raw::Slice<[(char,char)]>[#3]" = type { { i32, i32 }*, i64 }
%"struct.core::option::Item<[&'static mut Box<collections::treemap::TreeNode<collections::string::String,Box<HyObj>>>]>[#3]" = type { i8* }

@vtable2485 = internal constant { void (%str_slice**)*, i64, i64, %"struct.core::intrinsics::TypeId<[]>[#3]" (%str_slice*)* } { void (%str_slice**)* @"_ZN32Box$LT$$BP$$x27static$x20str$GT$14glue_drop.247317h73cfb5e02400ebabE", i64 16, i64 8, %"struct.core::intrinsics::TypeId<[]>[#3]" (%str_slice*)* @_ZN3any5T.Any11get_type_id21h13510684896957954991E }
@str2514 = internal constant [49 x i8] c"Tried to push too many HyObjs into the HyObjSlice"
@str2515 = internal constant [31 x i8] c"src/lib/lib_hy_obj/src/HyObj.rs"
@_ZN17hy_obj_slice_push10_FILE_LINE20h789180c7b787d3b3OfaE = internal constant { %str_slice, i64 } { %str_slice { i8* getelementptr inbounds ([31 x i8]* @str2515, i32 0, i32 0), i64 31 }, i64 105 }
@str2569 = internal constant [9 x i8] c"undefined"
@str2613 = internal constant [0 x i8] zeroinitializer
@_ZN5HyObj12hy_obj_print15__STATIC_FMTSTR20ha9ed25ad4baec97eujaE = internal constant [1 x %str_slice] [%str_slice { i8* getelementptr inbounds ([0 x i8]* @str2613, i32 0, i32 0), i64 0 }]
@str2616 = internal constant [4 x i8] c"null"
@_ZN5HyObj12hy_obj_print15__STATIC_FMTSTR20ha9ed25ad4baec97eekaE = internal constant [1 x %str_slice] [%str_slice { i8* getelementptr inbounds ([0 x i8]* @str2613, i32 0, i32 0), i64 0 }]
@_ZN5HyObj12hy_obj_print15__STATIC_FMTSTR20ha9ed25ad4baec97e3kaE = internal constant [1 x %str_slice] [%str_slice { i8* getelementptr inbounds ([0 x i8]* @str2613, i32 0, i32 0), i64 0 }]
@_ZN5HyObj12hy_obj_print15__STATIC_FMTSTR20ha9ed25ad4baec97eFlaE = internal constant [1 x %str_slice] [%str_slice { i8* getelementptr inbounds ([0 x i8]* @str2613, i32 0, i32 0), i64 0 }]
@_ZN5HyObj12hy_obj_print15__STATIC_FMTSTR20ha9ed25ad4baec97eumaE = internal constant [1 x %str_slice] [%str_slice { i8* getelementptr inbounds ([0 x i8]* @str2613, i32 0, i32 0), i64 0 }]
@_ZN5HyObj12hy_obj_print15__STATIC_FMTSTR20ha9ed25ad4baec97e6maE = internal constant [1 x %str_slice] [%str_slice { i8* getelementptr inbounds ([0 x i8]* @str2613, i32 0, i32 0), i64 0 }]
@_ZN5HyObj12hy_obj_print15__STATIC_FMTSTR20ha9ed25ad4baec97eRnaE = internal constant [1 x %str_slice] [%str_slice { i8* getelementptr inbounds ([0 x i8]* @str2613, i32 0, i32 0), i64 0 }]
@_ZN5HyObj12hy_obj_print15__STATIC_FMTSTR20ha9ed25ad4baec97eGoaE = internal constant [1 x %str_slice] [%str_slice { i8* getelementptr inbounds ([0 x i8]* @str2613, i32 0, i32 0), i64 0 }]
@str2706 = internal constant [1 x i8] c"/"
@_ZN5HyObj12hy_obj_print15__STATIC_FMTSTR20h60579851b18f9317ipaE = internal constant [2 x %str_slice] [%str_slice { i8* getelementptr inbounds ([1 x i8]* @str2706, i32 0, i32 0), i64 1 }, %str_slice { i8* getelementptr inbounds ([1 x i8]* @str2706, i32 0, i32 0), i64 1 }]
@str2707 = internal constant [1 x i8] c"["
@_ZN5HyObj12hy_obj_print15__STATIC_FMTSTR20ha9ed25ad4baec97e1paE = internal constant [1 x %str_slice] [%str_slice { i8* getelementptr inbounds ([1 x i8]* @str2707, i32 0, i32 0), i64 1 }]
@str2725 = internal constant [2 x i8] c", "
@_ZN5HyObj12hy_obj_print15__STATIC_FMTSTR20ha9ed25ad4baec97eXqaE = internal constant [1 x %str_slice] [%str_slice { i8* getelementptr inbounds ([2 x i8]* @str2725, i32 0, i32 0), i64 2 }]
@str2726 = internal constant [1 x i8] c"]"
@_ZN5HyObj12hy_obj_print15__STATIC_FMTSTR20ha9ed25ad4baec97eAraE = internal constant [1 x %str_slice] [%str_slice { i8* getelementptr inbounds ([1 x i8]* @str2726, i32 0, i32 0), i64 1 }]
@str2727 = internal constant [1 x i8] c"("
@_ZN5HyObj12hy_obj_print15__STATIC_FMTSTR20ha9ed25ad4baec97eesaE = internal constant [1 x %str_slice] [%str_slice { i8* getelementptr inbounds ([1 x i8]* @str2727, i32 0, i32 0), i64 1 }]
@_ZN5HyObj12hy_obj_print15__STATIC_FMTSTR20ha9ed25ad4baec97eataE = internal constant [1 x %str_slice] [%str_slice { i8* getelementptr inbounds ([2 x i8]* @str2725, i32 0, i32 0), i64 2 }]
@str2728 = internal constant [1 x i8] c")"
@_ZN5HyObj12hy_obj_print15__STATIC_FMTSTR20ha9ed25ad4baec97eNtaE = internal constant [1 x %str_slice] [%str_slice { i8* getelementptr inbounds ([1 x i8]* @str2728, i32 0, i32 0), i64 1 }]
@str2729 = internal constant [1 x i8] c"{"
@_ZN5HyObj12hy_obj_print15__STATIC_FMTSTR20ha9ed25ad4baec97euuaE = internal constant [1 x %str_slice] [%str_slice { i8* getelementptr inbounds ([0 x i8]* @str2613, i32 0, i32 0), i64 0 }]
@"_ZN6option15Option$LT$T$GT$6expect15__STATIC_FMTSTR20h54bbeed75a81b9ddIumE" = external global [1 x %str_slice]
@"_ZN6option15Option$LT$T$GT$6expect8_run_fmt10_FILE_LINE20h701e5aa0ade235ccjumE" = external global { %str_slice, i64 }
@str2783 = internal constant [15 x i8] c"length overflow"
@"_ZN3vec32Vec$LT$T$GT$.MutableSeq$LT$T$GT$4push14_MSG_FILE_LINE20hc7aaa214d648c6e3hYjE" = external global { %str_slice, %str_slice, i64 }
@"_ZN6option15Option$LT$T$GT$6unwrap14_MSG_FILE_LINE20h923db50cdca3773bwvmE" = external global { %str_slice, %str_slice, i64 }
@str2811 = internal constant [3 x i8] c" : "
@_ZN5HyObj12hy_obj_print15__STATIC_FMTSTR20h60579851b18f9317rvaE = internal constant [2 x %str_slice] [%str_slice { i8* getelementptr inbounds ([0 x i8]* @str2613, i32 0, i32 0), i64 0 }, %str_slice { i8* getelementptr inbounds ([3 x i8]* @str2811, i32 0, i32 0), i64 3 }]
@_ZN5HyObj12hy_obj_print15__STATIC_FMTSTR20h60579851b18f9317mwaE = internal constant [2 x %str_slice] [%str_slice { i8* getelementptr inbounds ([2 x i8]* @str2725, i32 0, i32 0), i64 2 }, %str_slice { i8* getelementptr inbounds ([3 x i8]* @str2811, i32 0, i32 0), i64 3 }]
@str2812 = internal constant [1 x i8] c"}"
@_ZN5HyObj12hy_obj_print15__STATIC_FMTSTR20ha9ed25ad4baec97e7waE = internal constant [1 x %str_slice] [%str_slice { i8* getelementptr inbounds ([0 x i8]* @str2613, i32 0, i32 0), i64 0 }]
@str2813 = internal constant [4 x i8] c"true"
@_ZN5HyObj12hy_obj_print15__STATIC_FMTSTR20ha9ed25ad4baec97eSxaE = internal constant [1 x %str_slice] [%str_slice { i8* getelementptr inbounds ([4 x i8]* @str2813, i32 0, i32 0), i64 4 }]
@str2814 = internal constant [5 x i8] c"false"
@_ZN5HyObj12hy_obj_print15__STATIC_FMTSTR20ha9ed25ad4baec97euyaE = internal constant [1 x %str_slice] [%str_slice { i8* getelementptr inbounds ([5 x i8]* @str2814, i32 0, i32 0), i64 5 }]
@"_ZN3vec12Vec$LT$T$GT$18reserve_additional14_MSG_FILE_LINE20hc7aaa214d648c6e3ZzjE" = external global { %str_slice, %str_slice, i64 }
@str2856 = internal constant [17 x i8] c"capacity overflow"
@str2906 = internal constant [11 x i8] c" [function]"
@_ZN5HyObj12hy_obj_print15__STATIC_FMTSTR20h60579851b18f9317zzaE = internal constant [2 x %str_slice] [%str_slice { i8* getelementptr inbounds ([0 x i8]* @str2613, i32 0, i32 0), i64 0 }, %str_slice { i8* getelementptr inbounds ([11 x i8]* @str2906, i32 0, i32 0), i64 11 }]
@str2907 = internal constant [4 x i8] c"<-->"
@_ZN5HyObj12hy_obj_print15__STATIC_FMTSTR20ha9ed25ad4baec97erAaE = internal constant [1 x %str_slice] [%str_slice { i8* getelementptr inbounds ([4 x i8]* @str2907, i32 0, i32 0), i64 4 }]
@str2908 = internal constant [2 x i8] c"<-"
@str2909 = internal constant [2 x i8] c"->"
@_ZN5HyObj12hy_obj_print15__STATIC_FMTSTR20h60579851b18f93177AaE = internal constant [2 x %str_slice] [%str_slice { i8* getelementptr inbounds ([2 x i8]* @str2908, i32 0, i32 0), i64 2 }, %str_slice { i8* getelementptr inbounds ([2 x i8]* @str2909, i32 0, i32 0), i64 2 }]
@str2910 = internal constant [60 x i8] c"Called print on an object that is not an Array, Map, or bool"
@_ZN5HyObj12hy_obj_print15__STATIC_FMTSTR20ha9ed25ad4baec97eMBaE = internal constant [1 x %str_slice] [%str_slice { i8* getelementptr inbounds ([60 x i8]* @str2910, i32 0, i32 0), i64 60 }]
@str2911 = internal constant [1 x i8] c"\0A"
@_ZN5HyObj14hy_obj_println15__STATIC_FMTSTR20ha9ed25ad4baec97ewCaE = internal constant [1 x %str_slice] [%str_slice { i8* getelementptr inbounds ([1 x i8]* @str2911, i32 0, i32 0), i64 1 }]
@_ZN9to_string10T.ToString9to_string15__STATIC_FMTSTR20hae4fab8c400d1b0bNxdE = external global [1 x %str_slice]
@_ZN5HyObj13hy_obj_to_str15__STATIC_FMTSTR20ha9ed25ad4baec97e6DaE = internal constant [1 x %str_slice] [%str_slice { i8* getelementptr inbounds ([0 x i8]* @str2613, i32 0, i32 0), i64 0 }]
@_ZN5HyObj13hy_obj_to_str15__STATIC_FMTSTR20ha9ed25ad4baec97eVEaE = internal constant [1 x %str_slice] [%str_slice { i8* getelementptr inbounds ([0 x i8]* @str2613, i32 0, i32 0), i64 0 }]
@_ZN5HyObj13hy_obj_to_str15__STATIC_FMTSTR20h60579851b18f9317YFaE = internal constant [2 x %str_slice] [%str_slice { i8* getelementptr inbounds ([1 x i8]* @str2706, i32 0, i32 0), i64 1 }, %str_slice { i8* getelementptr inbounds ([1 x i8]* @str2706, i32 0, i32 0), i64 1 }]
@_ZN6atomic5fence14_MSG_FILE_LINE20h923db50cdca3773b0xjE = external global { %str_slice, %str_slice, i64 }
@"_ZN4comm4sync15Packet$LT$T$GT$9drop_chan14_MSG_FILE_LINE20ha780361733ba4212i4dE" = external global { %str_slice, %str_slice, i64 }
@_ZN6atomic11atomic_load14_MSG_FILE_LINE20h923db50cdca3773bLqjE = external global { %str_slice, %str_slice, i64 }
@_ZN6atomic11atomic_load14_MSG_FILE_LINE20h923db50cdca3773b9qjE = external global { %str_slice, %str_slice, i64 }
@"_ZN4comm4sync20Packet$LT$T$GT$.Drop4drop15__STATIC_FMTSTR20h9708e176da9c24daxbeE" = external global [2 x %str_slice]
@"_ZN4comm4sync20Packet$LT$T$GT$.Drop4drop8_run_fmt10_FILE_LINE20h393d8c963ec23a7c5aeE" = external global { %str_slice, i64 }
@"_ZN4comm4sync20Packet$LT$T$GT$.Drop4drop14_MSG_FILE_LINE20ha780361733ba4212sceE" = external global { %str_slice, %str_slice, i64 }
@"_ZN4comm4sync20Packet$LT$T$GT$.Drop4drop14_MSG_FILE_LINE20ha780361733ba4212WceE" = external global { %str_slice, %str_slice, i64 }
@"_ZN4comm7oneshot15Packet$LT$T$GT$9drop_port14_MSG_FILE_LINE20ha780361733ba4212RjcE" = external global { %str_slice, %str_slice, i64 }
@_ZN6atomic12atomic_store14_MSG_FILE_LINE20h923db50cdca3773bwpjE = external global { %str_slice, %str_slice, i64 }
@_ZN6atomic12atomic_store14_MSG_FILE_LINE20h923db50cdca3773bUpjE = external global { %str_slice, %str_slice, i64 }
@"_ZN10spsc_queue14Queue$LT$T$GT$3pop14_MSG_FILE_LINE20ha780361733ba4212EtaE" = external global { %str_slice, %str_slice, i64 }
@"_ZN10mpsc_queue14Queue$LT$T$GT$3pop14_MSG_FILE_LINE20ha780361733ba4212KAaE" = external global { %str_slice, %str_slice, i64 }
@"_ZN10mpsc_queue14Queue$LT$T$GT$3pop14_MSG_FILE_LINE20ha780361733ba4212gBaE" = external global { %str_slice, %str_slice, i64 }
@"_ZN4comm4sync15Packet$LT$T$GT$9drop_port14_MSG_FILE_LINE20ha780361733ba4212k6dE" = external global { %str_slice, %str_slice, i64 }
@"_ZN4comm7oneshot20Packet$LT$T$GT$.Drop4drop15__STATIC_FMTSTR20h9708e176da9c24dawqcE" = external global [2 x %str_slice]
@"_ZN4comm7oneshot20Packet$LT$T$GT$.Drop4drop8_run_fmt10_FILE_LINE20h393d8c963ec23a7c4pcE" = external global { %str_slice, i64 }
@"_ZN4comm6stream20Packet$LT$T$GT$.Drop4drop15__STATIC_FMTSTR20h9708e176da9c24daSIdE" = external global [2 x %str_slice]
@"_ZN4comm6stream20Packet$LT$T$GT$.Drop4drop8_run_fmt10_FILE_LINE20h393d8c963ec23a7cqIdE" = external global { %str_slice, i64 }
@"_ZN4comm6stream20Packet$LT$T$GT$.Drop4drop15__STATIC_FMTSTR20h9708e176da9c24dazKdE" = external global [2 x %str_slice]
@"_ZN4comm6stream20Packet$LT$T$GT$.Drop4drop8_run_fmt10_FILE_LINE20h393d8c963ec23a7c7JdE" = external global { %str_slice, i64 }
@"_ZN4comm6shared20Packet$LT$T$GT$.Drop4drop15__STATIC_FMTSTR20h9708e176da9c24daVadE" = external global [2 x %str_slice]
@"_ZN4comm6shared20Packet$LT$T$GT$.Drop4drop8_run_fmt10_FILE_LINE20h393d8c963ec23a7ctadE" = external global { %str_slice, i64 }
@"_ZN4comm6shared20Packet$LT$T$GT$.Drop4drop15__STATIC_FMTSTR20h9708e176da9c24daCcdE" = external global [2 x %str_slice]
@"_ZN4comm6shared20Packet$LT$T$GT$.Drop4drop8_run_fmt10_FILE_LINE20h393d8c963ec23a7cacdE" = external global { %str_slice, i64 }
@"_ZN4comm6shared20Packet$LT$T$GT$.Drop4drop15__STATIC_FMTSTR20h9708e176da9c24dajedE" = external global [2 x %str_slice]
@"_ZN4comm6shared20Packet$LT$T$GT$.Drop4drop8_run_fmt10_FILE_LINE20h393d8c963ec23a7cRddE" = external global { %str_slice, i64 }
@vtable3487 = internal constant { void (%"struct.regex::parse::Error<[]>[#10]"**)*, i64, i64, %"struct.core::intrinsics::TypeId<[]>[#3]" (%"struct.regex::parse::Error<[]>[#10]"*)* } { void (%"struct.regex::parse::Error<[]>[#10]"**)* @"_ZN30Box$LT$regex..parse..Error$GT$14glue_drop.348517h7b30ddd9134fc708E", i64 32, i64 8, %"struct.core::intrinsics::TypeId<[]>[#3]" (%"struct.regex::parse::Error<[]>[#10]"*)* @_ZN3any5T.Any11get_type_id20h2138677247383075469E }
@_ZN5HyObj12hy_new_regex10_FILE_LINE20h789180c7b787d3b3jOaE = internal constant { %str_slice, i64 } { %str_slice { i8* getelementptr inbounds ([31 x i8]* @str2515, i32 0, i32 0), i64 31 }, i64 457 }
@str3491 = internal constant [53 x i8] c"Regular expression constructors take a string pattern"
@_ZN5HyObj12hy_new_regex10_FILE_LINE20h789180c7b787d3b3DOaE = internal constant { %str_slice, i64 } { %str_slice { i8* getelementptr inbounds ([31 x i8]* @str2515, i32 0, i32 0), i64 31 }, i64 460 }
@str3562 = internal constant [27 x i8] c"+ only defined for ints atm"
@_ZN5HyObj9hy_add_op10_FILE_LINE20h789180c7b787d3b3NRaE = internal constant { %str_slice, i64 } { %str_slice { i8* getelementptr inbounds ([31 x i8]* @str2515, i32 0, i32 0), i64 31 }, i64 534 }
@_ZN5HyObj9hy_add_op10_FILE_LINE20h789180c7b787d3b39RaE = internal constant { %str_slice, i64 } { %str_slice { i8* getelementptr inbounds ([31 x i8]* @str2515, i32 0, i32 0), i64 31 }, i64 539 }
@str3563 = internal constant [27 x i8] c"- only defined for ints atm"
@_ZN5HyObj9hy_sub_op10_FILE_LINE20h789180c7b787d3b31SaE = internal constant { %str_slice, i64 } { %str_slice { i8* getelementptr inbounds ([31 x i8]* @str2515, i32 0, i32 0), i64 31 }, i64 552 }
@_ZN5HyObj9hy_sub_op10_FILE_LINE20h789180c7b787d3b3lTaE = internal constant { %str_slice, i64 } { %str_slice { i8* getelementptr inbounds ([31 x i8]* @str2515, i32 0, i32 0), i64 31 }, i64 555 }
@str3564 = internal constant [27 x i8] c"* only defined for ints atm"
@_ZN5HyObj9hy_mul_op10_FILE_LINE20h789180c7b787d3b3dUaE = internal constant { %str_slice, i64 } { %str_slice { i8* getelementptr inbounds ([31 x i8]* @str2515, i32 0, i32 0), i64 31 }, i64 567 }
@_ZN5HyObj9hy_mul_op10_FILE_LINE20h789180c7b787d3b3xUaE = internal constant { %str_slice, i64 } { %str_slice { i8* getelementptr inbounds ([31 x i8]* @str2515, i32 0, i32 0), i64 31 }, i64 570 }
@str3565 = internal constant [27 x i8] c"attempted to divide by zero"
@const = private constant { %str_slice, %str_slice, i64 } { %str_slice { i8* getelementptr inbounds ([27 x i8]* @str3565, i32 0, i32 0), i64 27 }, %str_slice { i8* getelementptr inbounds ([31 x i8]* @str2515, i32 0, i32 0), i64 31 }, i64 580 }
@str3566 = internal constant [33 x i8] c"attempted to divide with overflow"
@const1 = private constant { %str_slice, %str_slice, i64 } { %str_slice { i8* getelementptr inbounds ([33 x i8]* @str3566, i32 0, i32 0), i64 33 }, %str_slice { i8* getelementptr inbounds ([31 x i8]* @str2515, i32 0, i32 0), i64 31 }, i64 580 }
@str3567 = internal constant [27 x i8] c"/ only defined for ints atm"
@_ZN5HyObj9hy_div_op10_FILE_LINE20h789180c7b787d3b3pVaE = internal constant { %str_slice, i64 } { %str_slice { i8* getelementptr inbounds ([31 x i8]* @str2515, i32 0, i32 0), i64 31 }, i64 582 }
@_ZN5HyObj9hy_div_op10_FILE_LINE20h789180c7b787d3b3JVaE = internal constant { %str_slice, i64 } { %str_slice { i8* getelementptr inbounds ([31 x i8]* @str2515, i32 0, i32 0), i64 31 }, i64 585 }
@str3568 = internal constant [42 x i8] c"attempted remainder with a divisor of zero"
@const2 = private constant { %str_slice, %str_slice, i64 } { %str_slice { i8* getelementptr inbounds ([42 x i8]* @str3568, i32 0, i32 0), i64 42 }, %str_slice { i8* getelementptr inbounds ([31 x i8]* @str2515, i32 0, i32 0), i64 31 }, i64 595 }
@str3569 = internal constant [33 x i8] c"attempted remainder with overflow"
@const3 = private constant { %str_slice, %str_slice, i64 } { %str_slice { i8* getelementptr inbounds ([33 x i8]* @str3569, i32 0, i32 0), i64 33 }, %str_slice { i8* getelementptr inbounds ([31 x i8]* @str2515, i32 0, i32 0), i64 31 }, i64 595 }
@str3570 = internal constant [27 x i8] c"% only defined for ints atm"
@_ZN5HyObj9hy_mod_op10_FILE_LINE20h789180c7b787d3b3BWaE = internal constant { %str_slice, i64 } { %str_slice { i8* getelementptr inbounds ([31 x i8]* @str2515, i32 0, i32 0), i64 31 }, i64 597 }
@_ZN5HyObj9hy_mod_op10_FILE_LINE20h789180c7b787d3b3VWaE = internal constant { %str_slice, i64 } { %str_slice { i8* getelementptr inbounds ([31 x i8]* @str2515, i32 0, i32 0), i64 31 }, i64 600 }
@str3571 = internal constant [27 x i8] c"< only defined for ints atm"
@_ZN5HyObj8hy_lt_op10_FILE_LINE20h789180c7b787d3b3NXaE = internal constant { %str_slice, i64 } { %str_slice { i8* getelementptr inbounds ([31 x i8]* @str2515, i32 0, i32 0), i64 31 }, i64 612 }
@_ZN5HyObj8hy_lt_op10_FILE_LINE20h789180c7b787d3b37XaE = internal constant { %str_slice, i64 } { %str_slice { i8* getelementptr inbounds ([31 x i8]* @str2515, i32 0, i32 0), i64 31 }, i64 615 }
@str3572 = internal constant [27 x i8] c"> only defined for ints atm"
@_ZN5HyObj8hy_gt_op10_FILE_LINE20h789180c7b787d3b3ZYaE = internal constant { %str_slice, i64 } { %str_slice { i8* getelementptr inbounds ([31 x i8]* @str2515, i32 0, i32 0), i64 31 }, i64 627 }
@_ZN5HyObj8hy_gt_op10_FILE_LINE20h789180c7b787d3b3jZaE = internal constant { %str_slice, i64 } { %str_slice { i8* getelementptr inbounds ([31 x i8]* @str2515, i32 0, i32 0), i64 31 }, i64 630 }
@str3573 = internal constant [28 x i8] c"<= only defined for ints atm"
@_ZN5HyObj11hy_lt_eq_op10_FILE_LINE20h789180c7b787d3b3b0aE = internal constant { %str_slice, i64 } { %str_slice { i8* getelementptr inbounds ([31 x i8]* @str2515, i32 0, i32 0), i64 31 }, i64 642 }
@_ZN5HyObj11hy_lt_eq_op10_FILE_LINE20h789180c7b787d3b3v0aE = internal constant { %str_slice, i64 } { %str_slice { i8* getelementptr inbounds ([31 x i8]* @str2515, i32 0, i32 0), i64 31 }, i64 645 }
@str3574 = internal constant [28 x i8] c">= only defined for ints atm"
@_ZN5HyObj11hy_gt_eq_op10_FILE_LINE20h789180c7b787d3b3n1aE = internal constant { %str_slice, i64 } { %str_slice { i8* getelementptr inbounds ([31 x i8]* @str2515, i32 0, i32 0), i64 31 }, i64 657 }
@_ZN5HyObj11hy_gt_eq_op10_FILE_LINE20h789180c7b787d3b3H1aE = internal constant { %str_slice, i64 } { %str_slice { i8* getelementptr inbounds ([31 x i8]* @str2515, i32 0, i32 0), i64 31 }, i64 660 }
@str3575 = internal constant [28 x i8] c"== only defined for ints atm"
@_ZN5HyObj8hy_eq_op10_FILE_LINE20h789180c7b787d3b3z2aE = internal constant { %str_slice, i64 } { %str_slice { i8* getelementptr inbounds ([31 x i8]* @str2515, i32 0, i32 0), i64 31 }, i64 672 }
@_ZN5HyObj8hy_eq_op10_FILE_LINE20h789180c7b787d3b3T2aE = internal constant { %str_slice, i64 } { %str_slice { i8* getelementptr inbounds ([31 x i8]* @str2515, i32 0, i32 0), i64 31 }, i64 675 }
@str3576 = internal constant [28 x i8] c"!= only defined for ints atm"
@_ZN5HyObj9hy_neq_op10_FILE_LINE20h789180c7b787d3b3L3aE = internal constant { %str_slice, i64 } { %str_slice { i8* getelementptr inbounds ([31 x i8]* @str2515, i32 0, i32 0), i64 31 }, i64 687 }
@_ZN5HyObj9hy_neq_op10_FILE_LINE20h789180c7b787d3b353aE = internal constant { %str_slice, i64 } { %str_slice { i8* getelementptr inbounds ([31 x i8]* @str2515, i32 0, i32 0), i64 31 }, i64 690 }
@str3632 = internal constant [26 x i8] c"Maps only take string keys"
@_ZN5HyObj13hy_map_insert10_FILE_LINE20h789180c7b787d3b3S5aE = internal constant { %str_slice, i64 } { %str_slice { i8* getelementptr inbounds ([31 x i8]* @str2515, i32 0, i32 0), i64 31 }, i64 727 }
@str3633 = internal constant [51 x i8] c"Called hy_map_insert on an object that is not a Map"
@_ZN5HyObj13hy_map_insert10_FILE_LINE20h789180c7b787d3b3c6aE = internal constant { %str_slice, i64 } { %str_slice { i8* getelementptr inbounds ([31 x i8]* @str2515, i32 0, i32 0), i64 31 }, i64 730 }
@str3671 = internal constant [16 x i8] c"explicit failure"
@_ZN7treemap6remove15__STATIC_FMTSTR20hf6a301c4bf21484efAgE = external global [1 x %str_slice]
@_ZN7treemap6remove8_run_fmt10_FILE_LINE20h9d1aed75a10237a3QzgE = external global { %str_slice, i64 }
@_ZN5HyObj13hy_map_delete10_FILE_LINE20h789180c7b787d3b356aE = internal constant { %str_slice, i64 } { %str_slice { i8* getelementptr inbounds ([31 x i8]* @str2515, i32 0, i32 0), i64 31 }, i64 742 }
@str3672 = internal constant [51 x i8] c"Called hy_map_delete on an object that is not a Map"
@_ZN5HyObj13hy_map_delete10_FILE_LINE20h789180c7b787d3b3p7aE = internal constant { %str_slice, i64 } { %str_slice { i8* getelementptr inbounds ([31 x i8]* @str2515, i32 0, i32 0), i64 31 }, i64 745 }
@str3682 = internal constant [53 x i8] c"Called hy_map_contains on an object that is not a Map"
@_ZN5HyObj15hy_map_contains10_FILE_LINE20h789180c7b787d3b3m8aE = internal constant { %str_slice, i64 } { %str_slice { i8* getelementptr inbounds ([31 x i8]* @str2515, i32 0, i32 0), i64 31 }, i64 760 }
@str3687 = internal constant [40 x i8] c"Tried to add too many objects to a tuple"
@_ZN5HyObj15hy_tuple_insert10_FILE_LINE20h789180c7b787d3b398aE = internal constant { %str_slice, i64 } { %str_slice { i8* getelementptr inbounds ([31 x i8]* @str2515, i32 0, i32 0), i64 31 }, i64 773 }
@str3688 = internal constant [55 x i8] c"Called hy_tuple_insert on an object that is not a Tuple"
@_ZN5HyObj15hy_tuple_insert10_FILE_LINE20h789180c7b787d3b3x9aE = internal constant { %str_slice, i64 } { %str_slice { i8* getelementptr inbounds ([31 x i8]* @str2515, i32 0, i32 0), i64 31 }, i64 778 }
@str3689 = internal constant [54 x i8] c"Called hy_array_push on an object that is not an Array"
@_ZN5HyObj13hy_array_push10_FILE_LINE20h789180c7b787d3b3gabE = internal constant { %str_slice, i64 } { %str_slice { i8* getelementptr inbounds ([31 x i8]* @str2515, i32 0, i32 0), i64 31 }, i64 792 }

; Function Attrs: uwtable
define void @hy_obj_slice_init(%"struct.HyObjSlice<[]>"*, i64) unnamed_addr #0 {
entry-block:
  %this = alloca %"struct.HyObjSlice<[]>"*
  %cap = alloca i64
  %mem_sz = alloca i64
  %alignment = alloca i64
  %ptr = alloca %"struct.HyObj<[]>"**
  %2 = alloca i8*
  store %"struct.HyObjSlice<[]>"* %0, %"struct.HyObjSlice<[]>"** %this
  store i64 %1, i64* %cap
  %3 = call i64 @_ZN3mem7size_of21h12058073697262202802E()
  store i64 %3, i64* %mem_sz
  %4 = call i64 @_ZN3mem12min_align_of20h7811319758023307738E()
  store i64 %4, i64* %alignment
  %5 = load i64* %cap
  %6 = load i64* %mem_sz
  %7 = mul i64 %6, %5
  %8 = load i64* %alignment
  %9 = call i8* @_ZN4heap8allocate20head6c82bc1fabe50faaE(i64 %7, i64 %8)
  store i8* %9, i8** %2
  %10 = load i8** %2
  %11 = bitcast i8* %10 to %"struct.HyObj<[]>"**
  store %"struct.HyObj<[]>"** %11, %"struct.HyObj<[]>"*** %ptr
  %12 = load %"struct.HyObjSlice<[]>"** %this
  %13 = getelementptr inbounds %"struct.HyObjSlice<[]>"* %12, i32 0, i32 0
  %14 = load %"struct.HyObj<[]>"*** %ptr
  store %"struct.HyObj<[]>"** %14, %"struct.HyObj<[]>"*** %13
  %15 = load %"struct.HyObjSlice<[]>"** %this
  %16 = getelementptr inbounds %"struct.HyObjSlice<[]>"* %15, i32 0, i32 2
  %17 = load i64* %cap
  store i64 %17, i64* %16
  %18 = load %"struct.HyObjSlice<[]>"** %this
  %19 = getelementptr inbounds %"struct.HyObjSlice<[]>"* %18, i32 0, i32 1
  store i64 0, i64* %19
  ret void
}

; Function Attrs: inlinehint uwtable
define internal i64 @_ZN3mem7size_of21h12058073697262202802E() unnamed_addr #1 {
entry-block:
  ret i64 8
}

; Function Attrs: inlinehint uwtable
define internal i64 @_ZN3mem12min_align_of20h7811319758023307738E() unnamed_addr #1 {
entry-block:
  ret i64 8
}

; Function Attrs: inlinehint uwtable
define internal i8* @_ZN4heap8allocate20head6c82bc1fabe50faaE(i64, i64) unnamed_addr #1 {
entry-block:
  %size = alloca i64
  %align = alloca i64
  store i64 %0, i64* %size
  store i64 %1, i64* %align
  %2 = load i64* %size
  %3 = load i64* %align
  %4 = call i8* @_ZN4heap3imp8allocate20hef5f5e78329bdb01PfaE(i64 %2, i64 %3)
  ret i8* %4
}

; Function Attrs: inlinehint uwtable
define internal i8* @_ZN4heap3imp8allocate20hef5f5e78329bdb01PfaE(i64, i64) unnamed_addr #1 {
entry-block:
  %a.i.i = alloca i64
  %2 = alloca i64
  %sret_slot.i = alloca i32
  %align.i = alloca i64
  %const.i = alloca i64
  %size = alloca i64
  %align = alloca i64
  %flags = alloca i32
  %ptr = alloca i8*
  %3 = alloca i8*
  %__arg = alloca i64
  %__arg1 = alloca i32
  %4 = alloca i8
  store i64 %0, i64* %size
  store i64 %1, i64* %align
  %5 = load i64* %align
  store i64 %5, i64* %align.i
  store i64 16, i64* %const.i
  %6 = load i64* %align.i
  %7 = load i64* %const.i
  %8 = icmp ule i64 %6, %7
  br i1 %8, label %then-block-3982-.i, label %else-block.i

then-block-3982-.i:                               ; preds = %entry-block
  store i32 0, i32* %sret_slot.i
  br label %_ZN4heap3imp14align_to_flags20h01ac9d46dc62feb2vfaE.exit

else-block.i:                                     ; preds = %entry-block
  %9 = load i64* %align.i
  store i64 %9, i64* %a.i.i
  %10 = load i64* %a.i.i
  %11 = call i64 @_ZN3num8uint.Int14trailing_zeros20h69894de30c1568763sbE(i64 %10)
  store i64 %11, i64* %2
  %12 = load i64* %2
  %13 = trunc i64 %12 to i32
  store i32 %13, i32* %sret_slot.i
  br label %_ZN4heap3imp14align_to_flags20h01ac9d46dc62feb2vfaE.exit

_ZN4heap3imp14align_to_flags20h01ac9d46dc62feb2vfaE.exit: ; preds = %then-block-3982-.i, %else-block.i
  %14 = load i32* %sret_slot.i
  store i32 %14, i32* %flags
  %15 = load i64* %size
  %16 = load i32* %flags
  store i64 %15, i64* %__arg
  %17 = load i64* %__arg
  store i32 %16, i32* %__arg1
  %18 = load i32* %__arg1
  %19 = call i8* @je_mallocx(i64 %17, i32 %18)
  store i8* %19, i8** %3
  %20 = load i8** %3
  store i8* %20, i8** %ptr
  %21 = call zeroext i1 @"_ZN3ptr29_$RP$mut$x20T.RawPtr$LT$T$GT$7is_null21h17146126875716221501E"(i8** noalias readonly dereferenceable(8) %ptr)
  %22 = zext i1 %21 to i8
  store i8 %22, i8* %4
  %23 = load i8* %4, !range !0
  %24 = trunc i8 %23 to i1
  br i1 %24, label %then-block-3964-, label %next-block

then-block-3964-:                                 ; preds = %_ZN4heap3imp14align_to_flags20h01ac9d46dc62feb2vfaE.exit
  call void @_ZN3oom20h14e9514b5ac90485ROaE()
  unreachable

next-block:                                       ; preds = %_ZN4heap3imp14align_to_flags20h01ac9d46dc62feb2vfaE.exit
  %25 = load i8** %ptr
  ret i8* %25
}

; Function Attrs: inlinehint uwtable
define internal i64 @_ZN3num8uint.Int14trailing_zeros20h69894de30c1568763sbE(i64) unnamed_addr #1 {
entry-block:
  %self = alloca i64
  store i64 %0, i64* %self
  %1 = load i64* %self
  %2 = call i64 @_ZN3num7u64.Int14trailing_zeros20h9c2c9d0673165aadZjbE(i64 %1)
  ret i64 %2
}

; Function Attrs: inlinehint uwtable
define internal i64 @_ZN3num7u64.Int14trailing_zeros20h9c2c9d0673165aadZjbE(i64) unnamed_addr #1 {
entry-block:
  %self = alloca i64
  %1 = alloca i64
  store i64 %0, i64* %self
  %2 = load i64* %self
  %3 = call i64 @llvm.cttz.i64(i64 %2, i1 false)
  store i64 %3, i64* %1
  %4 = load i64* %1
  ret i64 %4
}

; Function Attrs: nounwind readnone
declare i64 @llvm.cttz.i64(i64, i1) unnamed_addr #2

declare i8* @je_mallocx(i64, i32) unnamed_addr #3

; Function Attrs: inlinehint uwtable
define internal zeroext i1 @"_ZN3ptr29_$RP$mut$x20T.RawPtr$LT$T$GT$7is_null21h17146126875716221501E"(i8** noalias nocapture readonly dereferenceable(8)) unnamed_addr #1 {
entry-block:
  %self = alloca i8**
  %1 = alloca i8*
  store i8** %0, i8*** %self
  %2 = load i8*** %self
  %3 = call i8* @"_ZN3ptr29_$RP$mut$x20T.RawPtr$LT$T$GT$4null20h2725176296436400575E"()
  store i8* %3, i8** %1
  %4 = load i8** %1
  %5 = load i8** %2
  %6 = icmp eq i8* %5, %4
  %7 = zext i1 %6 to i8
  %8 = trunc i8 %7 to i1
  ret i1 %8
}

; Function Attrs: inlinehint uwtable
define internal i8* @"_ZN3ptr29_$RP$mut$x20T.RawPtr$LT$T$GT$4null20h2725176296436400575E"() unnamed_addr #1 {
entry-block:
  %0 = call i8* @_ZN3ptr8null_mut20h4903556358789203293E()
  ret i8* %0
}

; Function Attrs: inlinehint uwtable
define internal i8* @_ZN3ptr8null_mut20h4903556358789203293E() unnamed_addr #1 {
entry-block:
  ret i8* null
}

; Function Attrs: noreturn
declare void @_ZN3oom20h14e9514b5ac90485ROaE() unnamed_addr #4

; Function Attrs: uwtable
define void @hy_obj_slice_reinit(%"struct.HyObjSlice<[]>"*, i64) unnamed_addr #0 {
entry-block:
  %this = alloca %"struct.HyObjSlice<[]>"*
  %cap = alloca i64
  store %"struct.HyObjSlice<[]>"* %0, %"struct.HyObjSlice<[]>"** %this
  store i64 %1, i64* %cap
  %2 = load %"struct.HyObjSlice<[]>"** %this
  %3 = getelementptr inbounds %"struct.HyObjSlice<[]>"* %2, i32 0, i32 1
  store i64 0, i64* %3
  ret void
}

; Function Attrs: uwtable
define void @hy_obj_slice_clear(%"struct.HyObjSlice<[]>"*) unnamed_addr #0 {
entry-block:
  %this = alloca %"struct.HyObjSlice<[]>"*
  %mem_sz = alloca i64
  %1 = alloca i64
  %alignment = alloca i64
  %ptr = alloca %"struct.HyObj<[]>"**
  store %"struct.HyObjSlice<[]>"* %0, %"struct.HyObjSlice<[]>"** %this
  %2 = call i64 @_ZN3mem7size_of21h12058073697262202802E()
  store i64 %2, i64* %1
  %3 = load i64* %1
  %4 = load %"struct.HyObjSlice<[]>"** %this
  %5 = getelementptr inbounds %"struct.HyObjSlice<[]>"* %4, i32 0, i32 2
  %6 = load i64* %5
  %7 = mul i64 %3, %6
  store i64 %7, i64* %mem_sz
  %8 = call i64 @_ZN3mem12min_align_of20h7811319758023307738E()
  store i64 %8, i64* %alignment
  %9 = load %"struct.HyObjSlice<[]>"** %this
  %10 = getelementptr inbounds %"struct.HyObjSlice<[]>"* %9, i32 0, i32 1
  store i64 0, i64* %10
  %11 = load %"struct.HyObjSlice<[]>"** %this
  %12 = getelementptr inbounds %"struct.HyObjSlice<[]>"* %11, i32 0, i32 2
  store i64 0, i64* %12
  %13 = load %"struct.HyObjSlice<[]>"** %this
  %14 = getelementptr inbounds %"struct.HyObjSlice<[]>"* %13, i32 0, i32 0
  %15 = load %"struct.HyObj<[]>"*** %14
  store %"struct.HyObj<[]>"** %15, %"struct.HyObj<[]>"*** %ptr
  %16 = load %"struct.HyObj<[]>"*** %ptr
  %17 = bitcast %"struct.HyObj<[]>"** %16 to i8*
  %18 = load i64* %mem_sz
  %19 = load i64* %alignment
  call void @_ZN4heap10deallocate20h1ec8a30835e4a6f4sbaE(i8* %17, i64 %18, i64 %19)
  ret void
}

; Function Attrs: inlinehint uwtable
define internal void @_ZN4heap10deallocate20h1ec8a30835e4a6f4sbaE(i8*, i64, i64) unnamed_addr #1 {
entry-block:
  %ptr = alloca i8*
  %old_size = alloca i64
  %align = alloca i64
  store i8* %0, i8** %ptr
  store i64 %1, i64* %old_size
  store i64 %2, i64* %align
  %3 = load i8** %ptr
  %4 = load i64* %old_size
  %5 = load i64* %align
  call void @_ZN4heap3imp10deallocate20hc2c0d662d8aaf2a9ciaE(i8* %3, i64 %4, i64 %5)
  ret void
}

; Function Attrs: inlinehint uwtable
define internal void @_ZN4heap3imp10deallocate20hc2c0d662d8aaf2a9ciaE(i8*, i64, i64) unnamed_addr #1 {
entry-block:
  %a.i.i = alloca i64
  %3 = alloca i64
  %sret_slot.i = alloca i32
  %align.i = alloca i64
  %const.i = alloca i64
  %ptr = alloca i8*
  %old_size = alloca i64
  %align = alloca i64
  %flags = alloca i32
  %__arg = alloca i8*
  %__arg1 = alloca i64
  %__arg2 = alloca i32
  store i8* %0, i8** %ptr
  store i64 %1, i64* %old_size
  store i64 %2, i64* %align
  %4 = load i64* %align
  store i64 %4, i64* %align.i
  store i64 16, i64* %const.i
  %5 = load i64* %align.i
  %6 = load i64* %const.i
  %7 = icmp ule i64 %5, %6
  br i1 %7, label %then-block-3982-.i, label %else-block.i

then-block-3982-.i:                               ; preds = %entry-block
  store i32 0, i32* %sret_slot.i
  br label %_ZN4heap3imp14align_to_flags20h01ac9d46dc62feb2vfaE.exit

else-block.i:                                     ; preds = %entry-block
  %8 = load i64* %align.i
  store i64 %8, i64* %a.i.i
  %9 = load i64* %a.i.i
  %10 = call i64 @_ZN3num8uint.Int14trailing_zeros20h69894de30c1568763sbE(i64 %9)
  store i64 %10, i64* %3
  %11 = load i64* %3
  %12 = trunc i64 %11 to i32
  store i32 %12, i32* %sret_slot.i
  br label %_ZN4heap3imp14align_to_flags20h01ac9d46dc62feb2vfaE.exit

_ZN4heap3imp14align_to_flags20h01ac9d46dc62feb2vfaE.exit: ; preds = %then-block-3982-.i, %else-block.i
  %13 = load i32* %sret_slot.i
  store i32 %13, i32* %flags
  %14 = load i8** %ptr
  %15 = load i64* %old_size
  %16 = load i32* %flags
  store i8* %14, i8** %__arg
  %17 = load i8** %__arg
  store i64 %15, i64* %__arg1
  %18 = load i64* %__arg1
  store i32 %16, i32* %__arg2
  %19 = load i32* %__arg2
  call void @je_sdallocx(i8* %17, i64 %18, i32 %19)
  ret void
}

declare void @je_sdallocx(i8*, i64, i32) unnamed_addr #3

; Function Attrs: uwtable
define void @hy_obj_slice_push(%"struct.HyObjSlice<[]>"*, %"struct.HyObj<[]>"*) unnamed_addr #0 {
entry-block:
  %this = alloca %"struct.HyObjSlice<[]>"*
  %obj = alloca %"struct.HyObj<[]>"*
  %ptr = alloca %"struct.HyObj<[]>"**
  %len = alloca i64
  %cap = alloca i64
  %2 = alloca %str_slice
  %3 = alloca %"struct.HyObj<[]>"**
  store %"struct.HyObjSlice<[]>"* %0, %"struct.HyObjSlice<[]>"** %this
  store %"struct.HyObj<[]>"* %1, %"struct.HyObj<[]>"** %obj
  %4 = load %"struct.HyObjSlice<[]>"** %this
  %5 = getelementptr inbounds %"struct.HyObjSlice<[]>"* %4, i32 0, i32 1
  %6 = load i64* %5
  store i64 %6, i64* %len
  %7 = load %"struct.HyObjSlice<[]>"** %this
  %8 = getelementptr inbounds %"struct.HyObjSlice<[]>"* %7, i32 0, i32 2
  %9 = load i64* %8
  store i64 %9, i64* %cap
  %10 = load i64* %cap
  %11 = load i64* %len
  %12 = icmp eq i64 %10, %11
  br i1 %12, label %then-block-345-, label %next-block

then-block-345-:                                  ; preds = %entry-block
  %13 = getelementptr inbounds %str_slice* %2, i32 0, i32 0
  store i8* getelementptr inbounds ([49 x i8]* @str2514, i32 0, i32 0), i8** %13
  %14 = getelementptr inbounds %str_slice* %2, i32 0, i32 1
  store i64 49, i64* %14
  call void @_ZN6unwind12begin_unwind20h6252848192901347222E(%str_slice* noalias nocapture dereferenceable(16) %2, { %str_slice, i64 }* noalias nocapture readonly dereferenceable(24) @_ZN17hy_obj_slice_push10_FILE_LINE20h789180c7b787d3b3OfaE)
  unreachable

next-block:                                       ; preds = %entry-block
  %15 = load %"struct.HyObjSlice<[]>"** %this
  %16 = getelementptr inbounds %"struct.HyObjSlice<[]>"* %15, i32 0, i32 1
  %17 = load i64* %len
  %18 = add i64 %17, 1
  store i64 %18, i64* %16
  %19 = load %"struct.HyObjSlice<[]>"** %this
  %20 = getelementptr inbounds %"struct.HyObjSlice<[]>"* %19, i32 0, i32 0
  %21 = load %"struct.HyObj<[]>"*** %20
  %22 = load i64* %len
  %23 = call %"struct.HyObj<[]>"** @"_ZN3ptr29_$RP$mut$x20T.RawPtr$LT$T$GT$6offset21h18096631887728891275E"(%"struct.HyObj<[]>"** %21, i64 %22)
  store %"struct.HyObj<[]>"** %23, %"struct.HyObj<[]>"*** %ptr
  %24 = load %"struct.HyObj<[]>"*** %ptr
  store %"struct.HyObj<[]>"** %24, %"struct.HyObj<[]>"*** %3
  %25 = load %"struct.HyObj<[]>"*** %3
  %26 = load %"struct.HyObj<[]>"** %obj
  call void @_ZN3ptr5write20h3824453083530098240E(%"struct.HyObj<[]>"** %25, %"struct.HyObj<[]>"* %26)
  ret void
}

; Function Attrs: cold noinline noreturn uwtable
define internal void @_ZN6unwind12begin_unwind20h6252848192901347222E(%str_slice* noalias nocapture dereferenceable(16), { %str_slice, i64 }* noalias nocapture readonly dereferenceable(24)) unnamed_addr #5 {
entry-block:
  %file_line = alloca { %str_slice, i64 }*
  %unsize_unique_expr = alloca %str_slice*
  %__uniq_fat_ptr = alloca { i8*, void (i8*)** }
  %arg = alloca { i8*, void (i8*)** }
  %2 = alloca { i8*, i32 }
  store { %str_slice, i64 }* %1, { %str_slice, i64 }** %file_line
  %3 = call i8* @_ZN4heap15exchange_malloc20h3c60b0dce0b4b330jcaE(i64 16, i64 8)
  %4 = bitcast i8* %3 to %str_slice*
  %5 = bitcast %str_slice* %0 to i8*
  %6 = bitcast %str_slice* %4 to i8*
  call void @llvm.memcpy.p0i8.p0i8.i64(i8* %6, i8* %5, i64 16, i32 8, i1 false)
  store %str_slice* %4, %str_slice** %unsize_unique_expr
  %7 = getelementptr inbounds { i8*, void (i8*)** }* %__uniq_fat_ptr, i32 0, i32 0
  %8 = bitcast i8** %7 to %str_slice**
  %9 = load %str_slice** %unsize_unique_expr
  store %str_slice* %9, %str_slice** %8
  %10 = bitcast %str_slice** %unsize_unique_expr to i8*
  call void @llvm.memset.p0i8.i64(i8* %10, i8 0, i64 8, i32 8, i1 false)
  %11 = getelementptr inbounds { i8*, void (i8*)** }* %__uniq_fat_ptr, i32 0, i32 1
  store void (i8*)** bitcast ({ void (%str_slice**)*, i64, i64, %"struct.core::intrinsics::TypeId<[]>[#3]" (%str_slice*)* }* @vtable2485 to void (i8*)**), void (i8*)*** %11
  %12 = bitcast { i8*, void (i8*)** }* %__uniq_fat_ptr to i8*
  %13 = bitcast { i8*, void (i8*)** }* %arg to i8*
  call void @llvm.memcpy.p0i8.p0i8.i64(i8* %13, i8* %12, i64 16, i32 8, i1 false)
  %14 = bitcast { i8*, void (i8*)** }* %__uniq_fat_ptr to i8*
  call void @llvm.memset.p0i8.i64(i8* %14, i8 0, i64 16, i32 8, i1 false)
  %15 = load { %str_slice, i64 }** %file_line
  invoke void @_ZN6unwind18begin_unwind_inner20h9b53584d2b2a04abuJdE({ i8*, void (i8*)** }* noalias nocapture dereferenceable(16) %arg, { %str_slice, i64 }* noalias nocapture readonly dereferenceable(24) %15)
          to label %normal-return unwind label %unwind_ast_4166_

normal-return:                                    ; preds = %entry-block
  unreachable

unwind_ast_4166_:                                 ; preds = %entry-block
  %16 = landingpad { i8*, i32 } personality i32 (i32, i32, i64, %"struct.rustrt::libunwind::_Unwind_Exception<[]>[#9]"*, %"enum.rustrt::libunwind::_Unwind_Context<[]>[#9]"*)* @rust_eh_personality
          cleanup
  store { i8*, i32 } %16, { i8*, i32 }* %2
  br label %clean_ast_4166_

resume:                                           ; preds = %clean_custom_
  %17 = load { i8*, i32 }* %2
  resume { i8*, i32 } %17

clean_custom_:                                    ; preds = %clean_ast_4166_
  br label %resume

clean_ast_4166_:                                  ; preds = %unwind_ast_4166_
  call void @"_ZN33Box$LT$core..any..Any$x2bSend$GT$14glue_drop.251217h2431140d8f6deda6E"({ i8*, void (i8*)** }* %__uniq_fat_ptr)
  call void @"_ZN32Box$LT$$BP$$x27static$x20str$GT$14glue_drop.247317h73cfb5e02400ebabE"(%str_slice** %unsize_unique_expr)
  br label %clean_custom_
}

; Function Attrs: cold noinline noreturn
declare void @_ZN6unwind18begin_unwind_inner20h9b53584d2b2a04abuJdE({ i8*, void (i8*)** }* noalias nocapture dereferenceable(16), { %str_slice, i64 }* noalias nocapture readonly dereferenceable(24)) unnamed_addr #6

; Function Attrs: inlinehint uwtable
define internal i8* @_ZN4heap15exchange_malloc20h3c60b0dce0b4b330jcaE(i64, i64) unnamed_addr #1 {
entry-block:
  %sret_slot = alloca i8*
  %size = alloca i64
  %align = alloca i64
  %const = alloca {}*
  store i64 %0, i64* %size
  store i64 %1, i64* %align
  %2 = load i64* %size
  %3 = icmp eq i64 %2, 0
  br i1 %3, label %then-block-4191-, label %else-block

then-block-4191-:                                 ; preds = %entry-block
  store {}* inttoptr (i64 1 to {}*), {}** %const
  %4 = load {}** %const
  %5 = bitcast {}* %4 to i8*
  store i8* %5, i8** %sret_slot
  br label %join

else-block:                                       ; preds = %entry-block
  %6 = load i64* %size
  %7 = load i64* %align
  %8 = call i8* @_ZN4heap8allocate20head6c82bc1fabe50faaE(i64 %6, i64 %7)
  store i8* %8, i8** %sret_slot
  br label %join

join:                                             ; preds = %else-block, %then-block-4191-
  %9 = load i8** %sret_slot
  ret i8* %9
}

; Function Attrs: nounwind
declare void @llvm.memcpy.p0i8.p0i8.i64(i8* nocapture, i8* nocapture readonly, i64, i32, i1) unnamed_addr #7

; Function Attrs: nounwind
declare void @llvm.memset.p0i8.i64(i8* nocapture, i8, i64, i32, i1) unnamed_addr #7

define internal void @"_ZN32Box$LT$$BP$$x27static$x20str$GT$14glue_drop.247317h73cfb5e02400ebabE"(%str_slice**) unnamed_addr #3 {
entry-block:
  %1 = load %str_slice** %0
  %2 = icmp ne %str_slice* %1, null
  br i1 %2, label %cond, label %next

next:                                             ; preds = %cond, %entry-block
  ret void

cond:                                             ; preds = %entry-block
  %3 = bitcast %str_slice* %1 to i8*
  call void @_ZN4heap13exchange_free20h5e3cebe20d51e190NcaE(i8* %3, i64 16, i64 8)
  br label %next
}

; Function Attrs: inlinehint uwtable
define internal void @_ZN4heap13exchange_free20h5e3cebe20d51e190NcaE(i8*, i64, i64) unnamed_addr #1 {
entry-block:
  %ptr = alloca i8*
  %old_size = alloca i64
  %align = alloca i64
  store i8* %0, i8** %ptr
  store i64 %1, i64* %old_size
  store i64 %2, i64* %align
  %3 = load i8** %ptr
  %4 = load i64* %old_size
  %5 = load i64* %align
  call void @_ZN4heap10deallocate20h1ec8a30835e4a6f4sbaE(i8* %3, i64 %4, i64 %5)
  ret void
}

; Function Attrs: uwtable
define internal %"struct.core::intrinsics::TypeId<[]>[#3]" @_ZN3any5T.Any11get_type_id21h13510684896957954991E(%str_slice* noalias nocapture readonly dereferenceable(16)) unnamed_addr #0 {
entry-block:
  %self = alloca %str_slice*
  store %str_slice* %0, %str_slice** %self
  %1 = call %"struct.core::intrinsics::TypeId<[]>[#3]" @_ZN10intrinsics6TypeId2of20h2856407689532935822E()
  ret %"struct.core::intrinsics::TypeId<[]>[#3]" %1
}

; Function Attrs: uwtable
define internal %"struct.core::intrinsics::TypeId<[]>[#3]" @_ZN10intrinsics6TypeId2of20h2856407689532935822E() unnamed_addr #0 {
entry-block:
  ret %"struct.core::intrinsics::TypeId<[]>[#3]" { i64 8802261786977977801 }
}

declare i32 @rust_eh_personality(i32, i32, i64, %"struct.rustrt::libunwind::_Unwind_Exception<[]>[#9]"*, %"enum.rustrt::libunwind::_Unwind_Context<[]>[#9]"*) unnamed_addr #3

define internal void @"_ZN33Box$LT$core..any..Any$x2bSend$GT$14glue_drop.251217h2431140d8f6deda6E"({ i8*, void (i8*)** }*) unnamed_addr #3 {
entry-block:
  %1 = getelementptr inbounds { i8*, void (i8*)** }* %0, i32 0, i32 0
  %2 = load i8** %1
  %3 = icmp ne i8* %2, null
  br i1 %3, label %cond, label %next

next:                                             ; preds = %cond, %entry-block
  ret void

cond:                                             ; preds = %entry-block
  %4 = getelementptr inbounds { i8*, void (i8*)** }* %0, i32 0, i32 1
  %5 = load void (i8*)*** %4
  %6 = load void (i8*)** %5
  %7 = bitcast i8** %1 to i8*
  call void %6(i8* %7)
  br label %next
}

; Function Attrs: inlinehint uwtable
define internal %"struct.HyObj<[]>"** @"_ZN3ptr29_$RP$mut$x20T.RawPtr$LT$T$GT$6offset21h18096631887728891275E"(%"struct.HyObj<[]>"**, i64) unnamed_addr #1 {
entry-block:
  %self = alloca %"struct.HyObj<[]>"**
  %count = alloca i64
  %2 = alloca %"struct.HyObj<[]>"**
  store %"struct.HyObj<[]>"** %0, %"struct.HyObj<[]>"*** %self
  store i64 %1, i64* %count
  %3 = load %"struct.HyObj<[]>"*** %self
  %4 = load i64* %count
  %5 = getelementptr inbounds %"struct.HyObj<[]>"** %3, i64 %4
  store %"struct.HyObj<[]>"** %5, %"struct.HyObj<[]>"*** %2
  %6 = load %"struct.HyObj<[]>"*** %2
  ret %"struct.HyObj<[]>"** %6
}

; Function Attrs: inlinehint uwtable
define internal void @_ZN3ptr5write20h3824453083530098240E(%"struct.HyObj<[]>"**, %"struct.HyObj<[]>"*) unnamed_addr #1 {
entry-block:
  %dst = alloca %"struct.HyObj<[]>"**
  %src = alloca %"struct.HyObj<[]>"*
  store %"struct.HyObj<[]>"** %0, %"struct.HyObj<[]>"*** %dst
  store %"struct.HyObj<[]>"* %1, %"struct.HyObj<[]>"** %src
  %2 = load %"struct.HyObj<[]>"*** %dst
  %3 = load %"struct.HyObj<[]>"** %src
  store %"struct.HyObj<[]>"* %3, %"struct.HyObj<[]>"** %2
  ret void
}

; Function Attrs: uwtable
define %"struct.HyObj<[]>"* @hy_obj_slice_get(%"struct.HyObjSlice<[]>"*, i64) unnamed_addr #0 {
entry-block:
  %llretslotptr = alloca %"struct.HyObj<[]>"**
  %this = alloca %"struct.HyObjSlice<[]>"*
  %index = alloca i64
  %iret_slot = alloca %"struct.HyObj<[]>"*
  %len = alloca i64
  %ret_slot = alloca %"struct.HyObj<[]>"*
  %ptr = alloca %"struct.HyObj<[]>"**
  store %"struct.HyObjSlice<[]>"* %0, %"struct.HyObjSlice<[]>"** %this
  store i64 %1, i64* %index
  %2 = load %"struct.HyObjSlice<[]>"** %this
  %3 = getelementptr inbounds %"struct.HyObjSlice<[]>"* %2, i32 0, i32 1
  %4 = load i64* %3
  store i64 %4, i64* %len
  %5 = load i64* %index
  %6 = load i64* %len
  %7 = icmp uge i64 %5, %6
  br i1 %7, label %then-block-423-, label %next-block

then-block-423-:                                  ; preds = %entry-block
  %8 = call noalias dereferenceable(112) %"struct.HyObj<[]>"* @hy_new_undefined()
  store %"struct.HyObj<[]>"* %8, %"struct.HyObj<[]>"** %ret_slot
  store %"struct.HyObj<[]>"** %ret_slot, %"struct.HyObj<[]>"*** %llretslotptr
  br label %clean_ast_409_

clean_custom_:                                    ; preds = %next-block, %clean_ast_409_
  br label %return

clean_ast_409_:                                   ; preds = %then-block-423-
  br label %clean_custom_

next-block:                                       ; preds = %entry-block
  %9 = load %"struct.HyObjSlice<[]>"** %this
  %10 = getelementptr inbounds %"struct.HyObjSlice<[]>"* %9, i32 0, i32 0
  %11 = load %"struct.HyObj<[]>"*** %10
  %12 = load i64* %index
  %13 = call %"struct.HyObj<[]>"** @"_ZN3ptr29_$RP$mut$x20T.RawPtr$LT$T$GT$6offset21h18096631887728891275E"(%"struct.HyObj<[]>"** %11, i64 %12)
  store %"struct.HyObj<[]>"** %13, %"struct.HyObj<[]>"*** %ptr
  %14 = load %"struct.HyObj<[]>"*** %ptr
  %15 = load %"struct.HyObj<[]>"** %14
  store %"struct.HyObj<[]>"* %15, %"struct.HyObj<[]>"** %iret_slot
  store %"struct.HyObj<[]>"** %iret_slot, %"struct.HyObj<[]>"*** %llretslotptr
  br label %clean_custom_

return:                                           ; preds = %clean_custom_
  %16 = load %"struct.HyObj<[]>"*** %llretslotptr
  %17 = load %"struct.HyObj<[]>"** %16
  ret %"struct.HyObj<[]>"* %17
}

; Function Attrs: uwtable
define noalias dereferenceable(112) %"struct.HyObj<[]>"* @hy_new_undefined() unnamed_addr #0 {
entry-block:
  %0 = call i8* @_ZN4heap15exchange_malloc20h3c60b0dce0b4b330jcaE(i64 112, i64 8)
  %1 = bitcast i8* %0 to %"struct.HyObj<[]>"*
  %2 = getelementptr inbounds %"struct.HyObj<[]>"* %1, i32 0, i32 0
  %3 = getelementptr inbounds %"enum.HyObjType<[]>"* %2, i32 0, i32 0
  store i8 11, i8* %3
  ret %"struct.HyObj<[]>"* %1
}

; Function Attrs: uwtable
define %"struct.HyGenCtxt<[]>"* @_ZN9HyGenCtxt3new20hbdc9af10016e111fAhaE(i8*, %"struct.HyObjSlice<[]>"* noalias nocapture dereferenceable(24), i64, i64) unnamed_addr #0 {
entry-block:
  %block = alloca i8*
  %num_state = alloca i64
  %num_yields = alloca i64
  %mem_sz = alloca i64
  %alignment = alloca i64
  %ctxt = alloca %"struct.HyGenCtxt<[]>"*
  %4 = alloca i8*
  %auto_deref = alloca %"struct.HyObjSlice<[]>"*
  %auto_deref1 = alloca %"struct.HyObjSlice<[]>"*
  store i8* %0, i8** %block
  store i64 %2, i64* %num_state
  store i64 %3, i64* %num_yields
  %5 = call i64 @_ZN3mem7size_of19h226272599233586574E()
  store i64 %5, i64* %mem_sz
  %6 = call i64 @_ZN3mem12min_align_of21h13949795272116645232E()
  store i64 %6, i64* %alignment
  %7 = load i64* %mem_sz
  %8 = load i64* %alignment
  %9 = call i8* @_ZN4heap8allocate20head6c82bc1fabe50faaE(i64 %7, i64 %8)
  store i8* %9, i8** %4
  %10 = load i8** %4
  %11 = bitcast i8* %10 to %"struct.HyGenCtxt<[]>"*
  store %"struct.HyGenCtxt<[]>"* %11, %"struct.HyGenCtxt<[]>"** %ctxt
  %12 = load %"struct.HyGenCtxt<[]>"** %ctxt
  %13 = getelementptr inbounds %"struct.HyGenCtxt<[]>"* %12, i32 0, i32 0
  %14 = load i8** %block
  store i8* %14, i8** %13
  %15 = load %"struct.HyGenCtxt<[]>"** %ctxt
  %16 = getelementptr inbounds %"struct.HyGenCtxt<[]>"* %15, i32 0, i32 1
  %17 = bitcast %"struct.HyObjSlice<[]>"* %1 to i8*
  %18 = bitcast %"struct.HyObjSlice<[]>"* %16 to i8*
  call void @llvm.memcpy.p0i8.p0i8.i64(i8* %18, i8* %17, i64 24, i32 8, i1 false)
  %19 = load %"struct.HyGenCtxt<[]>"** %ctxt
  %20 = getelementptr inbounds %"struct.HyGenCtxt<[]>"* %19, i32 0, i32 2
  store %"struct.HyObjSlice<[]>"* %20, %"struct.HyObjSlice<[]>"** %auto_deref
  %21 = load %"struct.HyObjSlice<[]>"** %auto_deref
  %22 = load i64* %num_state
  call void @hy_obj_slice_init(%"struct.HyObjSlice<[]>"* %21, i64 %22)
  %23 = load %"struct.HyGenCtxt<[]>"** %ctxt
  %24 = getelementptr inbounds %"struct.HyGenCtxt<[]>"* %23, i32 0, i32 3
  store %"struct.HyObjSlice<[]>"* %24, %"struct.HyObjSlice<[]>"** %auto_deref1
  %25 = load %"struct.HyObjSlice<[]>"** %auto_deref1
  %26 = load i64* %num_yields
  call void @hy_obj_slice_init(%"struct.HyObjSlice<[]>"* %25, i64 %26)
  %27 = load %"struct.HyGenCtxt<[]>"** %ctxt
  ret %"struct.HyGenCtxt<[]>"* %27
}

; Function Attrs: inlinehint uwtable
define internal i64 @_ZN3mem7size_of19h226272599233586574E() unnamed_addr #1 {
entry-block:
  ret i64 80
}

; Function Attrs: inlinehint uwtable
define internal i64 @_ZN3mem12min_align_of21h13949795272116645232E() unnamed_addr #1 {
entry-block:
  ret i64 8
}

; Function Attrs: uwtable
define void @hy_obj_print(%"struct.HyObj<[]>"* nocapture dereferenceable(112)) unnamed_addr #0 {
entry-block:
  %self = alloca %"struct.HyObj<[]>"*
  %__llmatch = alloca i64*
  %i = alloca i64
  %__llmatch4 = alloca double*
  %f = alloca double
  %s = alloca %"struct.collections::string::String<[]>[#6]"*
  %r = alloca %"enum.regex::re::Regex<[]>[#10]"*
  %vec = alloca %"struct.collections::vec::Vec<[Box<HyObj>]>[#6]"*
  %vec9 = alloca %"struct.collections::vec::Vec<[Box<HyObj>]>[#6]"*
  %map = alloca %"struct.collections::treemap::TreeMap<[collections::string::String, Box<HyObj>]>[#6]"*
  %__llmatch12 = alloca i8*
  %b = alloca i8
  %f14 = alloca { %"struct.HyObj<[]>"* (i8*, %"struct.HyObjSlice<[]>"*)*, i8* }*
  %__llmatch15 = alloca i8**
  %ptr = alloca i8*
  %sendr = alloca %"struct.sync::comm::SyncSender<[Box<HyObj>]>[#8]"*
  %recvr = alloca %"struct.sync::comm::Receiver<[Box<HyObj>]>[#8]"*
  %__llmatch17 = alloca i64*
  %buffer_sz = alloca i64
  %1 = alloca { %str_slice* }
  %2 = alloca %str_slice
  %match = alloca { %str_slice* }
  %__llmatch31 = alloca %str_slice**
  %__arg0 = alloca %str_slice*
  %__args_vec = alloca [1 x %"struct.core::fmt::Argument<[]>[#3]"]*
  %3 = alloca %"struct.core::fmt::Argument<[]>[#3]"
  %__args = alloca %"struct.core::fmt::Arguments<[]>[#3]"
  %__fat_ptr = alloca { %str_slice*, i64 }
  %__fat_ptr32 = alloca { %str_slice*, i64 }
  %__fat_ptr33 = alloca { %"struct.core::fmt::Argument<[]>[#3]"*, i64 }
  %__fat_ptr34 = alloca { %"struct.core::fmt::Argument<[]>[#3]"*, i64 }
  %4 = alloca { %str_slice* }
  %5 = alloca %str_slice
  %match35 = alloca { %str_slice* }
  %__llmatch37 = alloca %str_slice**
  %__arg038 = alloca %str_slice*
  %__args_vec39 = alloca [1 x %"struct.core::fmt::Argument<[]>[#3]"]*
  %6 = alloca %"struct.core::fmt::Argument<[]>[#3]"
  %__args40 = alloca %"struct.core::fmt::Arguments<[]>[#3]"
  %__fat_ptr41 = alloca { %str_slice*, i64 }
  %__fat_ptr42 = alloca { %str_slice*, i64 }
  %__fat_ptr43 = alloca { %"struct.core::fmt::Argument<[]>[#3]"*, i64 }
  %__fat_ptr44 = alloca { %"struct.core::fmt::Argument<[]>[#3]"*, i64 }
  %7 = alloca { %"struct.collections::string::String<[]>[#6]"* }
  %8 = alloca %"struct.collections::string::String<[]>[#6]"
  %9 = alloca { i64* }
  %match46 = alloca { i64* }
  %__llmatch48 = alloca i64**
  %__arg049 = alloca i64*
  %__args_vec50 = alloca [1 x %"struct.core::fmt::Argument<[]>[#3]"]*
  %10 = alloca %"struct.core::fmt::Argument<[]>[#3]"
  %__args51 = alloca %"struct.core::fmt::Arguments<[]>[#3]"
  %__fat_ptr52 = alloca { %str_slice*, i64 }
  %__fat_ptr53 = alloca { %str_slice*, i64 }
  %__fat_ptr54 = alloca { %"struct.core::fmt::Argument<[]>[#3]"*, i64 }
  %__fat_ptr55 = alloca { %"struct.core::fmt::Argument<[]>[#3]"*, i64 }
  %match57 = alloca { %"struct.collections::string::String<[]>[#6]"* }
  %__llmatch59 = alloca %"struct.collections::string::String<[]>[#6]"**
  %__arg060 = alloca %"struct.collections::string::String<[]>[#6]"*
  %__args_vec61 = alloca [1 x %"struct.core::fmt::Argument<[]>[#3]"]*
  %11 = alloca %"struct.core::fmt::Argument<[]>[#3]"
  %12 = alloca { i8*, i32 }
  %__args63 = alloca %"struct.core::fmt::Arguments<[]>[#3]"
  %__fat_ptr64 = alloca { %str_slice*, i64 }
  %__fat_ptr65 = alloca { %str_slice*, i64 }
  %__fat_ptr66 = alloca { %"struct.core::fmt::Argument<[]>[#3]"*, i64 }
  %__fat_ptr67 = alloca { %"struct.core::fmt::Argument<[]>[#3]"*, i64 }
  %13 = alloca { %"struct.collections::string::String<[]>[#6]"* }
  %14 = alloca %"struct.collections::string::String<[]>[#6]"
  %15 = alloca { double* }
  %match71 = alloca { double* }
  %__llmatch73 = alloca double**
  %__arg074 = alloca double*
  %__args_vec75 = alloca [1 x %"struct.core::fmt::Argument<[]>[#3]"]*
  %16 = alloca %"struct.core::fmt::Argument<[]>[#3]"
  %__args76 = alloca %"struct.core::fmt::Arguments<[]>[#3]"
  %__fat_ptr77 = alloca { %str_slice*, i64 }
  %__fat_ptr78 = alloca { %str_slice*, i64 }
  %__fat_ptr79 = alloca { %"struct.core::fmt::Argument<[]>[#3]"*, i64 }
  %__fat_ptr80 = alloca { %"struct.core::fmt::Argument<[]>[#3]"*, i64 }
  %match82 = alloca { %"struct.collections::string::String<[]>[#6]"* }
  %__llmatch84 = alloca %"struct.collections::string::String<[]>[#6]"**
  %__arg085 = alloca %"struct.collections::string::String<[]>[#6]"*
  %__args_vec86 = alloca [1 x %"struct.core::fmt::Argument<[]>[#3]"]*
  %17 = alloca %"struct.core::fmt::Argument<[]>[#3]"
  %__args89 = alloca %"struct.core::fmt::Arguments<[]>[#3]"
  %__fat_ptr90 = alloca { %str_slice*, i64 }
  %__fat_ptr91 = alloca { %str_slice*, i64 }
  %__fat_ptr92 = alloca { %"struct.core::fmt::Argument<[]>[#3]"*, i64 }
  %__fat_ptr93 = alloca { %"struct.core::fmt::Argument<[]>[#3]"*, i64 }
  %18 = alloca { %"struct.collections::string::String<[]>[#6]"** }
  %match97 = alloca { %"struct.collections::string::String<[]>[#6]"** }
  %__llmatch99 = alloca %"struct.collections::string::String<[]>[#6]"***
  %__arg0100 = alloca %"struct.collections::string::String<[]>[#6]"**
  %__args_vec101 = alloca [1 x %"struct.core::fmt::Argument<[]>[#3]"]*
  %19 = alloca %"struct.core::fmt::Argument<[]>[#3]"
  %__args102 = alloca %"struct.core::fmt::Arguments<[]>[#3]"
  %__fat_ptr103 = alloca { %str_slice*, i64 }
  %__fat_ptr104 = alloca { %str_slice*, i64 }
  %__fat_ptr105 = alloca { %"struct.core::fmt::Argument<[]>[#3]"*, i64 }
  %__fat_ptr106 = alloca { %"struct.core::fmt::Argument<[]>[#3]"*, i64 }
  %20 = alloca { %"struct.collections::string::String<[]>[#6]"* }
  %21 = alloca %"struct.collections::string::String<[]>[#6]"
  %22 = alloca { %"enum.regex::re::Regex<[]>[#10]"** }
  %match108 = alloca { %"enum.regex::re::Regex<[]>[#10]"** }
  %__llmatch110 = alloca %"enum.regex::re::Regex<[]>[#10]"***
  %__arg0111 = alloca %"enum.regex::re::Regex<[]>[#10]"**
  %__args_vec112 = alloca [1 x %"struct.core::fmt::Argument<[]>[#3]"]*
  %23 = alloca %"struct.core::fmt::Argument<[]>[#3]"
  %__args113 = alloca %"struct.core::fmt::Arguments<[]>[#3]"
  %__fat_ptr114 = alloca { %str_slice*, i64 }
  %__fat_ptr115 = alloca { %str_slice*, i64 }
  %__fat_ptr116 = alloca { %"struct.core::fmt::Argument<[]>[#3]"*, i64 }
  %__fat_ptr117 = alloca { %"struct.core::fmt::Argument<[]>[#3]"*, i64 }
  %match119 = alloca { %"struct.collections::string::String<[]>[#6]"* }
  %__llmatch121 = alloca %"struct.collections::string::String<[]>[#6]"**
  %__arg0122 = alloca %"struct.collections::string::String<[]>[#6]"*
  %__args_vec123 = alloca [1 x %"struct.core::fmt::Argument<[]>[#3]"]*
  %24 = alloca %"struct.core::fmt::Argument<[]>[#3]"
  %__args126 = alloca %"struct.core::fmt::Arguments<[]>[#3]"
  %__fat_ptr127 = alloca { %str_slice*, i64 }
  %__fat_ptr128 = alloca { %str_slice*, i64 }
  %__fat_ptr129 = alloca { %"struct.core::fmt::Argument<[]>[#3]"*, i64 }
  %__fat_ptr130 = alloca { %"struct.core::fmt::Argument<[]>[#3]"*, i64 }
  %temp = alloca {}
  %match134 = alloca {}
  %__args_vec136 = alloca [0 x %"struct.core::fmt::Argument<[]>[#3]"]*
  %25 = alloca %"struct.core::fmt::Argument<[]>[#3]", i64 0
  %__args137 = alloca %"struct.core::fmt::Arguments<[]>[#3]"
  %__fat_ptr138 = alloca { %str_slice*, i64 }
  %__fat_ptr139 = alloca { %str_slice*, i64 }
  %__fat_ptr140 = alloca { %"struct.core::fmt::Argument<[]>[#3]"*, i64 }
  %__fat_ptr141 = alloca { %"struct.core::fmt::Argument<[]>[#3]"*, i64 }
  %vals = alloca %"struct.core::slice::Items<[Box<HyObj>]>[#3]"
  %26 = alloca i8*
  %match143 = alloca i8*
  %__llmatch145 = alloca %"struct.HyObj<[]>"***
  %val = alloca %"struct.HyObj<[]>"**
  %for_head = alloca %"struct.core::slice::Items<[Box<HyObj>]>[#3]"*
  %loop_option = alloca i8*
  %temp150 = alloca {}
  %match151 = alloca {}
  %__args_vec153 = alloca [0 x %"struct.core::fmt::Argument<[]>[#3]"]*
  %27 = alloca %"struct.core::fmt::Argument<[]>[#3]", i64 0
  %__args154 = alloca %"struct.core::fmt::Arguments<[]>[#3]"
  %__fat_ptr155 = alloca { %str_slice*, i64 }
  %__fat_ptr156 = alloca { %str_slice*, i64 }
  %__fat_ptr157 = alloca { %"struct.core::fmt::Argument<[]>[#3]"*, i64 }
  %__fat_ptr158 = alloca { %"struct.core::fmt::Argument<[]>[#3]"*, i64 }
  %temp160 = alloca {}
  %match161 = alloca {}
  %__args_vec163 = alloca [0 x %"struct.core::fmt::Argument<[]>[#3]"]*
  %28 = alloca %"struct.core::fmt::Argument<[]>[#3]", i64 0
  %__args164 = alloca %"struct.core::fmt::Arguments<[]>[#3]"
  %__fat_ptr165 = alloca { %str_slice*, i64 }
  %__fat_ptr166 = alloca { %str_slice*, i64 }
  %__fat_ptr167 = alloca { %"struct.core::fmt::Argument<[]>[#3]"*, i64 }
  %__fat_ptr168 = alloca { %"struct.core::fmt::Argument<[]>[#3]"*, i64 }
  %temp170 = alloca {}
  %match171 = alloca {}
  %__args_vec173 = alloca [0 x %"struct.core::fmt::Argument<[]>[#3]"]*
  %29 = alloca %"struct.core::fmt::Argument<[]>[#3]", i64 0
  %__args174 = alloca %"struct.core::fmt::Arguments<[]>[#3]"
  %__fat_ptr175 = alloca { %str_slice*, i64 }
  %__fat_ptr176 = alloca { %str_slice*, i64 }
  %__fat_ptr177 = alloca { %"struct.core::fmt::Argument<[]>[#3]"*, i64 }
  %__fat_ptr178 = alloca { %"struct.core::fmt::Argument<[]>[#3]"*, i64 }
  %vals180 = alloca %"struct.core::slice::Items<[Box<HyObj>]>[#3]"
  %30 = alloca i8*
  %match181 = alloca i8*
  %__llmatch183 = alloca %"struct.HyObj<[]>"***
  %val184 = alloca %"struct.HyObj<[]>"**
  %for_head189 = alloca %"struct.core::slice::Items<[Box<HyObj>]>[#3]"*
  %loop_option193 = alloca i8*
  %temp194 = alloca {}
  %match195 = alloca {}
  %__args_vec197 = alloca [0 x %"struct.core::fmt::Argument<[]>[#3]"]*
  %31 = alloca %"struct.core::fmt::Argument<[]>[#3]", i64 0
  %__args198 = alloca %"struct.core::fmt::Arguments<[]>[#3]"
  %__fat_ptr199 = alloca { %str_slice*, i64 }
  %__fat_ptr200 = alloca { %str_slice*, i64 }
  %__fat_ptr201 = alloca { %"struct.core::fmt::Argument<[]>[#3]"*, i64 }
  %__fat_ptr202 = alloca { %"struct.core::fmt::Argument<[]>[#3]"*, i64 }
  %temp204 = alloca {}
  %match205 = alloca {}
  %__args_vec207 = alloca [0 x %"struct.core::fmt::Argument<[]>[#3]"]*
  %32 = alloca %"struct.core::fmt::Argument<[]>[#3]", i64 0
  %__args208 = alloca %"struct.core::fmt::Arguments<[]>[#3]"
  %__fat_ptr209 = alloca { %str_slice*, i64 }
  %__fat_ptr210 = alloca { %str_slice*, i64 }
  %__fat_ptr211 = alloca { %"struct.core::fmt::Argument<[]>[#3]"*, i64 }
  %__fat_ptr212 = alloca { %"struct.core::fmt::Argument<[]>[#3]"*, i64 }
  %33 = alloca { %str_slice* }
  %34 = alloca %str_slice
  %match214 = alloca { %str_slice* }
  %__llmatch216 = alloca %str_slice**
  %__arg0217 = alloca %str_slice*
  %__args_vec218 = alloca [1 x %"struct.core::fmt::Argument<[]>[#3]"]*
  %35 = alloca %"struct.core::fmt::Argument<[]>[#3]"
  %__args219 = alloca %"struct.core::fmt::Arguments<[]>[#3]"
  %__fat_ptr220 = alloca { %str_slice*, i64 }
  %__fat_ptr221 = alloca { %str_slice*, i64 }
  %__fat_ptr222 = alloca { %"struct.core::fmt::Argument<[]>[#3]"*, i64 }
  %__fat_ptr223 = alloca { %"struct.core::fmt::Argument<[]>[#3]"*, i64 }
  %key_val_pairs = alloca %"struct.collections::treemap::Entries<[collections::string::String, Box<HyObj>]>[#6]"
  %36 = alloca %"enum.core::option::Option<[(&'static collections::string::String,&'static Box<HyObj>)]>[#3]"
  %__llmatch228 = alloca %"struct.collections::string::String<[]>[#6]"**
  %key = alloca %"struct.collections::string::String<[]>[#6]"*
  %__llmatch229 = alloca %"struct.HyObj<[]>"***
  %val230 = alloca %"struct.HyObj<[]>"**
  %37 = alloca { %"struct.collections::string::String<[]>[#6]"** }
  %match234 = alloca { %"struct.collections::string::String<[]>[#6]"** }
  %__llmatch236 = alloca %"struct.collections::string::String<[]>[#6]"***
  %__arg0237 = alloca %"struct.collections::string::String<[]>[#6]"**
  %__args_vec238 = alloca [1 x %"struct.core::fmt::Argument<[]>[#3]"]*
  %38 = alloca %"struct.core::fmt::Argument<[]>[#3]"
  %__args240 = alloca %"struct.core::fmt::Arguments<[]>[#3]"
  %__fat_ptr241 = alloca { %str_slice*, i64 }
  %__fat_ptr242 = alloca { %str_slice*, i64 }
  %__fat_ptr243 = alloca { %"struct.core::fmt::Argument<[]>[#3]"*, i64 }
  %__fat_ptr244 = alloca { %"struct.core::fmt::Argument<[]>[#3]"*, i64 }
  %for_head250 = alloca %"struct.collections::treemap::Entries<[collections::string::String, Box<HyObj>]>[#6]"*
  %loop_option254 = alloca %"enum.core::option::Option<[(&'static collections::string::String,&'static Box<HyObj>)]>[#3]"
  %key256 = alloca %"struct.collections::string::String<[]>[#6]"*
  %val257 = alloca %"struct.HyObj<[]>"**
  %39 = alloca { %"struct.collections::string::String<[]>[#6]"** }
  %match258 = alloca { %"struct.collections::string::String<[]>[#6]"** }
  %__llmatch260 = alloca %"struct.collections::string::String<[]>[#6]"***
  %__arg0261 = alloca %"struct.collections::string::String<[]>[#6]"**
  %__args_vec262 = alloca [1 x %"struct.core::fmt::Argument<[]>[#3]"]*
  %40 = alloca %"struct.core::fmt::Argument<[]>[#3]"
  %__args264 = alloca %"struct.core::fmt::Arguments<[]>[#3]"
  %__fat_ptr265 = alloca { %str_slice*, i64 }
  %__fat_ptr266 = alloca { %str_slice*, i64 }
  %__fat_ptr267 = alloca { %"struct.core::fmt::Argument<[]>[#3]"*, i64 }
  %__fat_ptr268 = alloca { %"struct.core::fmt::Argument<[]>[#3]"*, i64 }
  %41 = alloca { %str_slice* }
  %42 = alloca %str_slice
  %match273 = alloca { %str_slice* }
  %__llmatch275 = alloca %str_slice**
  %__arg0276 = alloca %str_slice*
  %__args_vec277 = alloca [1 x %"struct.core::fmt::Argument<[]>[#3]"]*
  %43 = alloca %"struct.core::fmt::Argument<[]>[#3]"
  %__args279 = alloca %"struct.core::fmt::Arguments<[]>[#3]"
  %__fat_ptr280 = alloca { %str_slice*, i64 }
  %__fat_ptr281 = alloca { %str_slice*, i64 }
  %__fat_ptr282 = alloca { %"struct.core::fmt::Argument<[]>[#3]"*, i64 }
  %__fat_ptr283 = alloca { %"struct.core::fmt::Argument<[]>[#3]"*, i64 }
  %temp287 = alloca {}
  %match288 = alloca {}
  %__args_vec290 = alloca [0 x %"struct.core::fmt::Argument<[]>[#3]"]*
  %44 = alloca %"struct.core::fmt::Argument<[]>[#3]", i64 0
  %__args291 = alloca %"struct.core::fmt::Arguments<[]>[#3]"
  %__fat_ptr292 = alloca { %str_slice*, i64 }
  %__fat_ptr293 = alloca { %str_slice*, i64 }
  %__fat_ptr294 = alloca { %"struct.core::fmt::Argument<[]>[#3]"*, i64 }
  %__fat_ptr295 = alloca { %"struct.core::fmt::Argument<[]>[#3]"*, i64 }
  %temp297 = alloca {}
  %match298 = alloca {}
  %__args_vec300 = alloca [0 x %"struct.core::fmt::Argument<[]>[#3]"]*
  %45 = alloca %"struct.core::fmt::Argument<[]>[#3]", i64 0
  %__args301 = alloca %"struct.core::fmt::Arguments<[]>[#3]"
  %__fat_ptr302 = alloca { %str_slice*, i64 }
  %__fat_ptr303 = alloca { %str_slice*, i64 }
  %__fat_ptr304 = alloca { %"struct.core::fmt::Argument<[]>[#3]"*, i64 }
  %__fat_ptr305 = alloca { %"struct.core::fmt::Argument<[]>[#3]"*, i64 }
  %s308 = alloca %"struct.collections::string::String<[]>[#6]"
  %c_str = alloca %"struct.rustrt::c_str::CString<[]>[#9]"
  %46 = alloca %"struct.collections::vec::Vec<[u8]>[#6]"*
  %47 = alloca { i8*, i64 }
  %48 = alloca { %"struct.collections::string::String<[]>[#6]"* }
  %match314 = alloca { %"struct.collections::string::String<[]>[#6]"* }
  %__llmatch316 = alloca %"struct.collections::string::String<[]>[#6]"**
  %__arg0317 = alloca %"struct.collections::string::String<[]>[#6]"*
  %__args_vec318 = alloca [1 x %"struct.core::fmt::Argument<[]>[#3]"]*
  %49 = alloca %"struct.core::fmt::Argument<[]>[#3]"
  %__args320 = alloca %"struct.core::fmt::Arguments<[]>[#3]"
  %__fat_ptr321 = alloca { %str_slice*, i64 }
  %__fat_ptr322 = alloca { %str_slice*, i64 }
  %__fat_ptr323 = alloca { %"struct.core::fmt::Argument<[]>[#3]"*, i64 }
  %__fat_ptr324 = alloca { %"struct.core::fmt::Argument<[]>[#3]"*, i64 }
  %temp332 = alloca {}
  %match333 = alloca {}
  %__args_vec335 = alloca [0 x %"struct.core::fmt::Argument<[]>[#3]"]*
  %50 = alloca %"struct.core::fmt::Argument<[]>[#3]", i64 0
  %__args336 = alloca %"struct.core::fmt::Arguments<[]>[#3]"
  %__fat_ptr337 = alloca { %str_slice*, i64 }
  %__fat_ptr338 = alloca { %str_slice*, i64 }
  %__fat_ptr339 = alloca { %"struct.core::fmt::Argument<[]>[#3]"*, i64 }
  %__fat_ptr340 = alloca { %"struct.core::fmt::Argument<[]>[#3]"*, i64 }
  %51 = alloca { i64* }
  %match342 = alloca { i64* }
  %__llmatch344 = alloca i64**
  %__arg0345 = alloca i64*
  %__args_vec346 = alloca [1 x %"struct.core::fmt::Argument<[]>[#3]"]*
  %52 = alloca %"struct.core::fmt::Argument<[]>[#3]"
  %__args347 = alloca %"struct.core::fmt::Arguments<[]>[#3]"
  %__fat_ptr348 = alloca { %str_slice*, i64 }
  %__fat_ptr349 = alloca { %str_slice*, i64 }
  %__fat_ptr350 = alloca { %"struct.core::fmt::Argument<[]>[#3]"*, i64 }
  %__fat_ptr351 = alloca { %"struct.core::fmt::Argument<[]>[#3]"*, i64 }
  %temp354 = alloca {}
  %match355 = alloca {}
  %__args_vec357 = alloca [0 x %"struct.core::fmt::Argument<[]>[#3]"]*
  %53 = alloca %"struct.core::fmt::Argument<[]>[#3]", i64 0
  %__args358 = alloca %"struct.core::fmt::Arguments<[]>[#3]"
  %__fat_ptr359 = alloca { %str_slice*, i64 }
  %__fat_ptr360 = alloca { %str_slice*, i64 }
  %__fat_ptr361 = alloca { %"struct.core::fmt::Argument<[]>[#3]"*, i64 }
  %__fat_ptr362 = alloca { %"struct.core::fmt::Argument<[]>[#3]"*, i64 }
  store %"struct.HyObj<[]>"* %0, %"struct.HyObj<[]>"** %self
  %54 = load %"struct.HyObj<[]>"** %self
  %55 = getelementptr inbounds %"struct.HyObj<[]>"* %54, i32 0, i32 0
  %56 = getelementptr inbounds %"enum.HyObjType<[]>"* %55, i32 0, i32 0
  %57 = load i8* %56, !range !1
  switch i8 %57, label %match_else [
    i8 11, label %match_case
    i8 12, label %match_case19
    i8 10, label %match_case20
    i8 8, label %match_case21
    i8 6, label %match_case22
    i8 7, label %match_case23
    i8 4, label %match_case24
    i8 5, label %match_case25
    i8 3, label %match_case26
    i8 9, label %match_case27
    i8 1, label %match_case28
    i8 2, label %match_case29
  ]

case_body:                                        ; preds = %match_case
  %58 = getelementptr inbounds { %str_slice* }* %1, i32 0, i32 0
  %59 = getelementptr inbounds %str_slice* %2, i32 0, i32 0
  store i8* getelementptr inbounds ([9 x i8]* @str2569, i32 0, i32 0), i8** %59
  %60 = getelementptr inbounds %str_slice* %2, i32 0, i32 1
  store i64 9, i64* %60
  store %str_slice* %2, %str_slice** %58
  %61 = load { %str_slice* }* %1
  store { %str_slice* } %61, { %str_slice* }* %match
  %62 = getelementptr inbounds { %str_slice* }* %match, i32 0, i32 0
  store %str_slice** %62, %str_slice*** %__llmatch31
  br label %case_body30

case_body1:                                       ; preds = %match_case19
  %63 = getelementptr inbounds { %str_slice* }* %4, i32 0, i32 0
  %64 = getelementptr inbounds %str_slice* %5, i32 0, i32 0
  store i8* getelementptr inbounds ([4 x i8]* @str2616, i32 0, i32 0), i8** %64
  %65 = getelementptr inbounds %str_slice* %5, i32 0, i32 1
  store i64 4, i64* %65
  store %str_slice* %5, %str_slice** %63
  %66 = load { %str_slice* }* %4
  store { %str_slice* } %66, { %str_slice* }* %match35
  %67 = getelementptr inbounds { %str_slice* }* %match35, i32 0, i32 0
  store %str_slice** %67, %str_slice*** %__llmatch37
  br label %case_body36

case_body2:                                       ; preds = %match_case20
  %68 = load i64** %__llmatch
  %69 = load i64* %68
  store i64 %69, i64* %i
  %70 = getelementptr inbounds { %"struct.collections::string::String<[]>[#6]"* }* %7, i32 0, i32 0
  %71 = getelementptr inbounds { i64* }* %9, i32 0, i32 0
  store i64* %i, i64** %71
  %72 = load { i64* }* %9
  store { i64* } %72, { i64* }* %match46
  %73 = getelementptr inbounds { i64* }* %match46, i32 0, i32 0
  store i64** %73, i64*** %__llmatch48
  br label %case_body47

case_body3:                                       ; preds = %match_case21
  %74 = load double** %__llmatch4
  %75 = load double* %74
  store double %75, double* %f
  %76 = getelementptr inbounds { %"struct.collections::string::String<[]>[#6]"* }* %13, i32 0, i32 0
  %77 = getelementptr inbounds { double* }* %15, i32 0, i32 0
  store double* %f, double** %77
  %78 = load { double* }* %15
  store { double* } %78, { double* }* %match71
  %79 = getelementptr inbounds { double* }* %match71, i32 0, i32 0
  store double** %79, double*** %__llmatch73
  br label %case_body72

case_body5:                                       ; preds = %match_case22
  %80 = getelementptr inbounds { %"struct.collections::string::String<[]>[#6]"** }* %18, i32 0, i32 0
  store %"struct.collections::string::String<[]>[#6]"** %s, %"struct.collections::string::String<[]>[#6]"*** %80
  %81 = load { %"struct.collections::string::String<[]>[#6]"** }* %18
  store { %"struct.collections::string::String<[]>[#6]"** } %81, { %"struct.collections::string::String<[]>[#6]"** }* %match97
  %82 = getelementptr inbounds { %"struct.collections::string::String<[]>[#6]"** }* %match97, i32 0, i32 0
  store %"struct.collections::string::String<[]>[#6]"*** %82, %"struct.collections::string::String<[]>[#6]"**** %__llmatch99
  br label %case_body98

case_body6:                                       ; preds = %match_case23
  %83 = getelementptr inbounds { %"struct.collections::string::String<[]>[#6]"* }* %20, i32 0, i32 0
  %84 = getelementptr inbounds { %"enum.regex::re::Regex<[]>[#10]"** }* %22, i32 0, i32 0
  store %"enum.regex::re::Regex<[]>[#10]"** %r, %"enum.regex::re::Regex<[]>[#10]"*** %84
  %85 = load { %"enum.regex::re::Regex<[]>[#10]"** }* %22
  store { %"enum.regex::re::Regex<[]>[#10]"** } %85, { %"enum.regex::re::Regex<[]>[#10]"** }* %match108
  %86 = getelementptr inbounds { %"enum.regex::re::Regex<[]>[#10]"** }* %match108, i32 0, i32 0
  store %"enum.regex::re::Regex<[]>[#10]"*** %86, %"enum.regex::re::Regex<[]>[#10]"**** %__llmatch110
  br label %case_body109

case_body7:                                       ; preds = %match_case24
  br label %case_body135

case_body8:                                       ; preds = %match_case25
  br label %case_body172

case_body10:                                      ; preds = %match_case26
  %87 = getelementptr inbounds { %str_slice* }* %33, i32 0, i32 0
  %88 = getelementptr inbounds %str_slice* %34, i32 0, i32 0
  store i8* getelementptr inbounds ([1 x i8]* @str2729, i32 0, i32 0), i8** %88
  %89 = getelementptr inbounds %str_slice* %34, i32 0, i32 1
  store i64 1, i64* %89
  store %str_slice* %34, %str_slice** %87
  %90 = load { %str_slice* }* %33
  store { %str_slice* } %90, { %str_slice* }* %match214
  %91 = getelementptr inbounds { %str_slice* }* %match214, i32 0, i32 0
  store %str_slice** %91, %str_slice*** %__llmatch216
  br label %case_body215

case_body11:                                      ; preds = %match_case27
  %92 = load i8** %__llmatch12
  %93 = load i8* %92
  store i8 %93, i8* %b
  %94 = load i8* %b, !range !0
  %95 = trunc i8 %94 to i1
  br i1 %95, label %then-block-1462-, label %else-block

case_body13:                                      ; preds = %match_case28
  %96 = load i8*** %__llmatch15
  %97 = load i8** %96
  store i8* %97, i8** %ptr
  call void @_ZN6string6String3new20haea3d624265af4b51MiE(%"struct.collections::string::String<[]>[#6]"* noalias nocapture sret dereferenceable(24) %s308)
  %98 = load i8** %ptr
  invoke void @_ZN5c_str7CString3new20hf6abb49cd9c76cfcn6aE(%"struct.rustrt::c_str::CString<[]>[#9]"* noalias nocapture sret dereferenceable(16) %c_str, i8* %98, i1 zeroext false)
          to label %normal-return309 unwind label %unwind_ast_1541_

case_body16:                                      ; preds = %match_case29
  %99 = load i64** %__llmatch17
  %100 = load i64* %99
  store i64 %100, i64* %buffer_sz
  %101 = load i64* %buffer_sz
  switch i64 %101, label %match_else330 [
    i64 0, label %match_case331
  ]

case_body18:                                      ; preds = %match_else
  br label %case_body356

match_else:                                       ; preds = %entry-block
  br label %case_body18

match_case:                                       ; preds = %entry-block
  br label %case_body

match_case19:                                     ; preds = %entry-block
  br label %case_body1

match_case20:                                     ; preds = %entry-block
  %102 = bitcast %"enum.HyObjType<[]>"* %55 to { i8, i64 }*
  %103 = getelementptr inbounds { i8, i64 }* %102, i32 0, i32 1
  store i64* %103, i64** %__llmatch
  br label %case_body2

match_case21:                                     ; preds = %entry-block
  %104 = bitcast %"enum.HyObjType<[]>"* %55 to { i8, double }*
  %105 = getelementptr inbounds { i8, double }* %104, i32 0, i32 1
  store double* %105, double** %__llmatch4
  br label %case_body3

match_case22:                                     ; preds = %entry-block
  %106 = bitcast %"enum.HyObjType<[]>"* %55 to { i8, %"struct.collections::string::String<[]>[#6]" }*
  %107 = getelementptr inbounds { i8, %"struct.collections::string::String<[]>[#6]" }* %106, i32 0, i32 1
  store %"struct.collections::string::String<[]>[#6]"* %107, %"struct.collections::string::String<[]>[#6]"** %s
  br label %case_body5

match_case23:                                     ; preds = %entry-block
  %108 = bitcast %"enum.HyObjType<[]>"* %55 to { i8, %"enum.regex::re::Regex<[]>[#10]" }*
  %109 = getelementptr inbounds { i8, %"enum.regex::re::Regex<[]>[#10]" }* %108, i32 0, i32 1
  store %"enum.regex::re::Regex<[]>[#10]"* %109, %"enum.regex::re::Regex<[]>[#10]"** %r
  br label %case_body6

match_case24:                                     ; preds = %entry-block
  %110 = bitcast %"enum.HyObjType<[]>"* %55 to { i8, %"struct.collections::vec::Vec<[Box<HyObj>]>[#6]" }*
  %111 = getelementptr inbounds { i8, %"struct.collections::vec::Vec<[Box<HyObj>]>[#6]" }* %110, i32 0, i32 1
  store %"struct.collections::vec::Vec<[Box<HyObj>]>[#6]"* %111, %"struct.collections::vec::Vec<[Box<HyObj>]>[#6]"** %vec
  br label %case_body7

match_case25:                                     ; preds = %entry-block
  %112 = bitcast %"enum.HyObjType<[]>"* %55 to { i8, %"struct.collections::vec::Vec<[Box<HyObj>]>[#6]" }*
  %113 = getelementptr inbounds { i8, %"struct.collections::vec::Vec<[Box<HyObj>]>[#6]" }* %112, i32 0, i32 1
  store %"struct.collections::vec::Vec<[Box<HyObj>]>[#6]"* %113, %"struct.collections::vec::Vec<[Box<HyObj>]>[#6]"** %vec9
  br label %case_body8

match_case26:                                     ; preds = %entry-block
  %114 = bitcast %"enum.HyObjType<[]>"* %55 to { i8, %"struct.collections::treemap::TreeMap<[collections::string::String, Box<HyObj>]>[#6]" }*
  %115 = getelementptr inbounds { i8, %"struct.collections::treemap::TreeMap<[collections::string::String, Box<HyObj>]>[#6]" }* %114, i32 0, i32 1
  store %"struct.collections::treemap::TreeMap<[collections::string::String, Box<HyObj>]>[#6]"* %115, %"struct.collections::treemap::TreeMap<[collections::string::String, Box<HyObj>]>[#6]"** %map
  br label %case_body10

match_case27:                                     ; preds = %entry-block
  %116 = bitcast %"enum.HyObjType<[]>"* %55 to { i8, i8 }*
  %117 = getelementptr inbounds { i8, i8 }* %116, i32 0, i32 1
  store i8* %117, i8** %__llmatch12
  br label %case_body11

match_case28:                                     ; preds = %entry-block
  %118 = bitcast %"enum.HyObjType<[]>"* %55 to { i8, { %"struct.HyObj<[]>"* (i8*, %"struct.HyObjSlice<[]>"*)*, i8* }, i8* }*
  %119 = getelementptr inbounds { i8, { %"struct.HyObj<[]>"* (i8*, %"struct.HyObjSlice<[]>"*)*, i8* }, i8* }* %118, i32 0, i32 1
  %120 = bitcast %"enum.HyObjType<[]>"* %55 to { i8, { %"struct.HyObj<[]>"* (i8*, %"struct.HyObjSlice<[]>"*)*, i8* }, i8* }*
  %121 = getelementptr inbounds { i8, { %"struct.HyObj<[]>"* (i8*, %"struct.HyObjSlice<[]>"*)*, i8* }, i8* }* %120, i32 0, i32 2
  store { %"struct.HyObj<[]>"* (i8*, %"struct.HyObjSlice<[]>"*)*, i8* }* %119, { %"struct.HyObj<[]>"* (i8*, %"struct.HyObjSlice<[]>"*)*, i8* }** %f14
  store i8** %121, i8*** %__llmatch15
  br label %case_body13

match_case29:                                     ; preds = %entry-block
  %122 = bitcast %"enum.HyObjType<[]>"* %55 to { i8, %"struct.sync::comm::SyncSender<[Box<HyObj>]>[#8]", %"struct.sync::comm::Receiver<[Box<HyObj>]>[#8]", i64 }*
  %123 = getelementptr inbounds { i8, %"struct.sync::comm::SyncSender<[Box<HyObj>]>[#8]", %"struct.sync::comm::Receiver<[Box<HyObj>]>[#8]", i64 }* %122, i32 0, i32 1
  %124 = bitcast %"enum.HyObjType<[]>"* %55 to { i8, %"struct.sync::comm::SyncSender<[Box<HyObj>]>[#8]", %"struct.sync::comm::Receiver<[Box<HyObj>]>[#8]", i64 }*
  %125 = getelementptr inbounds { i8, %"struct.sync::comm::SyncSender<[Box<HyObj>]>[#8]", %"struct.sync::comm::Receiver<[Box<HyObj>]>[#8]", i64 }* %124, i32 0, i32 2
  %126 = bitcast %"enum.HyObjType<[]>"* %55 to { i8, %"struct.sync::comm::SyncSender<[Box<HyObj>]>[#8]", %"struct.sync::comm::Receiver<[Box<HyObj>]>[#8]", i64 }*
  %127 = getelementptr inbounds { i8, %"struct.sync::comm::SyncSender<[Box<HyObj>]>[#8]", %"struct.sync::comm::Receiver<[Box<HyObj>]>[#8]", i64 }* %126, i32 0, i32 3
  store %"struct.sync::comm::SyncSender<[Box<HyObj>]>[#8]"* %123, %"struct.sync::comm::SyncSender<[Box<HyObj>]>[#8]"** %sendr
  store %"struct.sync::comm::Receiver<[Box<HyObj>]>[#8]"* %125, %"struct.sync::comm::Receiver<[Box<HyObj>]>[#8]"** %recvr
  store i64* %127, i64** %__llmatch17
  br label %case_body16

case_body30:                                      ; preds = %case_body
  %128 = load %str_slice*** %__llmatch31
  %129 = load %str_slice** %128
  store %str_slice* %129, %str_slice** %__arg0
  %130 = bitcast %"struct.core::fmt::Argument<[]>[#3]"* %3 to [1 x %"struct.core::fmt::Argument<[]>[#3]"]*
  %131 = getelementptr inbounds %"struct.core::fmt::Argument<[]>[#3]"* %3, i32 0
  %132 = load %str_slice** %__arg0
  call void @_ZN3fmt8argument21h11146405105578344569E(%"struct.core::fmt::Argument<[]>[#3]"* noalias nocapture sret dereferenceable(16) %131, %"enum.core::result::Result<[(), core::fmt::FormatError]>[#3]" (%str_slice*, %"struct.core::fmt::Formatter<[]>[#3]"*)* @_ZN3fmt11secret_show21h10698302665840969787E, %str_slice* noalias readonly dereferenceable(16) %132)
  store [1 x %"struct.core::fmt::Argument<[]>[#3]"]* %130, [1 x %"struct.core::fmt::Argument<[]>[#3]"]** %__args_vec
  %133 = getelementptr inbounds { %str_slice*, i64 }* %__fat_ptr, i32 0, i32 0
  store %str_slice* getelementptr inbounds ([1 x %str_slice]* @_ZN5HyObj12hy_obj_print15__STATIC_FMTSTR20ha9ed25ad4baec97eujaE, i32 0, i32 0), %str_slice** %133
  %134 = getelementptr inbounds { %str_slice*, i64 }* %__fat_ptr, i32 0, i32 1
  store i64 1, i64* %134
  %135 = getelementptr inbounds { %str_slice*, i64 }* %__fat_ptr, i32 0, i32 0
  %136 = load %str_slice** %135
  %137 = getelementptr inbounds { %str_slice*, i64 }* %__fat_ptr, i32 0, i32 1
  %138 = load i64* %137
  %139 = getelementptr inbounds { %str_slice*, i64 }* %__fat_ptr32, i32 0, i32 0
  store %str_slice* %136, %str_slice** %139
  %140 = getelementptr inbounds { %str_slice*, i64 }* %__fat_ptr32, i32 0, i32 1
  store i64 %138, i64* %140
  %141 = load [1 x %"struct.core::fmt::Argument<[]>[#3]"]** %__args_vec
  %142 = getelementptr inbounds [1 x %"struct.core::fmt::Argument<[]>[#3]"]* %141, i32 0, i32 0
  %143 = getelementptr inbounds { %"struct.core::fmt::Argument<[]>[#3]"*, i64 }* %__fat_ptr33, i32 0, i32 0
  store %"struct.core::fmt::Argument<[]>[#3]"* %142, %"struct.core::fmt::Argument<[]>[#3]"** %143
  %144 = getelementptr inbounds { %"struct.core::fmt::Argument<[]>[#3]"*, i64 }* %__fat_ptr33, i32 0, i32 1
  store i64 1, i64* %144
  %145 = getelementptr inbounds { %"struct.core::fmt::Argument<[]>[#3]"*, i64 }* %__fat_ptr33, i32 0, i32 0
  %146 = load %"struct.core::fmt::Argument<[]>[#3]"** %145
  %147 = getelementptr inbounds { %"struct.core::fmt::Argument<[]>[#3]"*, i64 }* %__fat_ptr33, i32 0, i32 1
  %148 = load i64* %147
  %149 = getelementptr inbounds { %"struct.core::fmt::Argument<[]>[#3]"*, i64 }* %__fat_ptr34, i32 0, i32 0
  store %"struct.core::fmt::Argument<[]>[#3]"* %146, %"struct.core::fmt::Argument<[]>[#3]"** %149
  %150 = getelementptr inbounds { %"struct.core::fmt::Argument<[]>[#3]"*, i64 }* %__fat_ptr34, i32 0, i32 1
  store i64 %148, i64* %150
  call void @"_ZN3fmt22Arguments$LT$$x27a$GT$3new20h5a0d288d00618aa4BDyE"(%"struct.core::fmt::Arguments<[]>[#3]"* noalias nocapture sret dereferenceable(48) %__args, { %str_slice*, i64 }* noalias nocapture dereferenceable(16) %__fat_ptr32, { %"struct.core::fmt::Argument<[]>[#3]"*, i64 }* noalias nocapture dereferenceable(16) %__fat_ptr34)
  call void @_ZN2io5stdio10print_args20hae54d0bc97b3553etolE(%"struct.core::fmt::Arguments<[]>[#3]"* noalias nocapture readonly dereferenceable(48) %__args)
  br label %join

join:                                             ; preds = %case_body30
  br label %join364

case_body36:                                      ; preds = %case_body1
  %151 = load %str_slice*** %__llmatch37
  %152 = load %str_slice** %151
  store %str_slice* %152, %str_slice** %__arg038
  %153 = bitcast %"struct.core::fmt::Argument<[]>[#3]"* %6 to [1 x %"struct.core::fmt::Argument<[]>[#3]"]*
  %154 = getelementptr inbounds %"struct.core::fmt::Argument<[]>[#3]"* %6, i32 0
  %155 = load %str_slice** %__arg038
  call void @_ZN3fmt8argument20h2160594484691737759E(%"struct.core::fmt::Argument<[]>[#3]"* noalias nocapture sret dereferenceable(16) %154, %"enum.core::result::Result<[(), core::fmt::FormatError]>[#3]" (%str_slice*, %"struct.core::fmt::Formatter<[]>[#3]"*)* @_ZN3fmt11secret_show20h1030683905555806300E, %str_slice* noalias readonly dereferenceable(16) %155)
  store [1 x %"struct.core::fmt::Argument<[]>[#3]"]* %153, [1 x %"struct.core::fmt::Argument<[]>[#3]"]** %__args_vec39
  %156 = getelementptr inbounds { %str_slice*, i64 }* %__fat_ptr41, i32 0, i32 0
  store %str_slice* getelementptr inbounds ([1 x %str_slice]* @_ZN5HyObj12hy_obj_print15__STATIC_FMTSTR20ha9ed25ad4baec97eekaE, i32 0, i32 0), %str_slice** %156
  %157 = getelementptr inbounds { %str_slice*, i64 }* %__fat_ptr41, i32 0, i32 1
  store i64 1, i64* %157
  %158 = getelementptr inbounds { %str_slice*, i64 }* %__fat_ptr41, i32 0, i32 0
  %159 = load %str_slice** %158
  %160 = getelementptr inbounds { %str_slice*, i64 }* %__fat_ptr41, i32 0, i32 1
  %161 = load i64* %160
  %162 = getelementptr inbounds { %str_slice*, i64 }* %__fat_ptr42, i32 0, i32 0
  store %str_slice* %159, %str_slice** %162
  %163 = getelementptr inbounds { %str_slice*, i64 }* %__fat_ptr42, i32 0, i32 1
  store i64 %161, i64* %163
  %164 = load [1 x %"struct.core::fmt::Argument<[]>[#3]"]** %__args_vec39
  %165 = getelementptr inbounds [1 x %"struct.core::fmt::Argument<[]>[#3]"]* %164, i32 0, i32 0
  %166 = getelementptr inbounds { %"struct.core::fmt::Argument<[]>[#3]"*, i64 }* %__fat_ptr43, i32 0, i32 0
  store %"struct.core::fmt::Argument<[]>[#3]"* %165, %"struct.core::fmt::Argument<[]>[#3]"** %166
  %167 = getelementptr inbounds { %"struct.core::fmt::Argument<[]>[#3]"*, i64 }* %__fat_ptr43, i32 0, i32 1
  store i64 1, i64* %167
  %168 = getelementptr inbounds { %"struct.core::fmt::Argument<[]>[#3]"*, i64 }* %__fat_ptr43, i32 0, i32 0
  %169 = load %"struct.core::fmt::Argument<[]>[#3]"** %168
  %170 = getelementptr inbounds { %"struct.core::fmt::Argument<[]>[#3]"*, i64 }* %__fat_ptr43, i32 0, i32 1
  %171 = load i64* %170
  %172 = getelementptr inbounds { %"struct.core::fmt::Argument<[]>[#3]"*, i64 }* %__fat_ptr44, i32 0, i32 0
  store %"struct.core::fmt::Argument<[]>[#3]"* %169, %"struct.core::fmt::Argument<[]>[#3]"** %172
  %173 = getelementptr inbounds { %"struct.core::fmt::Argument<[]>[#3]"*, i64 }* %__fat_ptr44, i32 0, i32 1
  store i64 %171, i64* %173
  call void @"_ZN3fmt22Arguments$LT$$x27a$GT$3new20h5a0d288d00618aa4BDyE"(%"struct.core::fmt::Arguments<[]>[#3]"* noalias nocapture sret dereferenceable(48) %__args40, { %str_slice*, i64 }* noalias nocapture dereferenceable(16) %__fat_ptr42, { %"struct.core::fmt::Argument<[]>[#3]"*, i64 }* noalias nocapture dereferenceable(16) %__fat_ptr44)
  call void @_ZN2io5stdio10print_args20hae54d0bc97b3553etolE(%"struct.core::fmt::Arguments<[]>[#3]"* noalias nocapture readonly dereferenceable(48) %__args40)
  br label %join45

join45:                                           ; preds = %case_body36
  br label %join364

case_body47:                                      ; preds = %case_body2
  %174 = load i64*** %__llmatch48
  %175 = load i64** %174
  store i64* %175, i64** %__arg049
  %176 = bitcast %"struct.core::fmt::Argument<[]>[#3]"* %10 to [1 x %"struct.core::fmt::Argument<[]>[#3]"]*
  %177 = getelementptr inbounds %"struct.core::fmt::Argument<[]>[#3]"* %10, i32 0
  %178 = load i64** %__arg049
  call void @_ZN3fmt8argument20h9634171305284677523E(%"struct.core::fmt::Argument<[]>[#3]"* noalias nocapture sret dereferenceable(16) %177, %"enum.core::result::Result<[(), core::fmt::FormatError]>[#3]" (i64*, %"struct.core::fmt::Formatter<[]>[#3]"*)* @_ZN3fmt11secret_show20h1784875980264743306E, i64* noalias readonly dereferenceable(8) %178)
  store [1 x %"struct.core::fmt::Argument<[]>[#3]"]* %176, [1 x %"struct.core::fmt::Argument<[]>[#3]"]** %__args_vec50
  %179 = getelementptr inbounds { %str_slice*, i64 }* %__fat_ptr52, i32 0, i32 0
  store %str_slice* getelementptr inbounds ([1 x %str_slice]* @_ZN5HyObj12hy_obj_print15__STATIC_FMTSTR20ha9ed25ad4baec97e3kaE, i32 0, i32 0), %str_slice** %179
  %180 = getelementptr inbounds { %str_slice*, i64 }* %__fat_ptr52, i32 0, i32 1
  store i64 1, i64* %180
  %181 = getelementptr inbounds { %str_slice*, i64 }* %__fat_ptr52, i32 0, i32 0
  %182 = load %str_slice** %181
  %183 = getelementptr inbounds { %str_slice*, i64 }* %__fat_ptr52, i32 0, i32 1
  %184 = load i64* %183
  %185 = getelementptr inbounds { %str_slice*, i64 }* %__fat_ptr53, i32 0, i32 0
  store %str_slice* %182, %str_slice** %185
  %186 = getelementptr inbounds { %str_slice*, i64 }* %__fat_ptr53, i32 0, i32 1
  store i64 %184, i64* %186
  %187 = load [1 x %"struct.core::fmt::Argument<[]>[#3]"]** %__args_vec50
  %188 = getelementptr inbounds [1 x %"struct.core::fmt::Argument<[]>[#3]"]* %187, i32 0, i32 0
  %189 = getelementptr inbounds { %"struct.core::fmt::Argument<[]>[#3]"*, i64 }* %__fat_ptr54, i32 0, i32 0
  store %"struct.core::fmt::Argument<[]>[#3]"* %188, %"struct.core::fmt::Argument<[]>[#3]"** %189
  %190 = getelementptr inbounds { %"struct.core::fmt::Argument<[]>[#3]"*, i64 }* %__fat_ptr54, i32 0, i32 1
  store i64 1, i64* %190
  %191 = getelementptr inbounds { %"struct.core::fmt::Argument<[]>[#3]"*, i64 }* %__fat_ptr54, i32 0, i32 0
  %192 = load %"struct.core::fmt::Argument<[]>[#3]"** %191
  %193 = getelementptr inbounds { %"struct.core::fmt::Argument<[]>[#3]"*, i64 }* %__fat_ptr54, i32 0, i32 1
  %194 = load i64* %193
  %195 = getelementptr inbounds { %"struct.core::fmt::Argument<[]>[#3]"*, i64 }* %__fat_ptr55, i32 0, i32 0
  store %"struct.core::fmt::Argument<[]>[#3]"* %192, %"struct.core::fmt::Argument<[]>[#3]"** %195
  %196 = getelementptr inbounds { %"struct.core::fmt::Argument<[]>[#3]"*, i64 }* %__fat_ptr55, i32 0, i32 1
  store i64 %194, i64* %196
  call void @"_ZN3fmt22Arguments$LT$$x27a$GT$3new20h5a0d288d00618aa4BDyE"(%"struct.core::fmt::Arguments<[]>[#3]"* noalias nocapture sret dereferenceable(48) %__args51, { %str_slice*, i64 }* noalias nocapture dereferenceable(16) %__fat_ptr53, { %"struct.core::fmt::Argument<[]>[#3]"*, i64 }* noalias nocapture dereferenceable(16) %__fat_ptr55)
  call void @_ZN3fmt6format20ha48bee0345f890a1p7pE(%"struct.collections::string::String<[]>[#6]"* noalias nocapture sret dereferenceable(24) %8, %"struct.core::fmt::Arguments<[]>[#3]"* noalias nocapture readonly dereferenceable(48) %__args51)
  br label %join56

join56:                                           ; preds = %case_body47
  store %"struct.collections::string::String<[]>[#6]"* %8, %"struct.collections::string::String<[]>[#6]"** %70
  %197 = load { %"struct.collections::string::String<[]>[#6]"* }* %7
  store { %"struct.collections::string::String<[]>[#6]"* } %197, { %"struct.collections::string::String<[]>[#6]"* }* %match57
  %198 = getelementptr inbounds { %"struct.collections::string::String<[]>[#6]"* }* %match57, i32 0, i32 0
  store %"struct.collections::string::String<[]>[#6]"** %198, %"struct.collections::string::String<[]>[#6]"*** %__llmatch59
  br label %case_body58

case_body58:                                      ; preds = %join56
  %199 = load %"struct.collections::string::String<[]>[#6]"*** %__llmatch59
  %200 = load %"struct.collections::string::String<[]>[#6]"** %199
  store %"struct.collections::string::String<[]>[#6]"* %200, %"struct.collections::string::String<[]>[#6]"** %__arg060
  %201 = bitcast %"struct.core::fmt::Argument<[]>[#3]"* %11 to [1 x %"struct.core::fmt::Argument<[]>[#3]"]*
  %202 = getelementptr inbounds %"struct.core::fmt::Argument<[]>[#3]"* %11, i32 0
  %203 = load %"struct.collections::string::String<[]>[#6]"** %__arg060
  invoke void @_ZN3fmt8argument20h8477380921845003020E(%"struct.core::fmt::Argument<[]>[#3]"* noalias nocapture sret dereferenceable(16) %202, %"enum.core::result::Result<[(), core::fmt::FormatError]>[#3]" (%"struct.collections::string::String<[]>[#6]"*, %"struct.core::fmt::Formatter<[]>[#3]"*)* @_ZN3fmt11secret_show21h13016532082515408702E, %"struct.collections::string::String<[]>[#6]"* noalias readonly dereferenceable(24) %203)
          to label %normal-return unwind label %unwind_ast_661_

normal-return:                                    ; preds = %case_body58
  store [1 x %"struct.core::fmt::Argument<[]>[#3]"]* %201, [1 x %"struct.core::fmt::Argument<[]>[#3]"]** %__args_vec61
  %204 = getelementptr inbounds { %str_slice*, i64 }* %__fat_ptr64, i32 0, i32 0
  store %str_slice* getelementptr inbounds ([1 x %str_slice]* @_ZN5HyObj12hy_obj_print15__STATIC_FMTSTR20ha9ed25ad4baec97eFlaE, i32 0, i32 0), %str_slice** %204
  %205 = getelementptr inbounds { %str_slice*, i64 }* %__fat_ptr64, i32 0, i32 1
  store i64 1, i64* %205
  %206 = getelementptr inbounds { %str_slice*, i64 }* %__fat_ptr64, i32 0, i32 0
  %207 = load %str_slice** %206
  %208 = getelementptr inbounds { %str_slice*, i64 }* %__fat_ptr64, i32 0, i32 1
  %209 = load i64* %208
  %210 = getelementptr inbounds { %str_slice*, i64 }* %__fat_ptr65, i32 0, i32 0
  store %str_slice* %207, %str_slice** %210
  %211 = getelementptr inbounds { %str_slice*, i64 }* %__fat_ptr65, i32 0, i32 1
  store i64 %209, i64* %211
  %212 = load [1 x %"struct.core::fmt::Argument<[]>[#3]"]** %__args_vec61
  %213 = getelementptr inbounds [1 x %"struct.core::fmt::Argument<[]>[#3]"]* %212, i32 0, i32 0
  %214 = getelementptr inbounds { %"struct.core::fmt::Argument<[]>[#3]"*, i64 }* %__fat_ptr66, i32 0, i32 0
  store %"struct.core::fmt::Argument<[]>[#3]"* %213, %"struct.core::fmt::Argument<[]>[#3]"** %214
  %215 = getelementptr inbounds { %"struct.core::fmt::Argument<[]>[#3]"*, i64 }* %__fat_ptr66, i32 0, i32 1
  store i64 1, i64* %215
  %216 = getelementptr inbounds { %"struct.core::fmt::Argument<[]>[#3]"*, i64 }* %__fat_ptr66, i32 0, i32 0
  %217 = load %"struct.core::fmt::Argument<[]>[#3]"** %216
  %218 = getelementptr inbounds { %"struct.core::fmt::Argument<[]>[#3]"*, i64 }* %__fat_ptr66, i32 0, i32 1
  %219 = load i64* %218
  %220 = getelementptr inbounds { %"struct.core::fmt::Argument<[]>[#3]"*, i64 }* %__fat_ptr67, i32 0, i32 0
  store %"struct.core::fmt::Argument<[]>[#3]"* %217, %"struct.core::fmt::Argument<[]>[#3]"** %220
  %221 = getelementptr inbounds { %"struct.core::fmt::Argument<[]>[#3]"*, i64 }* %__fat_ptr67, i32 0, i32 1
  store i64 %219, i64* %221
  invoke void @"_ZN3fmt22Arguments$LT$$x27a$GT$3new20h5a0d288d00618aa4BDyE"(%"struct.core::fmt::Arguments<[]>[#3]"* noalias nocapture sret dereferenceable(48) %__args63, { %str_slice*, i64 }* noalias nocapture dereferenceable(16) %__fat_ptr65, { %"struct.core::fmt::Argument<[]>[#3]"*, i64 }* noalias nocapture dereferenceable(16) %__fat_ptr67)
          to label %normal-return68 unwind label %unwind_ast_661_

unwind_ast_661_:                                  ; preds = %normal-return68, %normal-return, %case_body58
  %222 = landingpad { i8*, i32 } personality i32 (i32, i32, i64, %"struct.rustrt::libunwind::_Unwind_Exception<[]>[#9]"*, %"enum.rustrt::libunwind::_Unwind_Context<[]>[#9]"*)* @rust_eh_personality
          cleanup
  store { i8*, i32 } %222, { i8*, i32 }* %12
  br label %clean_ast_661_

resume:                                           ; preds = %clean_custom_
  %223 = load { i8*, i32 }* %12
  resume { i8*, i32 } %223

clean_custom_:                                    ; preds = %clean_custom_310, %clean_custom_226, %clean_custom_125, %clean_custom_88, %clean_custom_62
  br label %resume

clean_custom_62:                                  ; preds = %clean_ast_661_
  br label %clean_custom_

clean_ast_661_:                                   ; preds = %unwind_ast_661_
  call void @_ZN27collections..string..String14glue_drop.262917h03add16664af39b7E(%"struct.collections::string::String<[]>[#6]"* %8)
  br label %clean_custom_62

normal-return68:                                  ; preds = %normal-return
  invoke void @_ZN2io5stdio10print_args20hae54d0bc97b3553etolE(%"struct.core::fmt::Arguments<[]>[#3]"* noalias nocapture readonly dereferenceable(48) %__args63)
          to label %normal-return69 unwind label %unwind_ast_661_

normal-return69:                                  ; preds = %normal-return68
  br label %join70

join70:                                           ; preds = %normal-return69
  call void @_ZN27collections..string..String14glue_drop.262917h03add16664af39b7E(%"struct.collections::string::String<[]>[#6]"* %8)
  br label %join364

case_body72:                                      ; preds = %case_body3
  %224 = load double*** %__llmatch73
  %225 = load double** %224
  store double* %225, double** %__arg074
  %226 = bitcast %"struct.core::fmt::Argument<[]>[#3]"* %16 to [1 x %"struct.core::fmt::Argument<[]>[#3]"]*
  %227 = getelementptr inbounds %"struct.core::fmt::Argument<[]>[#3]"* %16, i32 0
  %228 = load double** %__arg074
  call void @_ZN3fmt8argument21h15637821436350298698E(%"struct.core::fmt::Argument<[]>[#3]"* noalias nocapture sret dereferenceable(16) %227, %"enum.core::result::Result<[(), core::fmt::FormatError]>[#3]" (double*, %"struct.core::fmt::Formatter<[]>[#3]"*)* @_ZN3fmt11secret_show21h11688613911888066394E, double* noalias readonly dereferenceable(8) %228)
  store [1 x %"struct.core::fmt::Argument<[]>[#3]"]* %226, [1 x %"struct.core::fmt::Argument<[]>[#3]"]** %__args_vec75
  %229 = getelementptr inbounds { %str_slice*, i64 }* %__fat_ptr77, i32 0, i32 0
  store %str_slice* getelementptr inbounds ([1 x %str_slice]* @_ZN5HyObj12hy_obj_print15__STATIC_FMTSTR20ha9ed25ad4baec97eumaE, i32 0, i32 0), %str_slice** %229
  %230 = getelementptr inbounds { %str_slice*, i64 }* %__fat_ptr77, i32 0, i32 1
  store i64 1, i64* %230
  %231 = getelementptr inbounds { %str_slice*, i64 }* %__fat_ptr77, i32 0, i32 0
  %232 = load %str_slice** %231
  %233 = getelementptr inbounds { %str_slice*, i64 }* %__fat_ptr77, i32 0, i32 1
  %234 = load i64* %233
  %235 = getelementptr inbounds { %str_slice*, i64 }* %__fat_ptr78, i32 0, i32 0
  store %str_slice* %232, %str_slice** %235
  %236 = getelementptr inbounds { %str_slice*, i64 }* %__fat_ptr78, i32 0, i32 1
  store i64 %234, i64* %236
  %237 = load [1 x %"struct.core::fmt::Argument<[]>[#3]"]** %__args_vec75
  %238 = getelementptr inbounds [1 x %"struct.core::fmt::Argument<[]>[#3]"]* %237, i32 0, i32 0
  %239 = getelementptr inbounds { %"struct.core::fmt::Argument<[]>[#3]"*, i64 }* %__fat_ptr79, i32 0, i32 0
  store %"struct.core::fmt::Argument<[]>[#3]"* %238, %"struct.core::fmt::Argument<[]>[#3]"** %239
  %240 = getelementptr inbounds { %"struct.core::fmt::Argument<[]>[#3]"*, i64 }* %__fat_ptr79, i32 0, i32 1
  store i64 1, i64* %240
  %241 = getelementptr inbounds { %"struct.core::fmt::Argument<[]>[#3]"*, i64 }* %__fat_ptr79, i32 0, i32 0
  %242 = load %"struct.core::fmt::Argument<[]>[#3]"** %241
  %243 = getelementptr inbounds { %"struct.core::fmt::Argument<[]>[#3]"*, i64 }* %__fat_ptr79, i32 0, i32 1
  %244 = load i64* %243
  %245 = getelementptr inbounds { %"struct.core::fmt::Argument<[]>[#3]"*, i64 }* %__fat_ptr80, i32 0, i32 0
  store %"struct.core::fmt::Argument<[]>[#3]"* %242, %"struct.core::fmt::Argument<[]>[#3]"** %245
  %246 = getelementptr inbounds { %"struct.core::fmt::Argument<[]>[#3]"*, i64 }* %__fat_ptr80, i32 0, i32 1
  store i64 %244, i64* %246
  call void @"_ZN3fmt22Arguments$LT$$x27a$GT$3new20h5a0d288d00618aa4BDyE"(%"struct.core::fmt::Arguments<[]>[#3]"* noalias nocapture sret dereferenceable(48) %__args76, { %str_slice*, i64 }* noalias nocapture dereferenceable(16) %__fat_ptr78, { %"struct.core::fmt::Argument<[]>[#3]"*, i64 }* noalias nocapture dereferenceable(16) %__fat_ptr80)
  call void @_ZN3fmt6format20ha48bee0345f890a1p7pE(%"struct.collections::string::String<[]>[#6]"* noalias nocapture sret dereferenceable(24) %14, %"struct.core::fmt::Arguments<[]>[#3]"* noalias nocapture readonly dereferenceable(48) %__args76)
  br label %join81

join81:                                           ; preds = %case_body72
  store %"struct.collections::string::String<[]>[#6]"* %14, %"struct.collections::string::String<[]>[#6]"** %76
  %247 = load { %"struct.collections::string::String<[]>[#6]"* }* %13
  store { %"struct.collections::string::String<[]>[#6]"* } %247, { %"struct.collections::string::String<[]>[#6]"* }* %match82
  %248 = getelementptr inbounds { %"struct.collections::string::String<[]>[#6]"* }* %match82, i32 0, i32 0
  store %"struct.collections::string::String<[]>[#6]"** %248, %"struct.collections::string::String<[]>[#6]"*** %__llmatch84
  br label %case_body83

case_body83:                                      ; preds = %join81
  %249 = load %"struct.collections::string::String<[]>[#6]"*** %__llmatch84
  %250 = load %"struct.collections::string::String<[]>[#6]"** %249
  store %"struct.collections::string::String<[]>[#6]"* %250, %"struct.collections::string::String<[]>[#6]"** %__arg085
  %251 = bitcast %"struct.core::fmt::Argument<[]>[#3]"* %17 to [1 x %"struct.core::fmt::Argument<[]>[#3]"]*
  %252 = getelementptr inbounds %"struct.core::fmt::Argument<[]>[#3]"* %17, i32 0
  %253 = load %"struct.collections::string::String<[]>[#6]"** %__arg085
  invoke void @_ZN3fmt8argument20h8477380921845003020E(%"struct.core::fmt::Argument<[]>[#3]"* noalias nocapture sret dereferenceable(16) %252, %"enum.core::result::Result<[(), core::fmt::FormatError]>[#3]" (%"struct.collections::string::String<[]>[#6]"*, %"struct.core::fmt::Formatter<[]>[#3]"*)* @_ZN3fmt11secret_show21h13016532082515408702E, %"struct.collections::string::String<[]>[#6]"* noalias readonly dereferenceable(24) %253)
          to label %normal-return87 unwind label %unwind_ast_750_

normal-return87:                                  ; preds = %case_body83
  store [1 x %"struct.core::fmt::Argument<[]>[#3]"]* %251, [1 x %"struct.core::fmt::Argument<[]>[#3]"]** %__args_vec86
  %254 = getelementptr inbounds { %str_slice*, i64 }* %__fat_ptr90, i32 0, i32 0
  store %str_slice* getelementptr inbounds ([1 x %str_slice]* @_ZN5HyObj12hy_obj_print15__STATIC_FMTSTR20ha9ed25ad4baec97e6maE, i32 0, i32 0), %str_slice** %254
  %255 = getelementptr inbounds { %str_slice*, i64 }* %__fat_ptr90, i32 0, i32 1
  store i64 1, i64* %255
  %256 = getelementptr inbounds { %str_slice*, i64 }* %__fat_ptr90, i32 0, i32 0
  %257 = load %str_slice** %256
  %258 = getelementptr inbounds { %str_slice*, i64 }* %__fat_ptr90, i32 0, i32 1
  %259 = load i64* %258
  %260 = getelementptr inbounds { %str_slice*, i64 }* %__fat_ptr91, i32 0, i32 0
  store %str_slice* %257, %str_slice** %260
  %261 = getelementptr inbounds { %str_slice*, i64 }* %__fat_ptr91, i32 0, i32 1
  store i64 %259, i64* %261
  %262 = load [1 x %"struct.core::fmt::Argument<[]>[#3]"]** %__args_vec86
  %263 = getelementptr inbounds [1 x %"struct.core::fmt::Argument<[]>[#3]"]* %262, i32 0, i32 0
  %264 = getelementptr inbounds { %"struct.core::fmt::Argument<[]>[#3]"*, i64 }* %__fat_ptr92, i32 0, i32 0
  store %"struct.core::fmt::Argument<[]>[#3]"* %263, %"struct.core::fmt::Argument<[]>[#3]"** %264
  %265 = getelementptr inbounds { %"struct.core::fmt::Argument<[]>[#3]"*, i64 }* %__fat_ptr92, i32 0, i32 1
  store i64 1, i64* %265
  %266 = getelementptr inbounds { %"struct.core::fmt::Argument<[]>[#3]"*, i64 }* %__fat_ptr92, i32 0, i32 0
  %267 = load %"struct.core::fmt::Argument<[]>[#3]"** %266
  %268 = getelementptr inbounds { %"struct.core::fmt::Argument<[]>[#3]"*, i64 }* %__fat_ptr92, i32 0, i32 1
  %269 = load i64* %268
  %270 = getelementptr inbounds { %"struct.core::fmt::Argument<[]>[#3]"*, i64 }* %__fat_ptr93, i32 0, i32 0
  store %"struct.core::fmt::Argument<[]>[#3]"* %267, %"struct.core::fmt::Argument<[]>[#3]"** %270
  %271 = getelementptr inbounds { %"struct.core::fmt::Argument<[]>[#3]"*, i64 }* %__fat_ptr93, i32 0, i32 1
  store i64 %269, i64* %271
  invoke void @"_ZN3fmt22Arguments$LT$$x27a$GT$3new20h5a0d288d00618aa4BDyE"(%"struct.core::fmt::Arguments<[]>[#3]"* noalias nocapture sret dereferenceable(48) %__args89, { %str_slice*, i64 }* noalias nocapture dereferenceable(16) %__fat_ptr91, { %"struct.core::fmt::Argument<[]>[#3]"*, i64 }* noalias nocapture dereferenceable(16) %__fat_ptr93)
          to label %normal-return94 unwind label %unwind_ast_750_

unwind_ast_750_:                                  ; preds = %normal-return94, %normal-return87, %case_body83
  %272 = landingpad { i8*, i32 } personality i32 (i32, i32, i64, %"struct.rustrt::libunwind::_Unwind_Exception<[]>[#9]"*, %"enum.rustrt::libunwind::_Unwind_Context<[]>[#9]"*)* @rust_eh_personality
          cleanup
  store { i8*, i32 } %272, { i8*, i32 }* %12
  br label %clean_ast_750_

clean_custom_88:                                  ; preds = %clean_ast_750_
  br label %clean_custom_

clean_ast_750_:                                   ; preds = %unwind_ast_750_
  call void @_ZN27collections..string..String14glue_drop.262917h03add16664af39b7E(%"struct.collections::string::String<[]>[#6]"* %14)
  br label %clean_custom_88

normal-return94:                                  ; preds = %normal-return87
  invoke void @_ZN2io5stdio10print_args20hae54d0bc97b3553etolE(%"struct.core::fmt::Arguments<[]>[#3]"* noalias nocapture readonly dereferenceable(48) %__args89)
          to label %normal-return95 unwind label %unwind_ast_750_

normal-return95:                                  ; preds = %normal-return94
  br label %join96

join96:                                           ; preds = %normal-return95
  call void @_ZN27collections..string..String14glue_drop.262917h03add16664af39b7E(%"struct.collections::string::String<[]>[#6]"* %14)
  br label %join364

case_body98:                                      ; preds = %case_body5
  %273 = load %"struct.collections::string::String<[]>[#6]"**** %__llmatch99
  %274 = load %"struct.collections::string::String<[]>[#6]"*** %273
  store %"struct.collections::string::String<[]>[#6]"** %274, %"struct.collections::string::String<[]>[#6]"*** %__arg0100
  %275 = bitcast %"struct.core::fmt::Argument<[]>[#3]"* %19 to [1 x %"struct.core::fmt::Argument<[]>[#3]"]*
  %276 = getelementptr inbounds %"struct.core::fmt::Argument<[]>[#3]"* %19, i32 0
  %277 = load %"struct.collections::string::String<[]>[#6]"*** %__arg0100
  call void @_ZN3fmt8argument21h18110617273399293942E(%"struct.core::fmt::Argument<[]>[#3]"* noalias nocapture sret dereferenceable(16) %276, %"enum.core::result::Result<[(), core::fmt::FormatError]>[#3]" (%"struct.collections::string::String<[]>[#6]"**, %"struct.core::fmt::Formatter<[]>[#3]"*)* @_ZN3fmt11secret_show20h5677928670060582767E, %"struct.collections::string::String<[]>[#6]"** noalias readonly dereferenceable(8) %277)
  store [1 x %"struct.core::fmt::Argument<[]>[#3]"]* %275, [1 x %"struct.core::fmt::Argument<[]>[#3]"]** %__args_vec101
  %278 = getelementptr inbounds { %str_slice*, i64 }* %__fat_ptr103, i32 0, i32 0
  store %str_slice* getelementptr inbounds ([1 x %str_slice]* @_ZN5HyObj12hy_obj_print15__STATIC_FMTSTR20ha9ed25ad4baec97eRnaE, i32 0, i32 0), %str_slice** %278
  %279 = getelementptr inbounds { %str_slice*, i64 }* %__fat_ptr103, i32 0, i32 1
  store i64 1, i64* %279
  %280 = getelementptr inbounds { %str_slice*, i64 }* %__fat_ptr103, i32 0, i32 0
  %281 = load %str_slice** %280
  %282 = getelementptr inbounds { %str_slice*, i64 }* %__fat_ptr103, i32 0, i32 1
  %283 = load i64* %282
  %284 = getelementptr inbounds { %str_slice*, i64 }* %__fat_ptr104, i32 0, i32 0
  store %str_slice* %281, %str_slice** %284
  %285 = getelementptr inbounds { %str_slice*, i64 }* %__fat_ptr104, i32 0, i32 1
  store i64 %283, i64* %285
  %286 = load [1 x %"struct.core::fmt::Argument<[]>[#3]"]** %__args_vec101
  %287 = getelementptr inbounds [1 x %"struct.core::fmt::Argument<[]>[#3]"]* %286, i32 0, i32 0
  %288 = getelementptr inbounds { %"struct.core::fmt::Argument<[]>[#3]"*, i64 }* %__fat_ptr105, i32 0, i32 0
  store %"struct.core::fmt::Argument<[]>[#3]"* %287, %"struct.core::fmt::Argument<[]>[#3]"** %288
  %289 = getelementptr inbounds { %"struct.core::fmt::Argument<[]>[#3]"*, i64 }* %__fat_ptr105, i32 0, i32 1
  store i64 1, i64* %289
  %290 = getelementptr inbounds { %"struct.core::fmt::Argument<[]>[#3]"*, i64 }* %__fat_ptr105, i32 0, i32 0
  %291 = load %"struct.core::fmt::Argument<[]>[#3]"** %290
  %292 = getelementptr inbounds { %"struct.core::fmt::Argument<[]>[#3]"*, i64 }* %__fat_ptr105, i32 0, i32 1
  %293 = load i64* %292
  %294 = getelementptr inbounds { %"struct.core::fmt::Argument<[]>[#3]"*, i64 }* %__fat_ptr106, i32 0, i32 0
  store %"struct.core::fmt::Argument<[]>[#3]"* %291, %"struct.core::fmt::Argument<[]>[#3]"** %294
  %295 = getelementptr inbounds { %"struct.core::fmt::Argument<[]>[#3]"*, i64 }* %__fat_ptr106, i32 0, i32 1
  store i64 %293, i64* %295
  call void @"_ZN3fmt22Arguments$LT$$x27a$GT$3new20h5a0d288d00618aa4BDyE"(%"struct.core::fmt::Arguments<[]>[#3]"* noalias nocapture sret dereferenceable(48) %__args102, { %str_slice*, i64 }* noalias nocapture dereferenceable(16) %__fat_ptr104, { %"struct.core::fmt::Argument<[]>[#3]"*, i64 }* noalias nocapture dereferenceable(16) %__fat_ptr106)
  call void @_ZN2io5stdio10print_args20hae54d0bc97b3553etolE(%"struct.core::fmt::Arguments<[]>[#3]"* noalias nocapture readonly dereferenceable(48) %__args102)
  br label %join107

join107:                                          ; preds = %case_body98
  br label %join364

case_body109:                                     ; preds = %case_body6
  %296 = load %"enum.regex::re::Regex<[]>[#10]"**** %__llmatch110
  %297 = load %"enum.regex::re::Regex<[]>[#10]"*** %296
  store %"enum.regex::re::Regex<[]>[#10]"** %297, %"enum.regex::re::Regex<[]>[#10]"*** %__arg0111
  %298 = bitcast %"struct.core::fmt::Argument<[]>[#3]"* %23 to [1 x %"struct.core::fmt::Argument<[]>[#3]"]*
  %299 = getelementptr inbounds %"struct.core::fmt::Argument<[]>[#3]"* %23, i32 0
  %300 = load %"enum.regex::re::Regex<[]>[#10]"*** %__arg0111
  call void @_ZN3fmt8argument20h6162686969560664382E(%"struct.core::fmt::Argument<[]>[#3]"* noalias nocapture sret dereferenceable(16) %299, %"enum.core::result::Result<[(), core::fmt::FormatError]>[#3]" (%"enum.regex::re::Regex<[]>[#10]"**, %"struct.core::fmt::Formatter<[]>[#3]"*)* @_ZN3fmt11secret_show21h15747951399913969676E, %"enum.regex::re::Regex<[]>[#10]"** noalias readonly dereferenceable(8) %300)
  store [1 x %"struct.core::fmt::Argument<[]>[#3]"]* %298, [1 x %"struct.core::fmt::Argument<[]>[#3]"]** %__args_vec112
  %301 = getelementptr inbounds { %str_slice*, i64 }* %__fat_ptr114, i32 0, i32 0
  store %str_slice* getelementptr inbounds ([1 x %str_slice]* @_ZN5HyObj12hy_obj_print15__STATIC_FMTSTR20ha9ed25ad4baec97eGoaE, i32 0, i32 0), %str_slice** %301
  %302 = getelementptr inbounds { %str_slice*, i64 }* %__fat_ptr114, i32 0, i32 1
  store i64 1, i64* %302
  %303 = getelementptr inbounds { %str_slice*, i64 }* %__fat_ptr114, i32 0, i32 0
  %304 = load %str_slice** %303
  %305 = getelementptr inbounds { %str_slice*, i64 }* %__fat_ptr114, i32 0, i32 1
  %306 = load i64* %305
  %307 = getelementptr inbounds { %str_slice*, i64 }* %__fat_ptr115, i32 0, i32 0
  store %str_slice* %304, %str_slice** %307
  %308 = getelementptr inbounds { %str_slice*, i64 }* %__fat_ptr115, i32 0, i32 1
  store i64 %306, i64* %308
  %309 = load [1 x %"struct.core::fmt::Argument<[]>[#3]"]** %__args_vec112
  %310 = getelementptr inbounds [1 x %"struct.core::fmt::Argument<[]>[#3]"]* %309, i32 0, i32 0
  %311 = getelementptr inbounds { %"struct.core::fmt::Argument<[]>[#3]"*, i64 }* %__fat_ptr116, i32 0, i32 0
  store %"struct.core::fmt::Argument<[]>[#3]"* %310, %"struct.core::fmt::Argument<[]>[#3]"** %311
  %312 = getelementptr inbounds { %"struct.core::fmt::Argument<[]>[#3]"*, i64 }* %__fat_ptr116, i32 0, i32 1
  store i64 1, i64* %312
  %313 = getelementptr inbounds { %"struct.core::fmt::Argument<[]>[#3]"*, i64 }* %__fat_ptr116, i32 0, i32 0
  %314 = load %"struct.core::fmt::Argument<[]>[#3]"** %313
  %315 = getelementptr inbounds { %"struct.core::fmt::Argument<[]>[#3]"*, i64 }* %__fat_ptr116, i32 0, i32 1
  %316 = load i64* %315
  %317 = getelementptr inbounds { %"struct.core::fmt::Argument<[]>[#3]"*, i64 }* %__fat_ptr117, i32 0, i32 0
  store %"struct.core::fmt::Argument<[]>[#3]"* %314, %"struct.core::fmt::Argument<[]>[#3]"** %317
  %318 = getelementptr inbounds { %"struct.core::fmt::Argument<[]>[#3]"*, i64 }* %__fat_ptr117, i32 0, i32 1
  store i64 %316, i64* %318
  call void @"_ZN3fmt22Arguments$LT$$x27a$GT$3new20h5a0d288d00618aa4BDyE"(%"struct.core::fmt::Arguments<[]>[#3]"* noalias nocapture sret dereferenceable(48) %__args113, { %str_slice*, i64 }* noalias nocapture dereferenceable(16) %__fat_ptr115, { %"struct.core::fmt::Argument<[]>[#3]"*, i64 }* noalias nocapture dereferenceable(16) %__fat_ptr117)
  call void @_ZN3fmt6format20ha48bee0345f890a1p7pE(%"struct.collections::string::String<[]>[#6]"* noalias nocapture sret dereferenceable(24) %21, %"struct.core::fmt::Arguments<[]>[#3]"* noalias nocapture readonly dereferenceable(48) %__args113)
  br label %join118

join118:                                          ; preds = %case_body109
  store %"struct.collections::string::String<[]>[#6]"* %21, %"struct.collections::string::String<[]>[#6]"** %83
  %319 = load { %"struct.collections::string::String<[]>[#6]"* }* %20
  store { %"struct.collections::string::String<[]>[#6]"* } %319, { %"struct.collections::string::String<[]>[#6]"* }* %match119
  %320 = getelementptr inbounds { %"struct.collections::string::String<[]>[#6]"* }* %match119, i32 0, i32 0
  store %"struct.collections::string::String<[]>[#6]"** %320, %"struct.collections::string::String<[]>[#6]"*** %__llmatch121
  br label %case_body120

case_body120:                                     ; preds = %join118
  %321 = load %"struct.collections::string::String<[]>[#6]"*** %__llmatch121
  %322 = load %"struct.collections::string::String<[]>[#6]"** %321
  store %"struct.collections::string::String<[]>[#6]"* %322, %"struct.collections::string::String<[]>[#6]"** %__arg0122
  %323 = bitcast %"struct.core::fmt::Argument<[]>[#3]"* %24 to [1 x %"struct.core::fmt::Argument<[]>[#3]"]*
  %324 = getelementptr inbounds %"struct.core::fmt::Argument<[]>[#3]"* %24, i32 0
  %325 = load %"struct.collections::string::String<[]>[#6]"** %__arg0122
  invoke void @_ZN3fmt8argument20h8477380921845003020E(%"struct.core::fmt::Argument<[]>[#3]"* noalias nocapture sret dereferenceable(16) %324, %"enum.core::result::Result<[(), core::fmt::FormatError]>[#3]" (%"struct.collections::string::String<[]>[#6]"*, %"struct.core::fmt::Formatter<[]>[#3]"*)* @_ZN3fmt11secret_show21h13016532082515408702E, %"struct.collections::string::String<[]>[#6]"* noalias readonly dereferenceable(24) %325)
          to label %normal-return124 unwind label %unwind_ast_886_

normal-return124:                                 ; preds = %case_body120
  store [1 x %"struct.core::fmt::Argument<[]>[#3]"]* %323, [1 x %"struct.core::fmt::Argument<[]>[#3]"]** %__args_vec123
  %326 = getelementptr inbounds { %str_slice*, i64 }* %__fat_ptr127, i32 0, i32 0
  store %str_slice* getelementptr inbounds ([2 x %str_slice]* @_ZN5HyObj12hy_obj_print15__STATIC_FMTSTR20h60579851b18f9317ipaE, i32 0, i32 0), %str_slice** %326
  %327 = getelementptr inbounds { %str_slice*, i64 }* %__fat_ptr127, i32 0, i32 1
  store i64 2, i64* %327
  %328 = getelementptr inbounds { %str_slice*, i64 }* %__fat_ptr127, i32 0, i32 0
  %329 = load %str_slice** %328
  %330 = getelementptr inbounds { %str_slice*, i64 }* %__fat_ptr127, i32 0, i32 1
  %331 = load i64* %330
  %332 = getelementptr inbounds { %str_slice*, i64 }* %__fat_ptr128, i32 0, i32 0
  store %str_slice* %329, %str_slice** %332
  %333 = getelementptr inbounds { %str_slice*, i64 }* %__fat_ptr128, i32 0, i32 1
  store i64 %331, i64* %333
  %334 = load [1 x %"struct.core::fmt::Argument<[]>[#3]"]** %__args_vec123
  %335 = getelementptr inbounds [1 x %"struct.core::fmt::Argument<[]>[#3]"]* %334, i32 0, i32 0
  %336 = getelementptr inbounds { %"struct.core::fmt::Argument<[]>[#3]"*, i64 }* %__fat_ptr129, i32 0, i32 0
  store %"struct.core::fmt::Argument<[]>[#3]"* %335, %"struct.core::fmt::Argument<[]>[#3]"** %336
  %337 = getelementptr inbounds { %"struct.core::fmt::Argument<[]>[#3]"*, i64 }* %__fat_ptr129, i32 0, i32 1
  store i64 1, i64* %337
  %338 = getelementptr inbounds { %"struct.core::fmt::Argument<[]>[#3]"*, i64 }* %__fat_ptr129, i32 0, i32 0
  %339 = load %"struct.core::fmt::Argument<[]>[#3]"** %338
  %340 = getelementptr inbounds { %"struct.core::fmt::Argument<[]>[#3]"*, i64 }* %__fat_ptr129, i32 0, i32 1
  %341 = load i64* %340
  %342 = getelementptr inbounds { %"struct.core::fmt::Argument<[]>[#3]"*, i64 }* %__fat_ptr130, i32 0, i32 0
  store %"struct.core::fmt::Argument<[]>[#3]"* %339, %"struct.core::fmt::Argument<[]>[#3]"** %342
  %343 = getelementptr inbounds { %"struct.core::fmt::Argument<[]>[#3]"*, i64 }* %__fat_ptr130, i32 0, i32 1
  store i64 %341, i64* %343
  invoke void @"_ZN3fmt22Arguments$LT$$x27a$GT$3new20h5a0d288d00618aa4BDyE"(%"struct.core::fmt::Arguments<[]>[#3]"* noalias nocapture sret dereferenceable(48) %__args126, { %str_slice*, i64 }* noalias nocapture dereferenceable(16) %__fat_ptr128, { %"struct.core::fmt::Argument<[]>[#3]"*, i64 }* noalias nocapture dereferenceable(16) %__fat_ptr130)
          to label %normal-return131 unwind label %unwind_ast_886_

unwind_ast_886_:                                  ; preds = %normal-return131, %normal-return124, %case_body120
  %344 = landingpad { i8*, i32 } personality i32 (i32, i32, i64, %"struct.rustrt::libunwind::_Unwind_Exception<[]>[#9]"*, %"enum.rustrt::libunwind::_Unwind_Context<[]>[#9]"*)* @rust_eh_personality
          cleanup
  store { i8*, i32 } %344, { i8*, i32 }* %12
  br label %clean_ast_886_

clean_custom_125:                                 ; preds = %clean_ast_886_
  br label %clean_custom_

clean_ast_886_:                                   ; preds = %unwind_ast_886_
  call void @_ZN27collections..string..String14glue_drop.262917h03add16664af39b7E(%"struct.collections::string::String<[]>[#6]"* %21)
  br label %clean_custom_125

normal-return131:                                 ; preds = %normal-return124
  invoke void @_ZN2io5stdio10print_args20hae54d0bc97b3553etolE(%"struct.core::fmt::Arguments<[]>[#3]"* noalias nocapture readonly dereferenceable(48) %__args126)
          to label %normal-return132 unwind label %unwind_ast_886_

normal-return132:                                 ; preds = %normal-return131
  br label %join133

join133:                                          ; preds = %normal-return132
  call void @_ZN27collections..string..String14glue_drop.262917h03add16664af39b7E(%"struct.collections::string::String<[]>[#6]"* %21)
  br label %join364

case_body135:                                     ; preds = %case_body7
  %345 = bitcast %"struct.core::fmt::Argument<[]>[#3]"* %25 to [0 x %"struct.core::fmt::Argument<[]>[#3]"]*
  store [0 x %"struct.core::fmt::Argument<[]>[#3]"]* %345, [0 x %"struct.core::fmt::Argument<[]>[#3]"]** %__args_vec136
  %346 = getelementptr inbounds { %str_slice*, i64 }* %__fat_ptr138, i32 0, i32 0
  store %str_slice* getelementptr inbounds ([1 x %str_slice]* @_ZN5HyObj12hy_obj_print15__STATIC_FMTSTR20ha9ed25ad4baec97e1paE, i32 0, i32 0), %str_slice** %346
  %347 = getelementptr inbounds { %str_slice*, i64 }* %__fat_ptr138, i32 0, i32 1
  store i64 1, i64* %347
  %348 = getelementptr inbounds { %str_slice*, i64 }* %__fat_ptr138, i32 0, i32 0
  %349 = load %str_slice** %348
  %350 = getelementptr inbounds { %str_slice*, i64 }* %__fat_ptr138, i32 0, i32 1
  %351 = load i64* %350
  %352 = getelementptr inbounds { %str_slice*, i64 }* %__fat_ptr139, i32 0, i32 0
  store %str_slice* %349, %str_slice** %352
  %353 = getelementptr inbounds { %str_slice*, i64 }* %__fat_ptr139, i32 0, i32 1
  store i64 %351, i64* %353
  %354 = load [0 x %"struct.core::fmt::Argument<[]>[#3]"]** %__args_vec136
  %355 = getelementptr inbounds [0 x %"struct.core::fmt::Argument<[]>[#3]"]* %354, i32 0, i32 0
  %356 = getelementptr inbounds { %"struct.core::fmt::Argument<[]>[#3]"*, i64 }* %__fat_ptr140, i32 0, i32 0
  store %"struct.core::fmt::Argument<[]>[#3]"* %355, %"struct.core::fmt::Argument<[]>[#3]"** %356
  %357 = getelementptr inbounds { %"struct.core::fmt::Argument<[]>[#3]"*, i64 }* %__fat_ptr140, i32 0, i32 1
  store i64 0, i64* %357
  %358 = getelementptr inbounds { %"struct.core::fmt::Argument<[]>[#3]"*, i64 }* %__fat_ptr140, i32 0, i32 0
  %359 = load %"struct.core::fmt::Argument<[]>[#3]"** %358
  %360 = getelementptr inbounds { %"struct.core::fmt::Argument<[]>[#3]"*, i64 }* %__fat_ptr140, i32 0, i32 1
  %361 = load i64* %360
  %362 = getelementptr inbounds { %"struct.core::fmt::Argument<[]>[#3]"*, i64 }* %__fat_ptr141, i32 0, i32 0
  store %"struct.core::fmt::Argument<[]>[#3]"* %359, %"struct.core::fmt::Argument<[]>[#3]"** %362
  %363 = getelementptr inbounds { %"struct.core::fmt::Argument<[]>[#3]"*, i64 }* %__fat_ptr141, i32 0, i32 1
  store i64 %361, i64* %363
  call void @"_ZN3fmt22Arguments$LT$$x27a$GT$3new20h5a0d288d00618aa4BDyE"(%"struct.core::fmt::Arguments<[]>[#3]"* noalias nocapture sret dereferenceable(48) %__args137, { %str_slice*, i64 }* noalias nocapture dereferenceable(16) %__fat_ptr139, { %"struct.core::fmt::Argument<[]>[#3]"*, i64 }* noalias nocapture dereferenceable(16) %__fat_ptr141)
  call void @_ZN2io5stdio10print_args20hae54d0bc97b3553etolE(%"struct.core::fmt::Arguments<[]>[#3]"* noalias nocapture readonly dereferenceable(48) %__args137)
  br label %join142

join142:                                          ; preds = %case_body135
  %364 = load %"struct.collections::vec::Vec<[Box<HyObj>]>[#6]"** %vec
  call void @"_ZN3vec12Vec$LT$T$GT$4iter20h4968923904734006596E"(%"struct.core::slice::Items<[Box<HyObj>]>[#3]"* noalias nocapture sret dereferenceable(16) %vals, %"struct.collections::vec::Vec<[Box<HyObj>]>[#6]"* noalias readonly dereferenceable(24) %364)
  %365 = call i8* @"_ZN5slice57Items$LT$$x27a$C$$x20T$GT$.Iterator$LT$$BP$$x27a$x20T$GT$4next20h1820644860355767906E"(%"struct.core::slice::Items<[Box<HyObj>]>[#3]"* noalias dereferenceable(16) %vals)
  store i8* %365, i8** %26
  %366 = load i8** %26
  store i8* %366, i8** %match143
  %367 = load i8** %match143
  %368 = icmp ne i8* %367, null
  switch i1 %368, label %match_else147 [
    i1 true, label %match_case148
  ]

case_body144:                                     ; preds = %match_case148
  %369 = load %"struct.HyObj<[]>"**** %__llmatch145
  %370 = load %"struct.HyObj<[]>"*** %369
  store %"struct.HyObj<[]>"** %370, %"struct.HyObj<[]>"*** %val
  %371 = load %"struct.HyObj<[]>"*** %val
  %372 = load %"struct.HyObj<[]>"** %371
  call void @hy_obj_print(%"struct.HyObj<[]>"* dereferenceable(112) %372)
  br label %join149

case_body146:                                     ; preds = %match_else147
  br label %join149

match_else147:                                    ; preds = %join142
  br label %case_body146

match_case148:                                    ; preds = %join142
  %373 = bitcast i8** %match143 to %"struct.HyObj<[]>"***
  store %"struct.HyObj<[]>"*** %373, %"struct.HyObj<[]>"**** %__llmatch145
  br label %case_body144

join149:                                          ; preds = %case_body146, %case_body144
  store %"struct.core::slice::Items<[Box<HyObj>]>[#3]"* %vals, %"struct.core::slice::Items<[Box<HyObj>]>[#3]"** %for_head
  %374 = load %"struct.core::slice::Items<[Box<HyObj>]>[#3]"** %for_head
  br label %for_loopback

for_exit:                                         ; preds = %for_loopback
  br label %case_body162

for_loopback:                                     ; preds = %join159, %join149
  %375 = call i8* @"_ZN5slice57Items$LT$$x27a$C$$x20T$GT$.Iterator$LT$$BP$$x27a$x20T$GT$4next20h1820644860355767906E"(%"struct.core::slice::Items<[Box<HyObj>]>[#3]"* noalias dereferenceable(16) %374)
  store i8* %375, i8** %loop_option
  %376 = load i8** %loop_option
  %377 = icmp ne i8* %376, null
  br i1 %377, label %for_body, label %for_exit

for_body:                                         ; preds = %for_loopback
  %378 = bitcast i8** %loop_option to %"struct.HyObj<[]>"***
  br label %case_body152

case_body152:                                     ; preds = %for_body
  %379 = bitcast %"struct.core::fmt::Argument<[]>[#3]"* %27 to [0 x %"struct.core::fmt::Argument<[]>[#3]"]*
  store [0 x %"struct.core::fmt::Argument<[]>[#3]"]* %379, [0 x %"struct.core::fmt::Argument<[]>[#3]"]** %__args_vec153
  %380 = getelementptr inbounds { %str_slice*, i64 }* %__fat_ptr155, i32 0, i32 0
  store %str_slice* getelementptr inbounds ([1 x %str_slice]* @_ZN5HyObj12hy_obj_print15__STATIC_FMTSTR20ha9ed25ad4baec97eXqaE, i32 0, i32 0), %str_slice** %380
  %381 = getelementptr inbounds { %str_slice*, i64 }* %__fat_ptr155, i32 0, i32 1
  store i64 1, i64* %381
  %382 = getelementptr inbounds { %str_slice*, i64 }* %__fat_ptr155, i32 0, i32 0
  %383 = load %str_slice** %382
  %384 = getelementptr inbounds { %str_slice*, i64 }* %__fat_ptr155, i32 0, i32 1
  %385 = load i64* %384
  %386 = getelementptr inbounds { %str_slice*, i64 }* %__fat_ptr156, i32 0, i32 0
  store %str_slice* %383, %str_slice** %386
  %387 = getelementptr inbounds { %str_slice*, i64 }* %__fat_ptr156, i32 0, i32 1
  store i64 %385, i64* %387
  %388 = load [0 x %"struct.core::fmt::Argument<[]>[#3]"]** %__args_vec153
  %389 = getelementptr inbounds [0 x %"struct.core::fmt::Argument<[]>[#3]"]* %388, i32 0, i32 0
  %390 = getelementptr inbounds { %"struct.core::fmt::Argument<[]>[#3]"*, i64 }* %__fat_ptr157, i32 0, i32 0
  store %"struct.core::fmt::Argument<[]>[#3]"* %389, %"struct.core::fmt::Argument<[]>[#3]"** %390
  %391 = getelementptr inbounds { %"struct.core::fmt::Argument<[]>[#3]"*, i64 }* %__fat_ptr157, i32 0, i32 1
  store i64 0, i64* %391
  %392 = getelementptr inbounds { %"struct.core::fmt::Argument<[]>[#3]"*, i64 }* %__fat_ptr157, i32 0, i32 0
  %393 = load %"struct.core::fmt::Argument<[]>[#3]"** %392
  %394 = getelementptr inbounds { %"struct.core::fmt::Argument<[]>[#3]"*, i64 }* %__fat_ptr157, i32 0, i32 1
  %395 = load i64* %394
  %396 = getelementptr inbounds { %"struct.core::fmt::Argument<[]>[#3]"*, i64 }* %__fat_ptr158, i32 0, i32 0
  store %"struct.core::fmt::Argument<[]>[#3]"* %393, %"struct.core::fmt::Argument<[]>[#3]"** %396
  %397 = getelementptr inbounds { %"struct.core::fmt::Argument<[]>[#3]"*, i64 }* %__fat_ptr158, i32 0, i32 1
  store i64 %395, i64* %397
  call void @"_ZN3fmt22Arguments$LT$$x27a$GT$3new20h5a0d288d00618aa4BDyE"(%"struct.core::fmt::Arguments<[]>[#3]"* noalias nocapture sret dereferenceable(48) %__args154, { %str_slice*, i64 }* noalias nocapture dereferenceable(16) %__fat_ptr156, { %"struct.core::fmt::Argument<[]>[#3]"*, i64 }* noalias nocapture dereferenceable(16) %__fat_ptr158)
  call void @_ZN2io5stdio10print_args20hae54d0bc97b3553etolE(%"struct.core::fmt::Arguments<[]>[#3]"* noalias nocapture readonly dereferenceable(48) %__args154)
  br label %join159

join159:                                          ; preds = %case_body152
  %398 = load %"struct.HyObj<[]>"*** %378
  %399 = load %"struct.HyObj<[]>"** %398
  call void @hy_obj_print(%"struct.HyObj<[]>"* dereferenceable(112) %399)
  br label %for_loopback

case_body162:                                     ; preds = %for_exit
  %400 = bitcast %"struct.core::fmt::Argument<[]>[#3]"* %28 to [0 x %"struct.core::fmt::Argument<[]>[#3]"]*
  store [0 x %"struct.core::fmt::Argument<[]>[#3]"]* %400, [0 x %"struct.core::fmt::Argument<[]>[#3]"]** %__args_vec163
  %401 = getelementptr inbounds { %str_slice*, i64 }* %__fat_ptr165, i32 0, i32 0
  store %str_slice* getelementptr inbounds ([1 x %str_slice]* @_ZN5HyObj12hy_obj_print15__STATIC_FMTSTR20ha9ed25ad4baec97eAraE, i32 0, i32 0), %str_slice** %401
  %402 = getelementptr inbounds { %str_slice*, i64 }* %__fat_ptr165, i32 0, i32 1
  store i64 1, i64* %402
  %403 = getelementptr inbounds { %str_slice*, i64 }* %__fat_ptr165, i32 0, i32 0
  %404 = load %str_slice** %403
  %405 = getelementptr inbounds { %str_slice*, i64 }* %__fat_ptr165, i32 0, i32 1
  %406 = load i64* %405
  %407 = getelementptr inbounds { %str_slice*, i64 }* %__fat_ptr166, i32 0, i32 0
  store %str_slice* %404, %str_slice** %407
  %408 = getelementptr inbounds { %str_slice*, i64 }* %__fat_ptr166, i32 0, i32 1
  store i64 %406, i64* %408
  %409 = load [0 x %"struct.core::fmt::Argument<[]>[#3]"]** %__args_vec163
  %410 = getelementptr inbounds [0 x %"struct.core::fmt::Argument<[]>[#3]"]* %409, i32 0, i32 0
  %411 = getelementptr inbounds { %"struct.core::fmt::Argument<[]>[#3]"*, i64 }* %__fat_ptr167, i32 0, i32 0
  store %"struct.core::fmt::Argument<[]>[#3]"* %410, %"struct.core::fmt::Argument<[]>[#3]"** %411
  %412 = getelementptr inbounds { %"struct.core::fmt::Argument<[]>[#3]"*, i64 }* %__fat_ptr167, i32 0, i32 1
  store i64 0, i64* %412
  %413 = getelementptr inbounds { %"struct.core::fmt::Argument<[]>[#3]"*, i64 }* %__fat_ptr167, i32 0, i32 0
  %414 = load %"struct.core::fmt::Argument<[]>[#3]"** %413
  %415 = getelementptr inbounds { %"struct.core::fmt::Argument<[]>[#3]"*, i64 }* %__fat_ptr167, i32 0, i32 1
  %416 = load i64* %415
  %417 = getelementptr inbounds { %"struct.core::fmt::Argument<[]>[#3]"*, i64 }* %__fat_ptr168, i32 0, i32 0
  store %"struct.core::fmt::Argument<[]>[#3]"* %414, %"struct.core::fmt::Argument<[]>[#3]"** %417
  %418 = getelementptr inbounds { %"struct.core::fmt::Argument<[]>[#3]"*, i64 }* %__fat_ptr168, i32 0, i32 1
  store i64 %416, i64* %418
  call void @"_ZN3fmt22Arguments$LT$$x27a$GT$3new20h5a0d288d00618aa4BDyE"(%"struct.core::fmt::Arguments<[]>[#3]"* noalias nocapture sret dereferenceable(48) %__args164, { %str_slice*, i64 }* noalias nocapture dereferenceable(16) %__fat_ptr166, { %"struct.core::fmt::Argument<[]>[#3]"*, i64 }* noalias nocapture dereferenceable(16) %__fat_ptr168)
  call void @_ZN2io5stdio10print_args20hae54d0bc97b3553etolE(%"struct.core::fmt::Arguments<[]>[#3]"* noalias nocapture readonly dereferenceable(48) %__args164)
  br label %join169

join169:                                          ; preds = %case_body162
  br label %join364

case_body172:                                     ; preds = %case_body8
  %419 = bitcast %"struct.core::fmt::Argument<[]>[#3]"* %29 to [0 x %"struct.core::fmt::Argument<[]>[#3]"]*
  store [0 x %"struct.core::fmt::Argument<[]>[#3]"]* %419, [0 x %"struct.core::fmt::Argument<[]>[#3]"]** %__args_vec173
  %420 = getelementptr inbounds { %str_slice*, i64 }* %__fat_ptr175, i32 0, i32 0
  store %str_slice* getelementptr inbounds ([1 x %str_slice]* @_ZN5HyObj12hy_obj_print15__STATIC_FMTSTR20ha9ed25ad4baec97eesaE, i32 0, i32 0), %str_slice** %420
  %421 = getelementptr inbounds { %str_slice*, i64 }* %__fat_ptr175, i32 0, i32 1
  store i64 1, i64* %421
  %422 = getelementptr inbounds { %str_slice*, i64 }* %__fat_ptr175, i32 0, i32 0
  %423 = load %str_slice** %422
  %424 = getelementptr inbounds { %str_slice*, i64 }* %__fat_ptr175, i32 0, i32 1
  %425 = load i64* %424
  %426 = getelementptr inbounds { %str_slice*, i64 }* %__fat_ptr176, i32 0, i32 0
  store %str_slice* %423, %str_slice** %426
  %427 = getelementptr inbounds { %str_slice*, i64 }* %__fat_ptr176, i32 0, i32 1
  store i64 %425, i64* %427
  %428 = load [0 x %"struct.core::fmt::Argument<[]>[#3]"]** %__args_vec173
  %429 = getelementptr inbounds [0 x %"struct.core::fmt::Argument<[]>[#3]"]* %428, i32 0, i32 0
  %430 = getelementptr inbounds { %"struct.core::fmt::Argument<[]>[#3]"*, i64 }* %__fat_ptr177, i32 0, i32 0
  store %"struct.core::fmt::Argument<[]>[#3]"* %429, %"struct.core::fmt::Argument<[]>[#3]"** %430
  %431 = getelementptr inbounds { %"struct.core::fmt::Argument<[]>[#3]"*, i64 }* %__fat_ptr177, i32 0, i32 1
  store i64 0, i64* %431
  %432 = getelementptr inbounds { %"struct.core::fmt::Argument<[]>[#3]"*, i64 }* %__fat_ptr177, i32 0, i32 0
  %433 = load %"struct.core::fmt::Argument<[]>[#3]"** %432
  %434 = getelementptr inbounds { %"struct.core::fmt::Argument<[]>[#3]"*, i64 }* %__fat_ptr177, i32 0, i32 1
  %435 = load i64* %434
  %436 = getelementptr inbounds { %"struct.core::fmt::Argument<[]>[#3]"*, i64 }* %__fat_ptr178, i32 0, i32 0
  store %"struct.core::fmt::Argument<[]>[#3]"* %433, %"struct.core::fmt::Argument<[]>[#3]"** %436
  %437 = getelementptr inbounds { %"struct.core::fmt::Argument<[]>[#3]"*, i64 }* %__fat_ptr178, i32 0, i32 1
  store i64 %435, i64* %437
  call void @"_ZN3fmt22Arguments$LT$$x27a$GT$3new20h5a0d288d00618aa4BDyE"(%"struct.core::fmt::Arguments<[]>[#3]"* noalias nocapture sret dereferenceable(48) %__args174, { %str_slice*, i64 }* noalias nocapture dereferenceable(16) %__fat_ptr176, { %"struct.core::fmt::Argument<[]>[#3]"*, i64 }* noalias nocapture dereferenceable(16) %__fat_ptr178)
  call void @_ZN2io5stdio10print_args20hae54d0bc97b3553etolE(%"struct.core::fmt::Arguments<[]>[#3]"* noalias nocapture readonly dereferenceable(48) %__args174)
  br label %join179

join179:                                          ; preds = %case_body172
  %438 = load %"struct.collections::vec::Vec<[Box<HyObj>]>[#6]"** %vec9
  call void @"_ZN3vec12Vec$LT$T$GT$4iter20h4968923904734006596E"(%"struct.core::slice::Items<[Box<HyObj>]>[#3]"* noalias nocapture sret dereferenceable(16) %vals180, %"struct.collections::vec::Vec<[Box<HyObj>]>[#6]"* noalias readonly dereferenceable(24) %438)
  %439 = call i8* @"_ZN5slice57Items$LT$$x27a$C$$x20T$GT$.Iterator$LT$$BP$$x27a$x20T$GT$4next20h1820644860355767906E"(%"struct.core::slice::Items<[Box<HyObj>]>[#3]"* noalias dereferenceable(16) %vals180)
  store i8* %439, i8** %30
  %440 = load i8** %30
  store i8* %440, i8** %match181
  %441 = load i8** %match181
  %442 = icmp ne i8* %441, null
  switch i1 %442, label %match_else186 [
    i1 true, label %match_case187
  ]

case_body182:                                     ; preds = %match_case187
  %443 = load %"struct.HyObj<[]>"**** %__llmatch183
  %444 = load %"struct.HyObj<[]>"*** %443
  store %"struct.HyObj<[]>"** %444, %"struct.HyObj<[]>"*** %val184
  %445 = load %"struct.HyObj<[]>"*** %val184
  %446 = load %"struct.HyObj<[]>"** %445
  call void @hy_obj_print(%"struct.HyObj<[]>"* dereferenceable(112) %446)
  br label %join188

case_body185:                                     ; preds = %match_else186
  br label %join188

match_else186:                                    ; preds = %join179
  br label %case_body185

match_case187:                                    ; preds = %join179
  %447 = bitcast i8** %match181 to %"struct.HyObj<[]>"***
  store %"struct.HyObj<[]>"*** %447, %"struct.HyObj<[]>"**** %__llmatch183
  br label %case_body182

join188:                                          ; preds = %case_body185, %case_body182
  store %"struct.core::slice::Items<[Box<HyObj>]>[#3]"* %vals180, %"struct.core::slice::Items<[Box<HyObj>]>[#3]"** %for_head189
  %448 = load %"struct.core::slice::Items<[Box<HyObj>]>[#3]"** %for_head189
  br label %for_loopback191

for_exit190:                                      ; preds = %for_loopback191
  br label %case_body206

for_loopback191:                                  ; preds = %join203, %join188
  %449 = call i8* @"_ZN5slice57Items$LT$$x27a$C$$x20T$GT$.Iterator$LT$$BP$$x27a$x20T$GT$4next20h1820644860355767906E"(%"struct.core::slice::Items<[Box<HyObj>]>[#3]"* noalias dereferenceable(16) %448)
  store i8* %449, i8** %loop_option193
  %450 = load i8** %loop_option193
  %451 = icmp ne i8* %450, null
  br i1 %451, label %for_body192, label %for_exit190

for_body192:                                      ; preds = %for_loopback191
  %452 = bitcast i8** %loop_option193 to %"struct.HyObj<[]>"***
  br label %case_body196

case_body196:                                     ; preds = %for_body192
  %453 = bitcast %"struct.core::fmt::Argument<[]>[#3]"* %31 to [0 x %"struct.core::fmt::Argument<[]>[#3]"]*
  store [0 x %"struct.core::fmt::Argument<[]>[#3]"]* %453, [0 x %"struct.core::fmt::Argument<[]>[#3]"]** %__args_vec197
  %454 = getelementptr inbounds { %str_slice*, i64 }* %__fat_ptr199, i32 0, i32 0
  store %str_slice* getelementptr inbounds ([1 x %str_slice]* @_ZN5HyObj12hy_obj_print15__STATIC_FMTSTR20ha9ed25ad4baec97eataE, i32 0, i32 0), %str_slice** %454
  %455 = getelementptr inbounds { %str_slice*, i64 }* %__fat_ptr199, i32 0, i32 1
  store i64 1, i64* %455
  %456 = getelementptr inbounds { %str_slice*, i64 }* %__fat_ptr199, i32 0, i32 0
  %457 = load %str_slice** %456
  %458 = getelementptr inbounds { %str_slice*, i64 }* %__fat_ptr199, i32 0, i32 1
  %459 = load i64* %458
  %460 = getelementptr inbounds { %str_slice*, i64 }* %__fat_ptr200, i32 0, i32 0
  store %str_slice* %457, %str_slice** %460
  %461 = getelementptr inbounds { %str_slice*, i64 }* %__fat_ptr200, i32 0, i32 1
  store i64 %459, i64* %461
  %462 = load [0 x %"struct.core::fmt::Argument<[]>[#3]"]** %__args_vec197
  %463 = getelementptr inbounds [0 x %"struct.core::fmt::Argument<[]>[#3]"]* %462, i32 0, i32 0
  %464 = getelementptr inbounds { %"struct.core::fmt::Argument<[]>[#3]"*, i64 }* %__fat_ptr201, i32 0, i32 0
  store %"struct.core::fmt::Argument<[]>[#3]"* %463, %"struct.core::fmt::Argument<[]>[#3]"** %464
  %465 = getelementptr inbounds { %"struct.core::fmt::Argument<[]>[#3]"*, i64 }* %__fat_ptr201, i32 0, i32 1
  store i64 0, i64* %465
  %466 = getelementptr inbounds { %"struct.core::fmt::Argument<[]>[#3]"*, i64 }* %__fat_ptr201, i32 0, i32 0
  %467 = load %"struct.core::fmt::Argument<[]>[#3]"** %466
  %468 = getelementptr inbounds { %"struct.core::fmt::Argument<[]>[#3]"*, i64 }* %__fat_ptr201, i32 0, i32 1
  %469 = load i64* %468
  %470 = getelementptr inbounds { %"struct.core::fmt::Argument<[]>[#3]"*, i64 }* %__fat_ptr202, i32 0, i32 0
  store %"struct.core::fmt::Argument<[]>[#3]"* %467, %"struct.core::fmt::Argument<[]>[#3]"** %470
  %471 = getelementptr inbounds { %"struct.core::fmt::Argument<[]>[#3]"*, i64 }* %__fat_ptr202, i32 0, i32 1
  store i64 %469, i64* %471
  call void @"_ZN3fmt22Arguments$LT$$x27a$GT$3new20h5a0d288d00618aa4BDyE"(%"struct.core::fmt::Arguments<[]>[#3]"* noalias nocapture sret dereferenceable(48) %__args198, { %str_slice*, i64 }* noalias nocapture dereferenceable(16) %__fat_ptr200, { %"struct.core::fmt::Argument<[]>[#3]"*, i64 }* noalias nocapture dereferenceable(16) %__fat_ptr202)
  call void @_ZN2io5stdio10print_args20hae54d0bc97b3553etolE(%"struct.core::fmt::Arguments<[]>[#3]"* noalias nocapture readonly dereferenceable(48) %__args198)
  br label %join203

join203:                                          ; preds = %case_body196
  %472 = load %"struct.HyObj<[]>"*** %452
  %473 = load %"struct.HyObj<[]>"** %472
  call void @hy_obj_print(%"struct.HyObj<[]>"* dereferenceable(112) %473)
  br label %for_loopback191

case_body206:                                     ; preds = %for_exit190
  %474 = bitcast %"struct.core::fmt::Argument<[]>[#3]"* %32 to [0 x %"struct.core::fmt::Argument<[]>[#3]"]*
  store [0 x %"struct.core::fmt::Argument<[]>[#3]"]* %474, [0 x %"struct.core::fmt::Argument<[]>[#3]"]** %__args_vec207
  %475 = getelementptr inbounds { %str_slice*, i64 }* %__fat_ptr209, i32 0, i32 0
  store %str_slice* getelementptr inbounds ([1 x %str_slice]* @_ZN5HyObj12hy_obj_print15__STATIC_FMTSTR20ha9ed25ad4baec97eNtaE, i32 0, i32 0), %str_slice** %475
  %476 = getelementptr inbounds { %str_slice*, i64 }* %__fat_ptr209, i32 0, i32 1
  store i64 1, i64* %476
  %477 = getelementptr inbounds { %str_slice*, i64 }* %__fat_ptr209, i32 0, i32 0
  %478 = load %str_slice** %477
  %479 = getelementptr inbounds { %str_slice*, i64 }* %__fat_ptr209, i32 0, i32 1
  %480 = load i64* %479
  %481 = getelementptr inbounds { %str_slice*, i64 }* %__fat_ptr210, i32 0, i32 0
  store %str_slice* %478, %str_slice** %481
  %482 = getelementptr inbounds { %str_slice*, i64 }* %__fat_ptr210, i32 0, i32 1
  store i64 %480, i64* %482
  %483 = load [0 x %"struct.core::fmt::Argument<[]>[#3]"]** %__args_vec207
  %484 = getelementptr inbounds [0 x %"struct.core::fmt::Argument<[]>[#3]"]* %483, i32 0, i32 0
  %485 = getelementptr inbounds { %"struct.core::fmt::Argument<[]>[#3]"*, i64 }* %__fat_ptr211, i32 0, i32 0
  store %"struct.core::fmt::Argument<[]>[#3]"* %484, %"struct.core::fmt::Argument<[]>[#3]"** %485
  %486 = getelementptr inbounds { %"struct.core::fmt::Argument<[]>[#3]"*, i64 }* %__fat_ptr211, i32 0, i32 1
  store i64 0, i64* %486
  %487 = getelementptr inbounds { %"struct.core::fmt::Argument<[]>[#3]"*, i64 }* %__fat_ptr211, i32 0, i32 0
  %488 = load %"struct.core::fmt::Argument<[]>[#3]"** %487
  %489 = getelementptr inbounds { %"struct.core::fmt::Argument<[]>[#3]"*, i64 }* %__fat_ptr211, i32 0, i32 1
  %490 = load i64* %489
  %491 = getelementptr inbounds { %"struct.core::fmt::Argument<[]>[#3]"*, i64 }* %__fat_ptr212, i32 0, i32 0
  store %"struct.core::fmt::Argument<[]>[#3]"* %488, %"struct.core::fmt::Argument<[]>[#3]"** %491
  %492 = getelementptr inbounds { %"struct.core::fmt::Argument<[]>[#3]"*, i64 }* %__fat_ptr212, i32 0, i32 1
  store i64 %490, i64* %492
  call void @"_ZN3fmt22Arguments$LT$$x27a$GT$3new20h5a0d288d00618aa4BDyE"(%"struct.core::fmt::Arguments<[]>[#3]"* noalias nocapture sret dereferenceable(48) %__args208, { %str_slice*, i64 }* noalias nocapture dereferenceable(16) %__fat_ptr210, { %"struct.core::fmt::Argument<[]>[#3]"*, i64 }* noalias nocapture dereferenceable(16) %__fat_ptr212)
  call void @_ZN2io5stdio10print_args20hae54d0bc97b3553etolE(%"struct.core::fmt::Arguments<[]>[#3]"* noalias nocapture readonly dereferenceable(48) %__args208)
  br label %join213

join213:                                          ; preds = %case_body206
  br label %join364

case_body215:                                     ; preds = %case_body10
  %493 = load %str_slice*** %__llmatch216
  %494 = load %str_slice** %493
  store %str_slice* %494, %str_slice** %__arg0217
  %495 = bitcast %"struct.core::fmt::Argument<[]>[#3]"* %35 to [1 x %"struct.core::fmt::Argument<[]>[#3]"]*
  %496 = getelementptr inbounds %"struct.core::fmt::Argument<[]>[#3]"* %35, i32 0
  %497 = load %str_slice** %__arg0217
  call void @_ZN3fmt8argument21h12355718639186187925E(%"struct.core::fmt::Argument<[]>[#3]"* noalias nocapture sret dereferenceable(16) %496, %"enum.core::result::Result<[(), core::fmt::FormatError]>[#3]" (%str_slice*, %"struct.core::fmt::Formatter<[]>[#3]"*)* @_ZN3fmt11secret_show20h8599187511052940043E, %str_slice* noalias readonly dereferenceable(16) %497)
  store [1 x %"struct.core::fmt::Argument<[]>[#3]"]* %495, [1 x %"struct.core::fmt::Argument<[]>[#3]"]** %__args_vec218
  %498 = getelementptr inbounds { %str_slice*, i64 }* %__fat_ptr220, i32 0, i32 0
  store %str_slice* getelementptr inbounds ([1 x %str_slice]* @_ZN5HyObj12hy_obj_print15__STATIC_FMTSTR20ha9ed25ad4baec97euuaE, i32 0, i32 0), %str_slice** %498
  %499 = getelementptr inbounds { %str_slice*, i64 }* %__fat_ptr220, i32 0, i32 1
  store i64 1, i64* %499
  %500 = getelementptr inbounds { %str_slice*, i64 }* %__fat_ptr220, i32 0, i32 0
  %501 = load %str_slice** %500
  %502 = getelementptr inbounds { %str_slice*, i64 }* %__fat_ptr220, i32 0, i32 1
  %503 = load i64* %502
  %504 = getelementptr inbounds { %str_slice*, i64 }* %__fat_ptr221, i32 0, i32 0
  store %str_slice* %501, %str_slice** %504
  %505 = getelementptr inbounds { %str_slice*, i64 }* %__fat_ptr221, i32 0, i32 1
  store i64 %503, i64* %505
  %506 = load [1 x %"struct.core::fmt::Argument<[]>[#3]"]** %__args_vec218
  %507 = getelementptr inbounds [1 x %"struct.core::fmt::Argument<[]>[#3]"]* %506, i32 0, i32 0
  %508 = getelementptr inbounds { %"struct.core::fmt::Argument<[]>[#3]"*, i64 }* %__fat_ptr222, i32 0, i32 0
  store %"struct.core::fmt::Argument<[]>[#3]"* %507, %"struct.core::fmt::Argument<[]>[#3]"** %508
  %509 = getelementptr inbounds { %"struct.core::fmt::Argument<[]>[#3]"*, i64 }* %__fat_ptr222, i32 0, i32 1
  store i64 1, i64* %509
  %510 = getelementptr inbounds { %"struct.core::fmt::Argument<[]>[#3]"*, i64 }* %__fat_ptr222, i32 0, i32 0
  %511 = load %"struct.core::fmt::Argument<[]>[#3]"** %510
  %512 = getelementptr inbounds { %"struct.core::fmt::Argument<[]>[#3]"*, i64 }* %__fat_ptr222, i32 0, i32 1
  %513 = load i64* %512
  %514 = getelementptr inbounds { %"struct.core::fmt::Argument<[]>[#3]"*, i64 }* %__fat_ptr223, i32 0, i32 0
  store %"struct.core::fmt::Argument<[]>[#3]"* %511, %"struct.core::fmt::Argument<[]>[#3]"** %514
  %515 = getelementptr inbounds { %"struct.core::fmt::Argument<[]>[#3]"*, i64 }* %__fat_ptr223, i32 0, i32 1
  store i64 %513, i64* %515
  call void @"_ZN3fmt22Arguments$LT$$x27a$GT$3new20h5a0d288d00618aa4BDyE"(%"struct.core::fmt::Arguments<[]>[#3]"* noalias nocapture sret dereferenceable(48) %__args219, { %str_slice*, i64 }* noalias nocapture dereferenceable(16) %__fat_ptr221, { %"struct.core::fmt::Argument<[]>[#3]"*, i64 }* noalias nocapture dereferenceable(16) %__fat_ptr223)
  call void @_ZN2io5stdio10print_args20hae54d0bc97b3553etolE(%"struct.core::fmt::Arguments<[]>[#3]"* noalias nocapture readonly dereferenceable(48) %__args219)
  br label %join224

join224:                                          ; preds = %case_body215
  %516 = load %"struct.collections::treemap::TreeMap<[collections::string::String, Box<HyObj>]>[#6]"** %map
  call void @"_ZN7treemap24TreeMap$LT$K$C$$x20V$GT$4iter20h8627458069535110020E"(%"struct.collections::treemap::Entries<[collections::string::String, Box<HyObj>]>[#6]"* noalias nocapture sret dereferenceable(48) %key_val_pairs, %"struct.collections::treemap::TreeMap<[collections::string::String, Box<HyObj>]>[#6]"* noalias readonly dereferenceable(16) %516)
  invoke void @"_ZN7treemap96Entries$LT$$x27a$C$$x20K$C$$x20V$GT$.Iterator$LT$$LP$$BP$$x27a$x20K$C$$x20$BP$$x27a$x20V$RP$$GT$4next21h16176259245318095064E"(%"enum.core::option::Option<[(&'static collections::string::String,&'static Box<HyObj>)]>[#3]"* noalias nocapture sret dereferenceable(24) %36, %"struct.collections::treemap::Entries<[collections::string::String, Box<HyObj>]>[#6]"* noalias dereferenceable(48) %key_val_pairs)
          to label %normal-return225 unwind label %unwind_ast_1249_

normal-return225:                                 ; preds = %join224
  %517 = getelementptr inbounds %"enum.core::option::Option<[(&'static collections::string::String,&'static Box<HyObj>)]>[#3]"* %36, i32 0, i32 0
  %518 = load i8* %517, !range !0
  switch i8 %518, label %match_else232 [
    i8 1, label %match_case233
  ]

unwind_ast_1249_:                                 ; preds = %normal-return284, %normal-return278, %case_body274, %join271, %normal-return269, %normal-return263, %case_body259, %for_loopback252, %join247, %normal-return245, %normal-return239, %case_body235, %join224
  %519 = landingpad { i8*, i32 } personality i32 (i32, i32, i64, %"struct.rustrt::libunwind::_Unwind_Exception<[]>[#9]"*, %"enum.rustrt::libunwind::_Unwind_Context<[]>[#9]"*)* @rust_eh_personality
          cleanup
  store { i8*, i32 } %519, { i8*, i32 }* %12
  br label %clean_ast_1249_

clean_custom_226:                                 ; preds = %clean_ast_1249_
  br label %clean_custom_

clean_ast_1249_:                                  ; preds = %unwind_ast_1249_
  call void @"_ZN91collections..treemap..Entries$LT$$x27_$C$collections..string..String$C$Box$LT$HyObj$GT$$GT$14glue_drop.280617h3c9cece28ef1aa13E"(%"struct.collections::treemap::Entries<[collections::string::String, Box<HyObj>]>[#6]"* %key_val_pairs)
  br label %clean_custom_226

case_body227:                                     ; preds = %match_case233
  %520 = load %"struct.collections::string::String<[]>[#6]"*** %__llmatch228
  %521 = load %"struct.collections::string::String<[]>[#6]"** %520
  store %"struct.collections::string::String<[]>[#6]"* %521, %"struct.collections::string::String<[]>[#6]"** %key
  %522 = load %"struct.HyObj<[]>"**** %__llmatch229
  %523 = load %"struct.HyObj<[]>"*** %522
  store %"struct.HyObj<[]>"** %523, %"struct.HyObj<[]>"*** %val230
  %524 = getelementptr inbounds { %"struct.collections::string::String<[]>[#6]"** }* %37, i32 0, i32 0
  store %"struct.collections::string::String<[]>[#6]"** %key, %"struct.collections::string::String<[]>[#6]"*** %524
  %525 = load { %"struct.collections::string::String<[]>[#6]"** }* %37
  store { %"struct.collections::string::String<[]>[#6]"** } %525, { %"struct.collections::string::String<[]>[#6]"** }* %match234
  %526 = getelementptr inbounds { %"struct.collections::string::String<[]>[#6]"** }* %match234, i32 0, i32 0
  store %"struct.collections::string::String<[]>[#6]"*** %526, %"struct.collections::string::String<[]>[#6]"**** %__llmatch236
  br label %case_body235

case_body231:                                     ; preds = %match_else232
  br label %join249

match_else232:                                    ; preds = %normal-return225
  br label %case_body231

match_case233:                                    ; preds = %normal-return225
  %527 = bitcast %"enum.core::option::Option<[(&'static collections::string::String,&'static Box<HyObj>)]>[#3]"* %36 to { i8, { %"struct.collections::string::String<[]>[#6]"*, %"struct.HyObj<[]>"** } }*
  %528 = getelementptr inbounds { i8, { %"struct.collections::string::String<[]>[#6]"*, %"struct.HyObj<[]>"** } }* %527, i32 0, i32 1
  %529 = getelementptr inbounds { %"struct.collections::string::String<[]>[#6]"*, %"struct.HyObj<[]>"** }* %528, i32 0, i32 0
  %530 = getelementptr inbounds { %"struct.collections::string::String<[]>[#6]"*, %"struct.HyObj<[]>"** }* %528, i32 0, i32 1
  store %"struct.collections::string::String<[]>[#6]"** %529, %"struct.collections::string::String<[]>[#6]"*** %__llmatch228
  store %"struct.HyObj<[]>"*** %530, %"struct.HyObj<[]>"**** %__llmatch229
  br label %case_body227

case_body235:                                     ; preds = %case_body227
  %531 = load %"struct.collections::string::String<[]>[#6]"**** %__llmatch236
  %532 = load %"struct.collections::string::String<[]>[#6]"*** %531
  store %"struct.collections::string::String<[]>[#6]"** %532, %"struct.collections::string::String<[]>[#6]"*** %__arg0237
  %533 = bitcast %"struct.core::fmt::Argument<[]>[#3]"* %38 to [1 x %"struct.core::fmt::Argument<[]>[#3]"]*
  %534 = getelementptr inbounds %"struct.core::fmt::Argument<[]>[#3]"* %38, i32 0
  %535 = load %"struct.collections::string::String<[]>[#6]"*** %__arg0237
  invoke void @_ZN3fmt8argument21h10675261665337786249E(%"struct.core::fmt::Argument<[]>[#3]"* noalias nocapture sret dereferenceable(16) %534, %"enum.core::result::Result<[(), core::fmt::FormatError]>[#3]" (%"struct.collections::string::String<[]>[#6]"**, %"struct.core::fmt::Formatter<[]>[#3]"*)* @_ZN3fmt11secret_show20h1305175983028618389E, %"struct.collections::string::String<[]>[#6]"** noalias readonly dereferenceable(8) %535)
          to label %normal-return239 unwind label %unwind_ast_1249_

normal-return239:                                 ; preds = %case_body235
  store [1 x %"struct.core::fmt::Argument<[]>[#3]"]* %533, [1 x %"struct.core::fmt::Argument<[]>[#3]"]** %__args_vec238
  %536 = getelementptr inbounds { %str_slice*, i64 }* %__fat_ptr241, i32 0, i32 0
  store %str_slice* getelementptr inbounds ([2 x %str_slice]* @_ZN5HyObj12hy_obj_print15__STATIC_FMTSTR20h60579851b18f9317rvaE, i32 0, i32 0), %str_slice** %536
  %537 = getelementptr inbounds { %str_slice*, i64 }* %__fat_ptr241, i32 0, i32 1
  store i64 2, i64* %537
  %538 = getelementptr inbounds { %str_slice*, i64 }* %__fat_ptr241, i32 0, i32 0
  %539 = load %str_slice** %538
  %540 = getelementptr inbounds { %str_slice*, i64 }* %__fat_ptr241, i32 0, i32 1
  %541 = load i64* %540
  %542 = getelementptr inbounds { %str_slice*, i64 }* %__fat_ptr242, i32 0, i32 0
  store %str_slice* %539, %str_slice** %542
  %543 = getelementptr inbounds { %str_slice*, i64 }* %__fat_ptr242, i32 0, i32 1
  store i64 %541, i64* %543
  %544 = load [1 x %"struct.core::fmt::Argument<[]>[#3]"]** %__args_vec238
  %545 = getelementptr inbounds [1 x %"struct.core::fmt::Argument<[]>[#3]"]* %544, i32 0, i32 0
  %546 = getelementptr inbounds { %"struct.core::fmt::Argument<[]>[#3]"*, i64 }* %__fat_ptr243, i32 0, i32 0
  store %"struct.core::fmt::Argument<[]>[#3]"* %545, %"struct.core::fmt::Argument<[]>[#3]"** %546
  %547 = getelementptr inbounds { %"struct.core::fmt::Argument<[]>[#3]"*, i64 }* %__fat_ptr243, i32 0, i32 1
  store i64 1, i64* %547
  %548 = getelementptr inbounds { %"struct.core::fmt::Argument<[]>[#3]"*, i64 }* %__fat_ptr243, i32 0, i32 0
  %549 = load %"struct.core::fmt::Argument<[]>[#3]"** %548
  %550 = getelementptr inbounds { %"struct.core::fmt::Argument<[]>[#3]"*, i64 }* %__fat_ptr243, i32 0, i32 1
  %551 = load i64* %550
  %552 = getelementptr inbounds { %"struct.core::fmt::Argument<[]>[#3]"*, i64 }* %__fat_ptr244, i32 0, i32 0
  store %"struct.core::fmt::Argument<[]>[#3]"* %549, %"struct.core::fmt::Argument<[]>[#3]"** %552
  %553 = getelementptr inbounds { %"struct.core::fmt::Argument<[]>[#3]"*, i64 }* %__fat_ptr244, i32 0, i32 1
  store i64 %551, i64* %553
  invoke void @"_ZN3fmt22Arguments$LT$$x27a$GT$3new20h5a0d288d00618aa4BDyE"(%"struct.core::fmt::Arguments<[]>[#3]"* noalias nocapture sret dereferenceable(48) %__args240, { %str_slice*, i64 }* noalias nocapture dereferenceable(16) %__fat_ptr242, { %"struct.core::fmt::Argument<[]>[#3]"*, i64 }* noalias nocapture dereferenceable(16) %__fat_ptr244)
          to label %normal-return245 unwind label %unwind_ast_1249_

normal-return245:                                 ; preds = %normal-return239
  invoke void @_ZN2io5stdio10print_args20hae54d0bc97b3553etolE(%"struct.core::fmt::Arguments<[]>[#3]"* noalias nocapture readonly dereferenceable(48) %__args240)
          to label %normal-return246 unwind label %unwind_ast_1249_

normal-return246:                                 ; preds = %normal-return245
  br label %join247

join247:                                          ; preds = %normal-return246
  %554 = load %"struct.HyObj<[]>"*** %val230
  %555 = load %"struct.HyObj<[]>"** %554
  invoke void @hy_obj_print(%"struct.HyObj<[]>"* dereferenceable(112) %555)
          to label %normal-return248 unwind label %unwind_ast_1249_

normal-return248:                                 ; preds = %join247
  br label %join249

join249:                                          ; preds = %case_body231, %normal-return248
  store %"struct.collections::treemap::Entries<[collections::string::String, Box<HyObj>]>[#6]"* %key_val_pairs, %"struct.collections::treemap::Entries<[collections::string::String, Box<HyObj>]>[#6]"** %for_head250
  %556 = load %"struct.collections::treemap::Entries<[collections::string::String, Box<HyObj>]>[#6]"** %for_head250
  br label %for_loopback252

for_exit251:                                      ; preds = %normal-return255
  %557 = getelementptr inbounds { %str_slice* }* %41, i32 0, i32 0
  %558 = getelementptr inbounds %str_slice* %42, i32 0, i32 0
  store i8* getelementptr inbounds ([1 x i8]* @str2812, i32 0, i32 0), i8** %558
  %559 = getelementptr inbounds %str_slice* %42, i32 0, i32 1
  store i64 1, i64* %559
  store %str_slice* %42, %str_slice** %557
  %560 = load { %str_slice* }* %41
  store { %str_slice* } %560, { %str_slice* }* %match273
  %561 = getelementptr inbounds { %str_slice* }* %match273, i32 0, i32 0
  store %str_slice** %561, %str_slice*** %__llmatch275
  br label %case_body274

for_loopback252:                                  ; preds = %normal-return272, %join249
  invoke void @"_ZN7treemap96Entries$LT$$x27a$C$$x20K$C$$x20V$GT$.Iterator$LT$$LP$$BP$$x27a$x20K$C$$x20$BP$$x27a$x20V$RP$$GT$4next21h16176259245318095064E"(%"enum.core::option::Option<[(&'static collections::string::String,&'static Box<HyObj>)]>[#3]"* noalias nocapture sret dereferenceable(24) %loop_option254, %"struct.collections::treemap::Entries<[collections::string::String, Box<HyObj>]>[#6]"* noalias dereferenceable(48) %556)
          to label %normal-return255 unwind label %unwind_ast_1249_

for_body253:                                      ; preds = %normal-return255
  %562 = bitcast %"enum.core::option::Option<[(&'static collections::string::String,&'static Box<HyObj>)]>[#3]"* %loop_option254 to { i8, { %"struct.collections::string::String<[]>[#6]"*, %"struct.HyObj<[]>"** } }*
  %563 = getelementptr inbounds { i8, { %"struct.collections::string::String<[]>[#6]"*, %"struct.HyObj<[]>"** } }* %562, i32 0, i32 1
  %564 = getelementptr inbounds { %"struct.collections::string::String<[]>[#6]"*, %"struct.HyObj<[]>"** }* %563, i32 0, i32 0
  %565 = load %"struct.collections::string::String<[]>[#6]"** %564
  store %"struct.collections::string::String<[]>[#6]"* %565, %"struct.collections::string::String<[]>[#6]"** %key256
  %566 = getelementptr inbounds { %"struct.collections::string::String<[]>[#6]"*, %"struct.HyObj<[]>"** }* %563, i32 0, i32 1
  %567 = load %"struct.HyObj<[]>"*** %566
  store %"struct.HyObj<[]>"** %567, %"struct.HyObj<[]>"*** %val257
  %568 = getelementptr inbounds { %"struct.collections::string::String<[]>[#6]"** }* %39, i32 0, i32 0
  store %"struct.collections::string::String<[]>[#6]"** %key256, %"struct.collections::string::String<[]>[#6]"*** %568
  %569 = load { %"struct.collections::string::String<[]>[#6]"** }* %39
  store { %"struct.collections::string::String<[]>[#6]"** } %569, { %"struct.collections::string::String<[]>[#6]"** }* %match258
  %570 = getelementptr inbounds { %"struct.collections::string::String<[]>[#6]"** }* %match258, i32 0, i32 0
  store %"struct.collections::string::String<[]>[#6]"*** %570, %"struct.collections::string::String<[]>[#6]"**** %__llmatch260
  br label %case_body259

normal-return255:                                 ; preds = %for_loopback252
  %571 = getelementptr inbounds %"enum.core::option::Option<[(&'static collections::string::String,&'static Box<HyObj>)]>[#3]"* %loop_option254, i32 0, i32 0
  %572 = load i8* %571, !range !0
  %573 = trunc i8 %572 to i1
  br i1 %573, label %for_body253, label %for_exit251

case_body259:                                     ; preds = %for_body253
  %574 = load %"struct.collections::string::String<[]>[#6]"**** %__llmatch260
  %575 = load %"struct.collections::string::String<[]>[#6]"*** %574
  store %"struct.collections::string::String<[]>[#6]"** %575, %"struct.collections::string::String<[]>[#6]"*** %__arg0261
  %576 = bitcast %"struct.core::fmt::Argument<[]>[#3]"* %40 to [1 x %"struct.core::fmt::Argument<[]>[#3]"]*
  %577 = getelementptr inbounds %"struct.core::fmt::Argument<[]>[#3]"* %40, i32 0
  %578 = load %"struct.collections::string::String<[]>[#6]"*** %__arg0261
  invoke void @_ZN3fmt8argument21h16569464289543052197E(%"struct.core::fmt::Argument<[]>[#3]"* noalias nocapture sret dereferenceable(16) %577, %"enum.core::result::Result<[(), core::fmt::FormatError]>[#3]" (%"struct.collections::string::String<[]>[#6]"**, %"struct.core::fmt::Formatter<[]>[#3]"*)* @_ZN3fmt11secret_show20h8380299111185711433E, %"struct.collections::string::String<[]>[#6]"** noalias readonly dereferenceable(8) %578)
          to label %normal-return263 unwind label %unwind_ast_1249_

normal-return263:                                 ; preds = %case_body259
  store [1 x %"struct.core::fmt::Argument<[]>[#3]"]* %576, [1 x %"struct.core::fmt::Argument<[]>[#3]"]** %__args_vec262
  %579 = getelementptr inbounds { %str_slice*, i64 }* %__fat_ptr265, i32 0, i32 0
  store %str_slice* getelementptr inbounds ([2 x %str_slice]* @_ZN5HyObj12hy_obj_print15__STATIC_FMTSTR20h60579851b18f9317mwaE, i32 0, i32 0), %str_slice** %579
  %580 = getelementptr inbounds { %str_slice*, i64 }* %__fat_ptr265, i32 0, i32 1
  store i64 2, i64* %580
  %581 = getelementptr inbounds { %str_slice*, i64 }* %__fat_ptr265, i32 0, i32 0
  %582 = load %str_slice** %581
  %583 = getelementptr inbounds { %str_slice*, i64 }* %__fat_ptr265, i32 0, i32 1
  %584 = load i64* %583
  %585 = getelementptr inbounds { %str_slice*, i64 }* %__fat_ptr266, i32 0, i32 0
  store %str_slice* %582, %str_slice** %585
  %586 = getelementptr inbounds { %str_slice*, i64 }* %__fat_ptr266, i32 0, i32 1
  store i64 %584, i64* %586
  %587 = load [1 x %"struct.core::fmt::Argument<[]>[#3]"]** %__args_vec262
  %588 = getelementptr inbounds [1 x %"struct.core::fmt::Argument<[]>[#3]"]* %587, i32 0, i32 0
  %589 = getelementptr inbounds { %"struct.core::fmt::Argument<[]>[#3]"*, i64 }* %__fat_ptr267, i32 0, i32 0
  store %"struct.core::fmt::Argument<[]>[#3]"* %588, %"struct.core::fmt::Argument<[]>[#3]"** %589
  %590 = getelementptr inbounds { %"struct.core::fmt::Argument<[]>[#3]"*, i64 }* %__fat_ptr267, i32 0, i32 1
  store i64 1, i64* %590
  %591 = getelementptr inbounds { %"struct.core::fmt::Argument<[]>[#3]"*, i64 }* %__fat_ptr267, i32 0, i32 0
  %592 = load %"struct.core::fmt::Argument<[]>[#3]"** %591
  %593 = getelementptr inbounds { %"struct.core::fmt::Argument<[]>[#3]"*, i64 }* %__fat_ptr267, i32 0, i32 1
  %594 = load i64* %593
  %595 = getelementptr inbounds { %"struct.core::fmt::Argument<[]>[#3]"*, i64 }* %__fat_ptr268, i32 0, i32 0
  store %"struct.core::fmt::Argument<[]>[#3]"* %592, %"struct.core::fmt::Argument<[]>[#3]"** %595
  %596 = getelementptr inbounds { %"struct.core::fmt::Argument<[]>[#3]"*, i64 }* %__fat_ptr268, i32 0, i32 1
  store i64 %594, i64* %596
  invoke void @"_ZN3fmt22Arguments$LT$$x27a$GT$3new20h5a0d288d00618aa4BDyE"(%"struct.core::fmt::Arguments<[]>[#3]"* noalias nocapture sret dereferenceable(48) %__args264, { %str_slice*, i64 }* noalias nocapture dereferenceable(16) %__fat_ptr266, { %"struct.core::fmt::Argument<[]>[#3]"*, i64 }* noalias nocapture dereferenceable(16) %__fat_ptr268)
          to label %normal-return269 unwind label %unwind_ast_1249_

normal-return269:                                 ; preds = %normal-return263
  invoke void @_ZN2io5stdio10print_args20hae54d0bc97b3553etolE(%"struct.core::fmt::Arguments<[]>[#3]"* noalias nocapture readonly dereferenceable(48) %__args264)
          to label %normal-return270 unwind label %unwind_ast_1249_

normal-return270:                                 ; preds = %normal-return269
  br label %join271

join271:                                          ; preds = %normal-return270
  %597 = load %"struct.HyObj<[]>"*** %val257
  %598 = load %"struct.HyObj<[]>"** %597
  invoke void @hy_obj_print(%"struct.HyObj<[]>"* dereferenceable(112) %598)
          to label %normal-return272 unwind label %unwind_ast_1249_

normal-return272:                                 ; preds = %join271
  br label %for_loopback252

case_body274:                                     ; preds = %for_exit251
  %599 = load %str_slice*** %__llmatch275
  %600 = load %str_slice** %599
  store %str_slice* %600, %str_slice** %__arg0276
  %601 = bitcast %"struct.core::fmt::Argument<[]>[#3]"* %43 to [1 x %"struct.core::fmt::Argument<[]>[#3]"]*
  %602 = getelementptr inbounds %"struct.core::fmt::Argument<[]>[#3]"* %43, i32 0
  %603 = load %str_slice** %__arg0276
  invoke void @_ZN3fmt8argument20h8220562121084033817E(%"struct.core::fmt::Argument<[]>[#3]"* noalias nocapture sret dereferenceable(16) %602, %"enum.core::result::Result<[(), core::fmt::FormatError]>[#3]" (%str_slice*, %"struct.core::fmt::Formatter<[]>[#3]"*)* @_ZN3fmt11secret_show20h7780688171928479393E, %str_slice* noalias readonly dereferenceable(16) %603)
          to label %normal-return278 unwind label %unwind_ast_1249_

normal-return278:                                 ; preds = %case_body274
  store [1 x %"struct.core::fmt::Argument<[]>[#3]"]* %601, [1 x %"struct.core::fmt::Argument<[]>[#3]"]** %__args_vec277
  %604 = getelementptr inbounds { %str_slice*, i64 }* %__fat_ptr280, i32 0, i32 0
  store %str_slice* getelementptr inbounds ([1 x %str_slice]* @_ZN5HyObj12hy_obj_print15__STATIC_FMTSTR20ha9ed25ad4baec97e7waE, i32 0, i32 0), %str_slice** %604
  %605 = getelementptr inbounds { %str_slice*, i64 }* %__fat_ptr280, i32 0, i32 1
  store i64 1, i64* %605
  %606 = getelementptr inbounds { %str_slice*, i64 }* %__fat_ptr280, i32 0, i32 0
  %607 = load %str_slice** %606
  %608 = getelementptr inbounds { %str_slice*, i64 }* %__fat_ptr280, i32 0, i32 1
  %609 = load i64* %608
  %610 = getelementptr inbounds { %str_slice*, i64 }* %__fat_ptr281, i32 0, i32 0
  store %str_slice* %607, %str_slice** %610
  %611 = getelementptr inbounds { %str_slice*, i64 }* %__fat_ptr281, i32 0, i32 1
  store i64 %609, i64* %611
  %612 = load [1 x %"struct.core::fmt::Argument<[]>[#3]"]** %__args_vec277
  %613 = getelementptr inbounds [1 x %"struct.core::fmt::Argument<[]>[#3]"]* %612, i32 0, i32 0
  %614 = getelementptr inbounds { %"struct.core::fmt::Argument<[]>[#3]"*, i64 }* %__fat_ptr282, i32 0, i32 0
  store %"struct.core::fmt::Argument<[]>[#3]"* %613, %"struct.core::fmt::Argument<[]>[#3]"** %614
  %615 = getelementptr inbounds { %"struct.core::fmt::Argument<[]>[#3]"*, i64 }* %__fat_ptr282, i32 0, i32 1
  store i64 1, i64* %615
  %616 = getelementptr inbounds { %"struct.core::fmt::Argument<[]>[#3]"*, i64 }* %__fat_ptr282, i32 0, i32 0
  %617 = load %"struct.core::fmt::Argument<[]>[#3]"** %616
  %618 = getelementptr inbounds { %"struct.core::fmt::Argument<[]>[#3]"*, i64 }* %__fat_ptr282, i32 0, i32 1
  %619 = load i64* %618
  %620 = getelementptr inbounds { %"struct.core::fmt::Argument<[]>[#3]"*, i64 }* %__fat_ptr283, i32 0, i32 0
  store %"struct.core::fmt::Argument<[]>[#3]"* %617, %"struct.core::fmt::Argument<[]>[#3]"** %620
  %621 = getelementptr inbounds { %"struct.core::fmt::Argument<[]>[#3]"*, i64 }* %__fat_ptr283, i32 0, i32 1
  store i64 %619, i64* %621
  invoke void @"_ZN3fmt22Arguments$LT$$x27a$GT$3new20h5a0d288d00618aa4BDyE"(%"struct.core::fmt::Arguments<[]>[#3]"* noalias nocapture sret dereferenceable(48) %__args279, { %str_slice*, i64 }* noalias nocapture dereferenceable(16) %__fat_ptr281, { %"struct.core::fmt::Argument<[]>[#3]"*, i64 }* noalias nocapture dereferenceable(16) %__fat_ptr283)
          to label %normal-return284 unwind label %unwind_ast_1249_

normal-return284:                                 ; preds = %normal-return278
  invoke void @_ZN2io5stdio10print_args20hae54d0bc97b3553etolE(%"struct.core::fmt::Arguments<[]>[#3]"* noalias nocapture readonly dereferenceable(48) %__args279)
          to label %normal-return285 unwind label %unwind_ast_1249_

normal-return285:                                 ; preds = %normal-return284
  br label %join286

join286:                                          ; preds = %normal-return285
  call void @"_ZN91collections..treemap..Entries$LT$$x27_$C$collections..string..String$C$Box$LT$HyObj$GT$$GT$14glue_drop.280617h3c9cece28ef1aa13E"(%"struct.collections::treemap::Entries<[collections::string::String, Box<HyObj>]>[#6]"* %key_val_pairs)
  br label %join364

then-block-1462-:                                 ; preds = %case_body11
  br label %case_body289

case_body289:                                     ; preds = %then-block-1462-
  %622 = bitcast %"struct.core::fmt::Argument<[]>[#3]"* %44 to [0 x %"struct.core::fmt::Argument<[]>[#3]"]*
  store [0 x %"struct.core::fmt::Argument<[]>[#3]"]* %622, [0 x %"struct.core::fmt::Argument<[]>[#3]"]** %__args_vec290
  %623 = getelementptr inbounds { %str_slice*, i64 }* %__fat_ptr292, i32 0, i32 0
  store %str_slice* getelementptr inbounds ([1 x %str_slice]* @_ZN5HyObj12hy_obj_print15__STATIC_FMTSTR20ha9ed25ad4baec97eSxaE, i32 0, i32 0), %str_slice** %623
  %624 = getelementptr inbounds { %str_slice*, i64 }* %__fat_ptr292, i32 0, i32 1
  store i64 1, i64* %624
  %625 = getelementptr inbounds { %str_slice*, i64 }* %__fat_ptr292, i32 0, i32 0
  %626 = load %str_slice** %625
  %627 = getelementptr inbounds { %str_slice*, i64 }* %__fat_ptr292, i32 0, i32 1
  %628 = load i64* %627
  %629 = getelementptr inbounds { %str_slice*, i64 }* %__fat_ptr293, i32 0, i32 0
  store %str_slice* %626, %str_slice** %629
  %630 = getelementptr inbounds { %str_slice*, i64 }* %__fat_ptr293, i32 0, i32 1
  store i64 %628, i64* %630
  %631 = load [0 x %"struct.core::fmt::Argument<[]>[#3]"]** %__args_vec290
  %632 = getelementptr inbounds [0 x %"struct.core::fmt::Argument<[]>[#3]"]* %631, i32 0, i32 0
  %633 = getelementptr inbounds { %"struct.core::fmt::Argument<[]>[#3]"*, i64 }* %__fat_ptr294, i32 0, i32 0
  store %"struct.core::fmt::Argument<[]>[#3]"* %632, %"struct.core::fmt::Argument<[]>[#3]"** %633
  %634 = getelementptr inbounds { %"struct.core::fmt::Argument<[]>[#3]"*, i64 }* %__fat_ptr294, i32 0, i32 1
  store i64 0, i64* %634
  %635 = getelementptr inbounds { %"struct.core::fmt::Argument<[]>[#3]"*, i64 }* %__fat_ptr294, i32 0, i32 0
  %636 = load %"struct.core::fmt::Argument<[]>[#3]"** %635
  %637 = getelementptr inbounds { %"struct.core::fmt::Argument<[]>[#3]"*, i64 }* %__fat_ptr294, i32 0, i32 1
  %638 = load i64* %637
  %639 = getelementptr inbounds { %"struct.core::fmt::Argument<[]>[#3]"*, i64 }* %__fat_ptr295, i32 0, i32 0
  store %"struct.core::fmt::Argument<[]>[#3]"* %636, %"struct.core::fmt::Argument<[]>[#3]"** %639
  %640 = getelementptr inbounds { %"struct.core::fmt::Argument<[]>[#3]"*, i64 }* %__fat_ptr295, i32 0, i32 1
  store i64 %638, i64* %640
  call void @"_ZN3fmt22Arguments$LT$$x27a$GT$3new20h5a0d288d00618aa4BDyE"(%"struct.core::fmt::Arguments<[]>[#3]"* noalias nocapture sret dereferenceable(48) %__args291, { %str_slice*, i64 }* noalias nocapture dereferenceable(16) %__fat_ptr293, { %"struct.core::fmt::Argument<[]>[#3]"*, i64 }* noalias nocapture dereferenceable(16) %__fat_ptr295)
  call void @_ZN2io5stdio10print_args20hae54d0bc97b3553etolE(%"struct.core::fmt::Arguments<[]>[#3]"* noalias nocapture readonly dereferenceable(48) %__args291)
  br label %join296

join296:                                          ; preds = %case_body289
  br label %join307

else-block:                                       ; preds = %case_body11
  br label %case_body299

case_body299:                                     ; preds = %else-block
  %641 = bitcast %"struct.core::fmt::Argument<[]>[#3]"* %45 to [0 x %"struct.core::fmt::Argument<[]>[#3]"]*
  store [0 x %"struct.core::fmt::Argument<[]>[#3]"]* %641, [0 x %"struct.core::fmt::Argument<[]>[#3]"]** %__args_vec300
  %642 = getelementptr inbounds { %str_slice*, i64 }* %__fat_ptr302, i32 0, i32 0
  store %str_slice* getelementptr inbounds ([1 x %str_slice]* @_ZN5HyObj12hy_obj_print15__STATIC_FMTSTR20ha9ed25ad4baec97euyaE, i32 0, i32 0), %str_slice** %642
  %643 = getelementptr inbounds { %str_slice*, i64 }* %__fat_ptr302, i32 0, i32 1
  store i64 1, i64* %643
  %644 = getelementptr inbounds { %str_slice*, i64 }* %__fat_ptr302, i32 0, i32 0
  %645 = load %str_slice** %644
  %646 = getelementptr inbounds { %str_slice*, i64 }* %__fat_ptr302, i32 0, i32 1
  %647 = load i64* %646
  %648 = getelementptr inbounds { %str_slice*, i64 }* %__fat_ptr303, i32 0, i32 0
  store %str_slice* %645, %str_slice** %648
  %649 = getelementptr inbounds { %str_slice*, i64 }* %__fat_ptr303, i32 0, i32 1
  store i64 %647, i64* %649
  %650 = load [0 x %"struct.core::fmt::Argument<[]>[#3]"]** %__args_vec300
  %651 = getelementptr inbounds [0 x %"struct.core::fmt::Argument<[]>[#3]"]* %650, i32 0, i32 0
  %652 = getelementptr inbounds { %"struct.core::fmt::Argument<[]>[#3]"*, i64 }* %__fat_ptr304, i32 0, i32 0
  store %"struct.core::fmt::Argument<[]>[#3]"* %651, %"struct.core::fmt::Argument<[]>[#3]"** %652
  %653 = getelementptr inbounds { %"struct.core::fmt::Argument<[]>[#3]"*, i64 }* %__fat_ptr304, i32 0, i32 1
  store i64 0, i64* %653
  %654 = getelementptr inbounds { %"struct.core::fmt::Argument<[]>[#3]"*, i64 }* %__fat_ptr304, i32 0, i32 0
  %655 = load %"struct.core::fmt::Argument<[]>[#3]"** %654
  %656 = getelementptr inbounds { %"struct.core::fmt::Argument<[]>[#3]"*, i64 }* %__fat_ptr304, i32 0, i32 1
  %657 = load i64* %656
  %658 = getelementptr inbounds { %"struct.core::fmt::Argument<[]>[#3]"*, i64 }* %__fat_ptr305, i32 0, i32 0
  store %"struct.core::fmt::Argument<[]>[#3]"* %655, %"struct.core::fmt::Argument<[]>[#3]"** %658
  %659 = getelementptr inbounds { %"struct.core::fmt::Argument<[]>[#3]"*, i64 }* %__fat_ptr305, i32 0, i32 1
  store i64 %657, i64* %659
  call void @"_ZN3fmt22Arguments$LT$$x27a$GT$3new20h5a0d288d00618aa4BDyE"(%"struct.core::fmt::Arguments<[]>[#3]"* noalias nocapture sret dereferenceable(48) %__args301, { %str_slice*, i64 }* noalias nocapture dereferenceable(16) %__fat_ptr303, { %"struct.core::fmt::Argument<[]>[#3]"*, i64 }* noalias nocapture dereferenceable(16) %__fat_ptr305)
  call void @_ZN2io5stdio10print_args20hae54d0bc97b3553etolE(%"struct.core::fmt::Arguments<[]>[#3]"* noalias nocapture readonly dereferenceable(48) %__args301)
  br label %join306

join306:                                          ; preds = %case_body299
  br label %join307

join307:                                          ; preds = %join306, %join296
  br label %join364

normal-return309:                                 ; preds = %case_body13
  %660 = invoke dereferenceable(24) %"struct.collections::vec::Vec<[u8]>[#6]"* @_ZN6string6String10as_mut_vec20h0846f711486f15dfL7iE(%"struct.collections::string::String<[]>[#6]"* noalias dereferenceable(24) %s308)
          to label %normal-return311 unwind label %unwind_ast_1550_

unwind_ast_1541_:                                 ; preds = %normal-return325, %normal-return319, %case_body315, %case_body13
  %661 = landingpad { i8*, i32 } personality i32 (i32, i32, i64, %"struct.rustrt::libunwind::_Unwind_Exception<[]>[#9]"*, %"enum.rustrt::libunwind::_Unwind_Context<[]>[#9]"*)* @rust_eh_personality
          cleanup
  store { i8*, i32 } %661, { i8*, i32 }* %12
  br label %clean_ast_1541_

clean_custom_310:                                 ; preds = %clean_ast_1541_
  br label %clean_custom_

clean_ast_1541_:                                  ; preds = %clean_ast_1550_, %unwind_ast_1541_
  call void @_ZN27collections..string..String14glue_drop.262917h03add16664af39b7E(%"struct.collections::string::String<[]>[#6]"* %s308)
  br label %clean_custom_310

normal-return311:                                 ; preds = %normal-return309
  store %"struct.collections::vec::Vec<[u8]>[#6]"* %660, %"struct.collections::vec::Vec<[u8]>[#6]"** %46
  %662 = load %"struct.collections::vec::Vec<[u8]>[#6]"** %46
  invoke void @_ZN5c_str7CString8as_bytes20h41de3facd680d01dH7aE({ i8*, i64 }* noalias nocapture sret dereferenceable(16) %47, %"struct.rustrt::c_str::CString<[]>[#9]"* noalias readonly dereferenceable(16) %c_str)
          to label %normal-return312 unwind label %unwind_ast_1550_

unwind_ast_1550_:                                 ; preds = %normal-return312, %normal-return311, %normal-return309
  %663 = landingpad { i8*, i32 } personality i32 (i32, i32, i64, %"struct.rustrt::libunwind::_Unwind_Exception<[]>[#9]"*, %"enum.rustrt::libunwind::_Unwind_Context<[]>[#9]"*)* @rust_eh_personality
          cleanup
  store { i8*, i32 } %663, { i8*, i32 }* %12
  br label %clean_ast_1550_

clean_ast_1550_:                                  ; preds = %unwind_ast_1550_
  call void @_ZN22rustrt..c_str..CString14glue_drop.289917hda6f63c7783e8224E(%"struct.rustrt::c_str::CString<[]>[#9]"* %c_str)
  br label %clean_ast_1541_

normal-return312:                                 ; preds = %normal-return311
  invoke void @"_ZN3vec12Vec$LT$T$GT$8push_all20h4394981603701199192E"(%"struct.collections::vec::Vec<[u8]>[#6]"* noalias dereferenceable(24) %662, { i8*, i64 }* noalias nocapture dereferenceable(16) %47)
          to label %normal-return313 unwind label %unwind_ast_1550_

normal-return313:                                 ; preds = %normal-return312
  call void @_ZN22rustrt..c_str..CString14glue_drop.289917hda6f63c7783e8224E(%"struct.rustrt::c_str::CString<[]>[#9]"* %c_str)
  %664 = getelementptr inbounds { %"struct.collections::string::String<[]>[#6]"* }* %48, i32 0, i32 0
  store %"struct.collections::string::String<[]>[#6]"* %s308, %"struct.collections::string::String<[]>[#6]"** %664
  %665 = load { %"struct.collections::string::String<[]>[#6]"* }* %48
  store { %"struct.collections::string::String<[]>[#6]"* } %665, { %"struct.collections::string::String<[]>[#6]"* }* %match314
  %666 = getelementptr inbounds { %"struct.collections::string::String<[]>[#6]"* }* %match314, i32 0, i32 0
  store %"struct.collections::string::String<[]>[#6]"** %666, %"struct.collections::string::String<[]>[#6]"*** %__llmatch316
  br label %case_body315

case_body315:                                     ; preds = %normal-return313
  %667 = load %"struct.collections::string::String<[]>[#6]"*** %__llmatch316
  %668 = load %"struct.collections::string::String<[]>[#6]"** %667
  store %"struct.collections::string::String<[]>[#6]"* %668, %"struct.collections::string::String<[]>[#6]"** %__arg0317
  %669 = bitcast %"struct.core::fmt::Argument<[]>[#3]"* %49 to [1 x %"struct.core::fmt::Argument<[]>[#3]"]*
  %670 = getelementptr inbounds %"struct.core::fmt::Argument<[]>[#3]"* %49, i32 0
  %671 = load %"struct.collections::string::String<[]>[#6]"** %__arg0317
  invoke void @_ZN3fmt8argument20h8477380921845003020E(%"struct.core::fmt::Argument<[]>[#3]"* noalias nocapture sret dereferenceable(16) %670, %"enum.core::result::Result<[(), core::fmt::FormatError]>[#3]" (%"struct.collections::string::String<[]>[#6]"*, %"struct.core::fmt::Formatter<[]>[#3]"*)* @_ZN3fmt11secret_show21h13016532082515408702E, %"struct.collections::string::String<[]>[#6]"* noalias readonly dereferenceable(24) %671)
          to label %normal-return319 unwind label %unwind_ast_1541_

normal-return319:                                 ; preds = %case_body315
  store [1 x %"struct.core::fmt::Argument<[]>[#3]"]* %669, [1 x %"struct.core::fmt::Argument<[]>[#3]"]** %__args_vec318
  %672 = getelementptr inbounds { %str_slice*, i64 }* %__fat_ptr321, i32 0, i32 0
  store %str_slice* getelementptr inbounds ([2 x %str_slice]* @_ZN5HyObj12hy_obj_print15__STATIC_FMTSTR20h60579851b18f9317zzaE, i32 0, i32 0), %str_slice** %672
  %673 = getelementptr inbounds { %str_slice*, i64 }* %__fat_ptr321, i32 0, i32 1
  store i64 2, i64* %673
  %674 = getelementptr inbounds { %str_slice*, i64 }* %__fat_ptr321, i32 0, i32 0
  %675 = load %str_slice** %674
  %676 = getelementptr inbounds { %str_slice*, i64 }* %__fat_ptr321, i32 0, i32 1
  %677 = load i64* %676
  %678 = getelementptr inbounds { %str_slice*, i64 }* %__fat_ptr322, i32 0, i32 0
  store %str_slice* %675, %str_slice** %678
  %679 = getelementptr inbounds { %str_slice*, i64 }* %__fat_ptr322, i32 0, i32 1
  store i64 %677, i64* %679
  %680 = load [1 x %"struct.core::fmt::Argument<[]>[#3]"]** %__args_vec318
  %681 = getelementptr inbounds [1 x %"struct.core::fmt::Argument<[]>[#3]"]* %680, i32 0, i32 0
  %682 = getelementptr inbounds { %"struct.core::fmt::Argument<[]>[#3]"*, i64 }* %__fat_ptr323, i32 0, i32 0
  store %"struct.core::fmt::Argument<[]>[#3]"* %681, %"struct.core::fmt::Argument<[]>[#3]"** %682
  %683 = getelementptr inbounds { %"struct.core::fmt::Argument<[]>[#3]"*, i64 }* %__fat_ptr323, i32 0, i32 1
  store i64 1, i64* %683
  %684 = getelementptr inbounds { %"struct.core::fmt::Argument<[]>[#3]"*, i64 }* %__fat_ptr323, i32 0, i32 0
  %685 = load %"struct.core::fmt::Argument<[]>[#3]"** %684
  %686 = getelementptr inbounds { %"struct.core::fmt::Argument<[]>[#3]"*, i64 }* %__fat_ptr323, i32 0, i32 1
  %687 = load i64* %686
  %688 = getelementptr inbounds { %"struct.core::fmt::Argument<[]>[#3]"*, i64 }* %__fat_ptr324, i32 0, i32 0
  store %"struct.core::fmt::Argument<[]>[#3]"* %685, %"struct.core::fmt::Argument<[]>[#3]"** %688
  %689 = getelementptr inbounds { %"struct.core::fmt::Argument<[]>[#3]"*, i64 }* %__fat_ptr324, i32 0, i32 1
  store i64 %687, i64* %689
  invoke void @"_ZN3fmt22Arguments$LT$$x27a$GT$3new20h5a0d288d00618aa4BDyE"(%"struct.core::fmt::Arguments<[]>[#3]"* noalias nocapture sret dereferenceable(48) %__args320, { %str_slice*, i64 }* noalias nocapture dereferenceable(16) %__fat_ptr322, { %"struct.core::fmt::Argument<[]>[#3]"*, i64 }* noalias nocapture dereferenceable(16) %__fat_ptr324)
          to label %normal-return325 unwind label %unwind_ast_1541_

normal-return325:                                 ; preds = %normal-return319
  invoke void @_ZN2io5stdio10print_args20hae54d0bc97b3553etolE(%"struct.core::fmt::Arguments<[]>[#3]"* noalias nocapture readonly dereferenceable(48) %__args320)
          to label %normal-return326 unwind label %unwind_ast_1541_

normal-return326:                                 ; preds = %normal-return325
  br label %join327

join327:                                          ; preds = %normal-return326
  call void @_ZN27collections..string..String14glue_drop.262917h03add16664af39b7E(%"struct.collections::string::String<[]>[#6]"* %s308)
  br label %join364

case_body328:                                     ; preds = %match_case331
  br label %case_body334

case_body329:                                     ; preds = %match_else330
  %690 = getelementptr inbounds { i64* }* %51, i32 0, i32 0
  store i64* %buffer_sz, i64** %690
  %691 = load { i64* }* %51
  store { i64* } %691, { i64* }* %match342
  %692 = getelementptr inbounds { i64* }* %match342, i32 0, i32 0
  store i64** %692, i64*** %__llmatch344
  br label %case_body343

match_else330:                                    ; preds = %case_body16
  br label %case_body329

match_case331:                                    ; preds = %case_body16
  br label %case_body328

case_body334:                                     ; preds = %case_body328
  %693 = bitcast %"struct.core::fmt::Argument<[]>[#3]"* %50 to [0 x %"struct.core::fmt::Argument<[]>[#3]"]*
  store [0 x %"struct.core::fmt::Argument<[]>[#3]"]* %693, [0 x %"struct.core::fmt::Argument<[]>[#3]"]** %__args_vec335
  %694 = getelementptr inbounds { %str_slice*, i64 }* %__fat_ptr337, i32 0, i32 0
  store %str_slice* getelementptr inbounds ([1 x %str_slice]* @_ZN5HyObj12hy_obj_print15__STATIC_FMTSTR20ha9ed25ad4baec97erAaE, i32 0, i32 0), %str_slice** %694
  %695 = getelementptr inbounds { %str_slice*, i64 }* %__fat_ptr337, i32 0, i32 1
  store i64 1, i64* %695
  %696 = getelementptr inbounds { %str_slice*, i64 }* %__fat_ptr337, i32 0, i32 0
  %697 = load %str_slice** %696
  %698 = getelementptr inbounds { %str_slice*, i64 }* %__fat_ptr337, i32 0, i32 1
  %699 = load i64* %698
  %700 = getelementptr inbounds { %str_slice*, i64 }* %__fat_ptr338, i32 0, i32 0
  store %str_slice* %697, %str_slice** %700
  %701 = getelementptr inbounds { %str_slice*, i64 }* %__fat_ptr338, i32 0, i32 1
  store i64 %699, i64* %701
  %702 = load [0 x %"struct.core::fmt::Argument<[]>[#3]"]** %__args_vec335
  %703 = getelementptr inbounds [0 x %"struct.core::fmt::Argument<[]>[#3]"]* %702, i32 0, i32 0
  %704 = getelementptr inbounds { %"struct.core::fmt::Argument<[]>[#3]"*, i64 }* %__fat_ptr339, i32 0, i32 0
  store %"struct.core::fmt::Argument<[]>[#3]"* %703, %"struct.core::fmt::Argument<[]>[#3]"** %704
  %705 = getelementptr inbounds { %"struct.core::fmt::Argument<[]>[#3]"*, i64 }* %__fat_ptr339, i32 0, i32 1
  store i64 0, i64* %705
  %706 = getelementptr inbounds { %"struct.core::fmt::Argument<[]>[#3]"*, i64 }* %__fat_ptr339, i32 0, i32 0
  %707 = load %"struct.core::fmt::Argument<[]>[#3]"** %706
  %708 = getelementptr inbounds { %"struct.core::fmt::Argument<[]>[#3]"*, i64 }* %__fat_ptr339, i32 0, i32 1
  %709 = load i64* %708
  %710 = getelementptr inbounds { %"struct.core::fmt::Argument<[]>[#3]"*, i64 }* %__fat_ptr340, i32 0, i32 0
  store %"struct.core::fmt::Argument<[]>[#3]"* %707, %"struct.core::fmt::Argument<[]>[#3]"** %710
  %711 = getelementptr inbounds { %"struct.core::fmt::Argument<[]>[#3]"*, i64 }* %__fat_ptr340, i32 0, i32 1
  store i64 %709, i64* %711
  call void @"_ZN3fmt22Arguments$LT$$x27a$GT$3new20h5a0d288d00618aa4BDyE"(%"struct.core::fmt::Arguments<[]>[#3]"* noalias nocapture sret dereferenceable(48) %__args336, { %str_slice*, i64 }* noalias nocapture dereferenceable(16) %__fat_ptr338, { %"struct.core::fmt::Argument<[]>[#3]"*, i64 }* noalias nocapture dereferenceable(16) %__fat_ptr340)
  call void @_ZN2io5stdio10print_args20hae54d0bc97b3553etolE(%"struct.core::fmt::Arguments<[]>[#3]"* noalias nocapture readonly dereferenceable(48) %__args336)
  br label %join341

join341:                                          ; preds = %case_body334
  br label %join353

case_body343:                                     ; preds = %case_body329
  %712 = load i64*** %__llmatch344
  %713 = load i64** %712
  store i64* %713, i64** %__arg0345
  %714 = bitcast %"struct.core::fmt::Argument<[]>[#3]"* %52 to [1 x %"struct.core::fmt::Argument<[]>[#3]"]*
  %715 = getelementptr inbounds %"struct.core::fmt::Argument<[]>[#3]"* %52, i32 0
  %716 = load i64** %__arg0345
  call void @_ZN3fmt8argument20h9634171305284677523E(%"struct.core::fmt::Argument<[]>[#3]"* noalias nocapture sret dereferenceable(16) %715, %"enum.core::result::Result<[(), core::fmt::FormatError]>[#3]" (i64*, %"struct.core::fmt::Formatter<[]>[#3]"*)* @_ZN3fmt11secret_show20h1784875980264743306E, i64* noalias readonly dereferenceable(8) %716)
  store [1 x %"struct.core::fmt::Argument<[]>[#3]"]* %714, [1 x %"struct.core::fmt::Argument<[]>[#3]"]** %__args_vec346
  %717 = getelementptr inbounds { %str_slice*, i64 }* %__fat_ptr348, i32 0, i32 0
  store %str_slice* getelementptr inbounds ([2 x %str_slice]* @_ZN5HyObj12hy_obj_print15__STATIC_FMTSTR20h60579851b18f93177AaE, i32 0, i32 0), %str_slice** %717
  %718 = getelementptr inbounds { %str_slice*, i64 }* %__fat_ptr348, i32 0, i32 1
  store i64 2, i64* %718
  %719 = getelementptr inbounds { %str_slice*, i64 }* %__fat_ptr348, i32 0, i32 0
  %720 = load %str_slice** %719
  %721 = getelementptr inbounds { %str_slice*, i64 }* %__fat_ptr348, i32 0, i32 1
  %722 = load i64* %721
  %723 = getelementptr inbounds { %str_slice*, i64 }* %__fat_ptr349, i32 0, i32 0
  store %str_slice* %720, %str_slice** %723
  %724 = getelementptr inbounds { %str_slice*, i64 }* %__fat_ptr349, i32 0, i32 1
  store i64 %722, i64* %724
  %725 = load [1 x %"struct.core::fmt::Argument<[]>[#3]"]** %__args_vec346
  %726 = getelementptr inbounds [1 x %"struct.core::fmt::Argument<[]>[#3]"]* %725, i32 0, i32 0
  %727 = getelementptr inbounds { %"struct.core::fmt::Argument<[]>[#3]"*, i64 }* %__fat_ptr350, i32 0, i32 0
  store %"struct.core::fmt::Argument<[]>[#3]"* %726, %"struct.core::fmt::Argument<[]>[#3]"** %727
  %728 = getelementptr inbounds { %"struct.core::fmt::Argument<[]>[#3]"*, i64 }* %__fat_ptr350, i32 0, i32 1
  store i64 1, i64* %728
  %729 = getelementptr inbounds { %"struct.core::fmt::Argument<[]>[#3]"*, i64 }* %__fat_ptr350, i32 0, i32 0
  %730 = load %"struct.core::fmt::Argument<[]>[#3]"** %729
  %731 = getelementptr inbounds { %"struct.core::fmt::Argument<[]>[#3]"*, i64 }* %__fat_ptr350, i32 0, i32 1
  %732 = load i64* %731
  %733 = getelementptr inbounds { %"struct.core::fmt::Argument<[]>[#3]"*, i64 }* %__fat_ptr351, i32 0, i32 0
  store %"struct.core::fmt::Argument<[]>[#3]"* %730, %"struct.core::fmt::Argument<[]>[#3]"** %733
  %734 = getelementptr inbounds { %"struct.core::fmt::Argument<[]>[#3]"*, i64 }* %__fat_ptr351, i32 0, i32 1
  store i64 %732, i64* %734
  call void @"_ZN3fmt22Arguments$LT$$x27a$GT$3new20h5a0d288d00618aa4BDyE"(%"struct.core::fmt::Arguments<[]>[#3]"* noalias nocapture sret dereferenceable(48) %__args347, { %str_slice*, i64 }* noalias nocapture dereferenceable(16) %__fat_ptr349, { %"struct.core::fmt::Argument<[]>[#3]"*, i64 }* noalias nocapture dereferenceable(16) %__fat_ptr351)
  call void @_ZN2io5stdio10print_args20hae54d0bc97b3553etolE(%"struct.core::fmt::Arguments<[]>[#3]"* noalias nocapture readonly dereferenceable(48) %__args347)
  br label %join352

join352:                                          ; preds = %case_body343
  br label %join353

join353:                                          ; preds = %join352, %join341
  br label %join364

case_body356:                                     ; preds = %case_body18
  %735 = bitcast %"struct.core::fmt::Argument<[]>[#3]"* %53 to [0 x %"struct.core::fmt::Argument<[]>[#3]"]*
  store [0 x %"struct.core::fmt::Argument<[]>[#3]"]* %735, [0 x %"struct.core::fmt::Argument<[]>[#3]"]** %__args_vec357
  %736 = getelementptr inbounds { %str_slice*, i64 }* %__fat_ptr359, i32 0, i32 0
  store %str_slice* getelementptr inbounds ([1 x %str_slice]* @_ZN5HyObj12hy_obj_print15__STATIC_FMTSTR20ha9ed25ad4baec97eMBaE, i32 0, i32 0), %str_slice** %736
  %737 = getelementptr inbounds { %str_slice*, i64 }* %__fat_ptr359, i32 0, i32 1
  store i64 1, i64* %737
  %738 = getelementptr inbounds { %str_slice*, i64 }* %__fat_ptr359, i32 0, i32 0
  %739 = load %str_slice** %738
  %740 = getelementptr inbounds { %str_slice*, i64 }* %__fat_ptr359, i32 0, i32 1
  %741 = load i64* %740
  %742 = getelementptr inbounds { %str_slice*, i64 }* %__fat_ptr360, i32 0, i32 0
  store %str_slice* %739, %str_slice** %742
  %743 = getelementptr inbounds { %str_slice*, i64 }* %__fat_ptr360, i32 0, i32 1
  store i64 %741, i64* %743
  %744 = load [0 x %"struct.core::fmt::Argument<[]>[#3]"]** %__args_vec357
  %745 = getelementptr inbounds [0 x %"struct.core::fmt::Argument<[]>[#3]"]* %744, i32 0, i32 0
  %746 = getelementptr inbounds { %"struct.core::fmt::Argument<[]>[#3]"*, i64 }* %__fat_ptr361, i32 0, i32 0
  store %"struct.core::fmt::Argument<[]>[#3]"* %745, %"struct.core::fmt::Argument<[]>[#3]"** %746
  %747 = getelementptr inbounds { %"struct.core::fmt::Argument<[]>[#3]"*, i64 }* %__fat_ptr361, i32 0, i32 1
  store i64 0, i64* %747
  %748 = getelementptr inbounds { %"struct.core::fmt::Argument<[]>[#3]"*, i64 }* %__fat_ptr361, i32 0, i32 0
  %749 = load %"struct.core::fmt::Argument<[]>[#3]"** %748
  %750 = getelementptr inbounds { %"struct.core::fmt::Argument<[]>[#3]"*, i64 }* %__fat_ptr361, i32 0, i32 1
  %751 = load i64* %750
  %752 = getelementptr inbounds { %"struct.core::fmt::Argument<[]>[#3]"*, i64 }* %__fat_ptr362, i32 0, i32 0
  store %"struct.core::fmt::Argument<[]>[#3]"* %749, %"struct.core::fmt::Argument<[]>[#3]"** %752
  %753 = getelementptr inbounds { %"struct.core::fmt::Argument<[]>[#3]"*, i64 }* %__fat_ptr362, i32 0, i32 1
  store i64 %751, i64* %753
  call void @"_ZN3fmt22Arguments$LT$$x27a$GT$3new20h5a0d288d00618aa4BDyE"(%"struct.core::fmt::Arguments<[]>[#3]"* noalias nocapture sret dereferenceable(48) %__args358, { %str_slice*, i64 }* noalias nocapture dereferenceable(16) %__fat_ptr360, { %"struct.core::fmt::Argument<[]>[#3]"*, i64 }* noalias nocapture dereferenceable(16) %__fat_ptr362)
  call void @_ZN2io5stdio10print_args20hae54d0bc97b3553etolE(%"struct.core::fmt::Arguments<[]>[#3]"* noalias nocapture readonly dereferenceable(48) %__args358)
  br label %join363

join363:                                          ; preds = %case_body356
  br label %join364

join364:                                          ; preds = %join363, %join353, %join327, %join307, %join286, %join213, %join169, %join133, %join107, %join96, %join70, %join45, %join
  ret void
}

; Function Attrs: inlinehint uwtable
define internal void @_ZN3fmt8argument21h11146405105578344569E(%"struct.core::fmt::Argument<[]>[#3]"* noalias nocapture sret dereferenceable(16), %"enum.core::result::Result<[(), core::fmt::FormatError]>[#3]" (%str_slice*, %"struct.core::fmt::Formatter<[]>[#3]"*)*, %str_slice* noalias readonly dereferenceable(16)) unnamed_addr #1 {
entry-block:
  %f = alloca %"enum.core::result::Result<[(), core::fmt::FormatError]>[#3]" (%str_slice*, %"struct.core::fmt::Formatter<[]>[#3]"*)*
  %t = alloca %str_slice*
  store %"enum.core::result::Result<[(), core::fmt::FormatError]>[#3]" (%str_slice*, %"struct.core::fmt::Formatter<[]>[#3]"*)* %1, %"enum.core::result::Result<[(), core::fmt::FormatError]>[#3]" (%str_slice*, %"struct.core::fmt::Formatter<[]>[#3]"*)** %f
  store %str_slice* %2, %str_slice** %t
  %3 = getelementptr inbounds %"struct.core::fmt::Argument<[]>[#3]"* %0, i32 0, i32 0
  %4 = bitcast %"enum.core::result::Result<[(), core::fmt::FormatError]>[#3]" (%"enum.core::fmt::Void<[]>[#3]"*, %"struct.core::fmt::Formatter<[]>[#3]"*)** %3 to %"enum.core::result::Result<[(), core::fmt::FormatError]>[#3]" (%str_slice*, %"struct.core::fmt::Formatter<[]>[#3]"*)**
  %5 = load %"enum.core::result::Result<[(), core::fmt::FormatError]>[#3]" (%str_slice*, %"struct.core::fmt::Formatter<[]>[#3]"*)** %f
  store %"enum.core::result::Result<[(), core::fmt::FormatError]>[#3]" (%str_slice*, %"struct.core::fmt::Formatter<[]>[#3]"*)* %5, %"enum.core::result::Result<[(), core::fmt::FormatError]>[#3]" (%str_slice*, %"struct.core::fmt::Formatter<[]>[#3]"*)** %4
  %6 = getelementptr inbounds %"struct.core::fmt::Argument<[]>[#3]"* %0, i32 0, i32 1
  %7 = bitcast %"enum.core::fmt::Void<[]>[#3]"** %6 to %str_slice**
  %8 = load %str_slice** %t
  store %str_slice* %8, %str_slice** %7
  ret void
}

; Function Attrs: uwtable
define internal %"enum.core::result::Result<[(), core::fmt::FormatError]>[#3]" @_ZN3fmt11secret_show21h10698302665840969787E(%str_slice* noalias nocapture readonly dereferenceable(16), %"struct.core::fmt::Formatter<[]>[#3]"* noalias nocapture dereferenceable(96)) unnamed_addr #0 {
entry-block:
  %x = alloca %str_slice*
  %fmt = alloca %"struct.core::fmt::Formatter<[]>[#3]"*
  store %str_slice* %0, %str_slice** %x
  store %"struct.core::fmt::Formatter<[]>[#3]"* %1, %"struct.core::fmt::Formatter<[]>[#3]"** %fmt
  %2 = load %str_slice** %x
  %3 = load %"struct.core::fmt::Formatter<[]>[#3]"** %fmt
  %4 = call %"enum.core::result::Result<[(), core::fmt::FormatError]>[#3]" @"_ZN3fmt22_$BP$$x27a$x20str.Show3fmt20h496a0a12b2efcc26ZfzE"(%str_slice* noalias readonly dereferenceable(16) %2, %"struct.core::fmt::Formatter<[]>[#3]"* noalias dereferenceable(96) %3)
  ret %"enum.core::result::Result<[(), core::fmt::FormatError]>[#3]" %4
}

declare %"enum.core::result::Result<[(), core::fmt::FormatError]>[#3]" @"_ZN3fmt22_$BP$$x27a$x20str.Show3fmt20h496a0a12b2efcc26ZfzE"(%str_slice* noalias nocapture readonly dereferenceable(16), %"struct.core::fmt::Formatter<[]>[#3]"* noalias nocapture dereferenceable(96)) unnamed_addr #3

; Function Attrs: inlinehint uwtable
define internal void @"_ZN3fmt22Arguments$LT$$x27a$GT$3new20h5a0d288d00618aa4BDyE"(%"struct.core::fmt::Arguments<[]>[#3]"* noalias nocapture sret dereferenceable(48), { %str_slice*, i64 }* noalias nocapture dereferenceable(16), { %"struct.core::fmt::Argument<[]>[#3]"*, i64 }* noalias nocapture dereferenceable(16)) unnamed_addr #1 {
entry-block:
  %3 = getelementptr inbounds %"struct.core::fmt::Arguments<[]>[#3]"* %0, i32 0, i32 0
  %4 = bitcast { %str_slice*, i64 }* %1 to i8*
  %5 = bitcast { %str_slice*, i64 }* %3 to i8*
  call void @llvm.memcpy.p0i8.p0i8.i64(i8* %5, i8* %4, i64 16, i32 8, i1 false)
  %6 = getelementptr inbounds %"struct.core::fmt::Arguments<[]>[#3]"* %0, i32 0, i32 1
  %7 = getelementptr inbounds %"enum.core::option::Option<[&'static [core::fmt::rt::Argument]]>[#3]"* %6, i32 0, i32 0, i32 0
  store %"struct.core::fmt::rt::Argument<[]>[#3]"* null, %"struct.core::fmt::rt::Argument<[]>[#3]"** %7
  %8 = getelementptr inbounds %"struct.core::fmt::Arguments<[]>[#3]"* %0, i32 0, i32 2
  %9 = bitcast { %"struct.core::fmt::Argument<[]>[#3]"*, i64 }* %2 to i8*
  %10 = bitcast { %"struct.core::fmt::Argument<[]>[#3]"*, i64 }* %8 to i8*
  call void @llvm.memcpy.p0i8.p0i8.i64(i8* %10, i8* %9, i64 16, i32 8, i1 false)
  ret void
}

declare void @_ZN2io5stdio10print_args20hae54d0bc97b3553etolE(%"struct.core::fmt::Arguments<[]>[#3]"* noalias nocapture readonly dereferenceable(48)) unnamed_addr #3

; Function Attrs: inlinehint uwtable
define internal void @_ZN3fmt8argument20h2160594484691737759E(%"struct.core::fmt::Argument<[]>[#3]"* noalias nocapture sret dereferenceable(16), %"enum.core::result::Result<[(), core::fmt::FormatError]>[#3]" (%str_slice*, %"struct.core::fmt::Formatter<[]>[#3]"*)*, %str_slice* noalias readonly dereferenceable(16)) unnamed_addr #1 {
entry-block:
  %f = alloca %"enum.core::result::Result<[(), core::fmt::FormatError]>[#3]" (%str_slice*, %"struct.core::fmt::Formatter<[]>[#3]"*)*
  %t = alloca %str_slice*
  store %"enum.core::result::Result<[(), core::fmt::FormatError]>[#3]" (%str_slice*, %"struct.core::fmt::Formatter<[]>[#3]"*)* %1, %"enum.core::result::Result<[(), core::fmt::FormatError]>[#3]" (%str_slice*, %"struct.core::fmt::Formatter<[]>[#3]"*)** %f
  store %str_slice* %2, %str_slice** %t
  %3 = getelementptr inbounds %"struct.core::fmt::Argument<[]>[#3]"* %0, i32 0, i32 0
  %4 = bitcast %"enum.core::result::Result<[(), core::fmt::FormatError]>[#3]" (%"enum.core::fmt::Void<[]>[#3]"*, %"struct.core::fmt::Formatter<[]>[#3]"*)** %3 to %"enum.core::result::Result<[(), core::fmt::FormatError]>[#3]" (%str_slice*, %"struct.core::fmt::Formatter<[]>[#3]"*)**
  %5 = load %"enum.core::result::Result<[(), core::fmt::FormatError]>[#3]" (%str_slice*, %"struct.core::fmt::Formatter<[]>[#3]"*)** %f
  store %"enum.core::result::Result<[(), core::fmt::FormatError]>[#3]" (%str_slice*, %"struct.core::fmt::Formatter<[]>[#3]"*)* %5, %"enum.core::result::Result<[(), core::fmt::FormatError]>[#3]" (%str_slice*, %"struct.core::fmt::Formatter<[]>[#3]"*)** %4
  %6 = getelementptr inbounds %"struct.core::fmt::Argument<[]>[#3]"* %0, i32 0, i32 1
  %7 = bitcast %"enum.core::fmt::Void<[]>[#3]"** %6 to %str_slice**
  %8 = load %str_slice** %t
  store %str_slice* %8, %str_slice** %7
  ret void
}

; Function Attrs: uwtable
define internal %"enum.core::result::Result<[(), core::fmt::FormatError]>[#3]" @_ZN3fmt11secret_show20h1030683905555806300E(%str_slice* noalias nocapture readonly dereferenceable(16), %"struct.core::fmt::Formatter<[]>[#3]"* noalias nocapture dereferenceable(96)) unnamed_addr #0 {
entry-block:
  %x = alloca %str_slice*
  %fmt = alloca %"struct.core::fmt::Formatter<[]>[#3]"*
  store %str_slice* %0, %str_slice** %x
  store %"struct.core::fmt::Formatter<[]>[#3]"* %1, %"struct.core::fmt::Formatter<[]>[#3]"** %fmt
  %2 = load %str_slice** %x
  %3 = load %"struct.core::fmt::Formatter<[]>[#3]"** %fmt
  %4 = call %"enum.core::result::Result<[(), core::fmt::FormatError]>[#3]" @"_ZN3fmt22_$BP$$x27a$x20str.Show3fmt20h496a0a12b2efcc26ZfzE"(%str_slice* noalias readonly dereferenceable(16) %2, %"struct.core::fmt::Formatter<[]>[#3]"* noalias dereferenceable(96) %3)
  ret %"enum.core::result::Result<[(), core::fmt::FormatError]>[#3]" %4
}

; Function Attrs: inlinehint uwtable
define internal void @_ZN3fmt8argument20h9634171305284677523E(%"struct.core::fmt::Argument<[]>[#3]"* noalias nocapture sret dereferenceable(16), %"enum.core::result::Result<[(), core::fmt::FormatError]>[#3]" (i64*, %"struct.core::fmt::Formatter<[]>[#3]"*)*, i64* noalias readonly dereferenceable(8)) unnamed_addr #1 {
entry-block:
  %f = alloca %"enum.core::result::Result<[(), core::fmt::FormatError]>[#3]" (i64*, %"struct.core::fmt::Formatter<[]>[#3]"*)*
  %t = alloca i64*
  store %"enum.core::result::Result<[(), core::fmt::FormatError]>[#3]" (i64*, %"struct.core::fmt::Formatter<[]>[#3]"*)* %1, %"enum.core::result::Result<[(), core::fmt::FormatError]>[#3]" (i64*, %"struct.core::fmt::Formatter<[]>[#3]"*)** %f
  store i64* %2, i64** %t
  %3 = getelementptr inbounds %"struct.core::fmt::Argument<[]>[#3]"* %0, i32 0, i32 0
  %4 = bitcast %"enum.core::result::Result<[(), core::fmt::FormatError]>[#3]" (%"enum.core::fmt::Void<[]>[#3]"*, %"struct.core::fmt::Formatter<[]>[#3]"*)** %3 to %"enum.core::result::Result<[(), core::fmt::FormatError]>[#3]" (i64*, %"struct.core::fmt::Formatter<[]>[#3]"*)**
  %5 = load %"enum.core::result::Result<[(), core::fmt::FormatError]>[#3]" (i64*, %"struct.core::fmt::Formatter<[]>[#3]"*)** %f
  store %"enum.core::result::Result<[(), core::fmt::FormatError]>[#3]" (i64*, %"struct.core::fmt::Formatter<[]>[#3]"*)* %5, %"enum.core::result::Result<[(), core::fmt::FormatError]>[#3]" (i64*, %"struct.core::fmt::Formatter<[]>[#3]"*)** %4
  %6 = getelementptr inbounds %"struct.core::fmt::Argument<[]>[#3]"* %0, i32 0, i32 1
  %7 = bitcast %"enum.core::fmt::Void<[]>[#3]"** %6 to i64**
  %8 = load i64** %t
  store i64* %8, i64** %7
  ret void
}

; Function Attrs: uwtable
define internal %"enum.core::result::Result<[(), core::fmt::FormatError]>[#3]" @_ZN3fmt11secret_show20h1784875980264743306E(i64* noalias nocapture readonly dereferenceable(8), %"struct.core::fmt::Formatter<[]>[#3]"* noalias nocapture dereferenceable(96)) unnamed_addr #0 {
entry-block:
  %x = alloca i64*
  %fmt = alloca %"struct.core::fmt::Formatter<[]>[#3]"*
  store i64* %0, i64** %x
  store %"struct.core::fmt::Formatter<[]>[#3]"* %1, %"struct.core::fmt::Formatter<[]>[#3]"** %fmt
  %2 = load i64** %x
  %3 = load %"struct.core::fmt::Formatter<[]>[#3]"** %fmt
  %4 = call %"enum.core::result::Result<[(), core::fmt::FormatError]>[#3]" @_ZN3fmt3num13int.fmt..Show3fmt20h5e57762aac6a90d0bLxE(i64* noalias readonly dereferenceable(8) %2, %"struct.core::fmt::Formatter<[]>[#3]"* noalias dereferenceable(96) %3)
  ret %"enum.core::result::Result<[(), core::fmt::FormatError]>[#3]" %4
}

declare %"enum.core::result::Result<[(), core::fmt::FormatError]>[#3]" @_ZN3fmt3num13int.fmt..Show3fmt20h5e57762aac6a90d0bLxE(i64* noalias nocapture readonly dereferenceable(8), %"struct.core::fmt::Formatter<[]>[#3]"* noalias nocapture dereferenceable(96)) unnamed_addr #3

declare void @_ZN3fmt6format20ha48bee0345f890a1p7pE(%"struct.collections::string::String<[]>[#6]"* noalias nocapture sret dereferenceable(24), %"struct.core::fmt::Arguments<[]>[#3]"* noalias nocapture readonly dereferenceable(48)) unnamed_addr #3

; Function Attrs: inlinehint uwtable
define internal void @_ZN3fmt8argument20h8477380921845003020E(%"struct.core::fmt::Argument<[]>[#3]"* noalias nocapture sret dereferenceable(16), %"enum.core::result::Result<[(), core::fmt::FormatError]>[#3]" (%"struct.collections::string::String<[]>[#6]"*, %"struct.core::fmt::Formatter<[]>[#3]"*)*, %"struct.collections::string::String<[]>[#6]"* noalias readonly dereferenceable(24)) unnamed_addr #1 {
entry-block:
  %f = alloca %"enum.core::result::Result<[(), core::fmt::FormatError]>[#3]" (%"struct.collections::string::String<[]>[#6]"*, %"struct.core::fmt::Formatter<[]>[#3]"*)*
  %t = alloca %"struct.collections::string::String<[]>[#6]"*
  store %"enum.core::result::Result<[(), core::fmt::FormatError]>[#3]" (%"struct.collections::string::String<[]>[#6]"*, %"struct.core::fmt::Formatter<[]>[#3]"*)* %1, %"enum.core::result::Result<[(), core::fmt::FormatError]>[#3]" (%"struct.collections::string::String<[]>[#6]"*, %"struct.core::fmt::Formatter<[]>[#3]"*)** %f
  store %"struct.collections::string::String<[]>[#6]"* %2, %"struct.collections::string::String<[]>[#6]"** %t
  %3 = getelementptr inbounds %"struct.core::fmt::Argument<[]>[#3]"* %0, i32 0, i32 0
  %4 = bitcast %"enum.core::result::Result<[(), core::fmt::FormatError]>[#3]" (%"enum.core::fmt::Void<[]>[#3]"*, %"struct.core::fmt::Formatter<[]>[#3]"*)** %3 to %"enum.core::result::Result<[(), core::fmt::FormatError]>[#3]" (%"struct.collections::string::String<[]>[#6]"*, %"struct.core::fmt::Formatter<[]>[#3]"*)**
  %5 = load %"enum.core::result::Result<[(), core::fmt::FormatError]>[#3]" (%"struct.collections::string::String<[]>[#6]"*, %"struct.core::fmt::Formatter<[]>[#3]"*)** %f
  store %"enum.core::result::Result<[(), core::fmt::FormatError]>[#3]" (%"struct.collections::string::String<[]>[#6]"*, %"struct.core::fmt::Formatter<[]>[#3]"*)* %5, %"enum.core::result::Result<[(), core::fmt::FormatError]>[#3]" (%"struct.collections::string::String<[]>[#6]"*, %"struct.core::fmt::Formatter<[]>[#3]"*)** %4
  %6 = getelementptr inbounds %"struct.core::fmt::Argument<[]>[#3]"* %0, i32 0, i32 1
  %7 = bitcast %"enum.core::fmt::Void<[]>[#3]"** %6 to %"struct.collections::string::String<[]>[#6]"**
  %8 = load %"struct.collections::string::String<[]>[#6]"** %t
  store %"struct.collections::string::String<[]>[#6]"* %8, %"struct.collections::string::String<[]>[#6]"** %7
  ret void
}

; Function Attrs: uwtable
define internal %"enum.core::result::Result<[(), core::fmt::FormatError]>[#3]" @_ZN3fmt11secret_show21h13016532082515408702E(%"struct.collections::string::String<[]>[#6]"* noalias nocapture readonly dereferenceable(24), %"struct.core::fmt::Formatter<[]>[#3]"* noalias nocapture dereferenceable(96)) unnamed_addr #0 {
entry-block:
  %x = alloca %"struct.collections::string::String<[]>[#6]"*
  %fmt = alloca %"struct.core::fmt::Formatter<[]>[#3]"*
  store %"struct.collections::string::String<[]>[#6]"* %0, %"struct.collections::string::String<[]>[#6]"** %x
  store %"struct.core::fmt::Formatter<[]>[#3]"* %1, %"struct.core::fmt::Formatter<[]>[#3]"** %fmt
  %2 = load %"struct.collections::string::String<[]>[#6]"** %x
  %3 = load %"struct.core::fmt::Formatter<[]>[#3]"** %fmt
  %4 = call %"enum.core::result::Result<[(), core::fmt::FormatError]>[#3]" @_ZN6string16String.fmt..Show3fmt20hd36e5baa63e39fc3najE(%"struct.collections::string::String<[]>[#6]"* noalias readonly dereferenceable(24) %2, %"struct.core::fmt::Formatter<[]>[#3]"* noalias dereferenceable(96) %3)
  ret %"enum.core::result::Result<[(), core::fmt::FormatError]>[#3]" %4
}

declare %"enum.core::result::Result<[(), core::fmt::FormatError]>[#3]" @_ZN6string16String.fmt..Show3fmt20hd36e5baa63e39fc3najE(%"struct.collections::string::String<[]>[#6]"* noalias nocapture readonly dereferenceable(24), %"struct.core::fmt::Formatter<[]>[#3]"* noalias nocapture dereferenceable(96)) unnamed_addr #3

define internal void @_ZN27collections..string..String14glue_drop.262917h03add16664af39b7E(%"struct.collections::string::String<[]>[#6]"*) unnamed_addr #3 {
entry-block:
  %1 = getelementptr inbounds %"struct.collections::string::String<[]>[#6]"* %0, i32 0, i32 0
  call void @"_ZN31collections..vec..Vec$LT$u8$GT$14glue_drop.263217h38d5c5b43b3aa429E"(%"struct.collections::vec::Vec<[u8]>[#6]"* %1)
  ret void
}

define internal void @"_ZN31collections..vec..Vec$LT$u8$GT$14glue_drop.263217h38d5c5b43b3aa429E"(%"struct.collections::vec::Vec<[u8]>[#6]"*) unnamed_addr #3 {
entry-block:
  %1 = getelementptr inbounds %"struct.collections::vec::Vec<[u8]>[#6]"* %0, i32 0, i32 2
  %2 = getelementptr inbounds %"struct.collections::vec::Vec<[u8]>[#6]"* %0, i32 0, i32 1
  %3 = getelementptr inbounds %"struct.collections::vec::Vec<[u8]>[#6]"* %0, i32 0, i32 0
  call void @"_ZN3vec17Vec$LT$T$GT$.Drop4drop20h9389711949281082675E"(%"struct.collections::vec::Vec<[u8]>[#6]"* noalias nocapture dereferenceable(24) %0)
  ret void
}

; Function Attrs: uwtable
define internal void @"_ZN3vec17Vec$LT$T$GT$.Drop4drop20h9389711949281082675E"(%"struct.collections::vec::Vec<[u8]>[#6]"* noalias nocapture dereferenceable(24)) unnamed_addr #0 {
entry-block:
  %src.i = alloca i8*
  %tmp.i = alloca i8
  %auto_deref.i = alloca i8*
  %self = alloca %"struct.collections::vec::Vec<[u8]>[#6]"*
  %1 = alloca %"struct.core::slice::Items<[u8]>[#3]"
  %2 = alloca { i8*, i64 }
  %for_head = alloca %"struct.core::slice::Items<[u8]>[#3]"*
  %loop_option = alloca i8*
  store %"struct.collections::vec::Vec<[u8]>[#6]"* %0, %"struct.collections::vec::Vec<[u8]>[#6]"** %self
  %3 = load %"struct.collections::vec::Vec<[u8]>[#6]"** %self
  %4 = getelementptr inbounds %"struct.collections::vec::Vec<[u8]>[#6]"* %3, i32 0, i32 1
  %5 = load i64* %4
  %6 = icmp ne i64 %5, 0
  br i1 %6, label %then-block-4457-, label %next-block

then-block-4457-:                                 ; preds = %entry-block
  %7 = load %"struct.collections::vec::Vec<[u8]>[#6]"** %self
  call void @"_ZN3vec12Vec$LT$T$GT$12as_mut_slice20h4506587281822051905E"({ i8*, i64 }* noalias nocapture sret dereferenceable(16) %2, %"struct.collections::vec::Vec<[u8]>[#6]"* noalias dereferenceable(24) %7)
  call void @"_ZN5slice59_$BP$$x27a$x20$x5bT$x5d.ImmutableSlice$LT$$x27a$C$$x20T$GT$4iter20h3037421030060702143E"(%"struct.core::slice::Items<[u8]>[#3]"* noalias nocapture sret dereferenceable(16) %1, { i8*, i64 }* noalias nocapture dereferenceable(16) %2)
  store %"struct.core::slice::Items<[u8]>[#3]"* %1, %"struct.core::slice::Items<[u8]>[#3]"** %for_head
  %8 = load %"struct.core::slice::Items<[u8]>[#3]"** %for_head
  br label %for_loopback

for_exit:                                         ; preds = %for_loopback
  %9 = load %"struct.collections::vec::Vec<[u8]>[#6]"** %self
  %10 = getelementptr inbounds %"struct.collections::vec::Vec<[u8]>[#6]"* %9, i32 0, i32 2
  %11 = load i8** %10
  %12 = load %"struct.collections::vec::Vec<[u8]>[#6]"** %self
  %13 = getelementptr inbounds %"struct.collections::vec::Vec<[u8]>[#6]"* %12, i32 0, i32 1
  %14 = load i64* %13
  call void @_ZN3vec7dealloc20h1503498992985953531E(i8* %11, i64 %14)
  br label %next-block

for_loopback:                                     ; preds = %for_body, %then-block-4457-
  %15 = call i8* @"_ZN5slice57Items$LT$$x27a$C$$x20T$GT$.Iterator$LT$$BP$$x27a$x20T$GT$4next21h15962974237614240843E"(%"struct.core::slice::Items<[u8]>[#3]"* noalias dereferenceable(16) %8)
  store i8* %15, i8** %loop_option
  %16 = load i8** %loop_option
  %17 = icmp ne i8* %16, null
  br i1 %17, label %for_body, label %for_exit

for_body:                                         ; preds = %for_loopback
  %18 = load i8** %loop_option
  store i8* %18, i8** %src.i
  %19 = call i8 @_ZN3mem13uninitialized21h14495949178027149800E()
  store i8 %19, i8* %tmp.i
  store i8* %tmp.i, i8** %auto_deref.i
  %20 = load i8** %auto_deref.i
  %21 = load i8** %src.i
  call void @llvm.memcpy.p0i8.p0i8.i64(i8* %20, i8* %21, i64 1, i32 1, i1 false)
  %22 = load i8* %tmp.i
  br label %for_loopback

next-block:                                       ; preds = %entry-block, %for_exit
  ret void
}

; Function Attrs: inlinehint uwtable
define internal void @"_ZN5slice59_$BP$$x27a$x20$x5bT$x5d.ImmutableSlice$LT$$x27a$C$$x20T$GT$4iter20h3037421030060702143E"(%"struct.core::slice::Items<[u8]>[#3]"* noalias nocapture sret dereferenceable(16), { i8*, i64 }* noalias nocapture dereferenceable(16)) unnamed_addr #1 {
entry-block:
  %p = alloca i8*
  %2 = alloca i64
  %3 = alloca i64
  %4 = alloca i64
  %5 = call i8* @"_ZN5slice59_$BP$$x27a$x20$x5bT$x5d.ImmutableSlice$LT$$x27a$C$$x20T$GT$6as_ptr21h11151939269217140914E"({ i8*, i64 }* noalias readonly dereferenceable(16) %1)
  store i8* %5, i8** %p
  %6 = call i64 @_ZN3mem7size_of21h15172530881187693429E()
  store i64 %6, i64* %2
  %7 = load i64* %2
  %8 = icmp eq i64 %7, 0
  br i1 %8, label %then-block-4504-, label %else-block

then-block-4504-:                                 ; preds = %entry-block
  %9 = getelementptr inbounds %"struct.core::slice::Items<[u8]>[#3]"* %0, i32 0, i32 0
  %10 = load i8** %p
  store i8* %10, i8** %9
  %11 = getelementptr inbounds %"struct.core::slice::Items<[u8]>[#3]"* %0, i32 0, i32 1
  %12 = load i8** %p
  %13 = ptrtoint i8* %12 to i64
  %14 = call i64 @"_ZN5slice34_$BP$$x27a$x20$x5bT$x5d.Collection3len21h11710005186560328175E"({ i8*, i64 }* noalias readonly dereferenceable(16) %1)
  store i64 %14, i64* %3
  %15 = load i64* %3
  %16 = add i64 %13, %15
  %17 = inttoptr i64 %16 to i8*
  store i8* %17, i8** %11
  %18 = getelementptr inbounds %"struct.core::slice::Items<[u8]>[#3]"* %0, i32 0, i32 2
  br label %join

else-block:                                       ; preds = %entry-block
  %19 = getelementptr inbounds %"struct.core::slice::Items<[u8]>[#3]"* %0, i32 0, i32 0
  %20 = load i8** %p
  store i8* %20, i8** %19
  %21 = getelementptr inbounds %"struct.core::slice::Items<[u8]>[#3]"* %0, i32 0, i32 1
  %22 = load i8** %p
  %23 = call i64 @"_ZN5slice34_$BP$$x27a$x20$x5bT$x5d.Collection3len21h11710005186560328175E"({ i8*, i64 }* noalias readonly dereferenceable(16) %1)
  store i64 %23, i64* %4
  %24 = load i64* %4
  %25 = call i8* @"_ZN3ptr31_$RP$const$x20T.RawPtr$LT$T$GT$6offset19h515349624953780873E"(i8* %22, i64 %24)
  store i8* %25, i8** %21
  %26 = getelementptr inbounds %"struct.core::slice::Items<[u8]>[#3]"* %0, i32 0, i32 2
  br label %join

join:                                             ; preds = %else-block, %then-block-4504-
  ret void
}

; Function Attrs: inlinehint uwtable
define internal i8* @"_ZN5slice59_$BP$$x27a$x20$x5bT$x5d.ImmutableSlice$LT$$x27a$C$$x20T$GT$6as_ptr21h11151939269217140914E"({ i8*, i64 }* noalias nocapture readonly dereferenceable(16)) unnamed_addr #1 {
entry-block:
  %self = alloca { i8*, i64 }*
  %1 = alloca %"struct.core::raw::Slice<[u8]>[#3]"
  store { i8*, i64 }* %0, { i8*, i64 }** %self
  %2 = load { i8*, i64 }** %self
  call void @_ZN3raw4Repr4repr21h16302393600104810143E(%"struct.core::raw::Slice<[u8]>[#3]"* noalias nocapture sret dereferenceable(16) %1, { i8*, i64 }* noalias readonly dereferenceable(16) %2)
  %3 = getelementptr inbounds %"struct.core::raw::Slice<[u8]>[#3]"* %1, i32 0, i32 0
  %4 = load i8** %3
  ret i8* %4
}

; Function Attrs: inlinehint uwtable
define internal void @_ZN3raw4Repr4repr21h16302393600104810143E(%"struct.core::raw::Slice<[u8]>[#3]"* noalias nocapture sret dereferenceable(16), { i8*, i64 }* noalias nocapture readonly dereferenceable(16)) unnamed_addr #1 {
entry-block:
  %self = alloca { i8*, i64 }*
  store { i8*, i64 }* %1, { i8*, i64 }** %self
  %2 = load { i8*, i64 }** %self
  call void @_ZN3mem14transmute_copy20h1472575780412317197E(%"struct.core::raw::Slice<[u8]>[#3]"* noalias nocapture sret dereferenceable(16) %0, { i8*, i64 }* noalias nocapture readonly dereferenceable(16) %2)
  ret void
}

; Function Attrs: inlinehint uwtable
define internal void @_ZN3mem14transmute_copy20h1472575780412317197E(%"struct.core::raw::Slice<[u8]>[#3]"* noalias nocapture sret dereferenceable(16), { i8*, i64 }* noalias nocapture readonly dereferenceable(16)) unnamed_addr #1 {
entry-block:
  %src.i = alloca %"struct.core::raw::Slice<[u8]>[#3]"*
  %tmp.i = alloca %"struct.core::raw::Slice<[u8]>[#3]"
  %auto_deref.i = alloca %"struct.core::raw::Slice<[u8]>[#3]"*
  %src = alloca { i8*, i64 }*
  store { i8*, i64 }* %1, { i8*, i64 }** %src
  %2 = load { i8*, i64 }** %src
  %3 = bitcast { i8*, i64 }* %2 to %"struct.core::raw::Slice<[u8]>[#3]"*
  store %"struct.core::raw::Slice<[u8]>[#3]"* %3, %"struct.core::raw::Slice<[u8]>[#3]"** %src.i, !noalias !2
  call void @_ZN3mem13uninitialized21h15224781198086017270E(%"struct.core::raw::Slice<[u8]>[#3]"* noalias nocapture sret dereferenceable(16) %tmp.i), !noalias !2
  store %"struct.core::raw::Slice<[u8]>[#3]"* %tmp.i, %"struct.core::raw::Slice<[u8]>[#3]"** %auto_deref.i, !noalias !2
  %4 = load %"struct.core::raw::Slice<[u8]>[#3]"** %auto_deref.i, !noalias !2
  %5 = load %"struct.core::raw::Slice<[u8]>[#3]"** %src.i, !noalias !2
  %6 = bitcast %"struct.core::raw::Slice<[u8]>[#3]"* %4 to i8*
  %7 = bitcast %"struct.core::raw::Slice<[u8]>[#3]"* %5 to i8*
  call void @llvm.memcpy.p0i8.p0i8.i64(i8* %6, i8* %7, i64 16, i32 8, i1 false), !noalias !2
  %8 = bitcast %"struct.core::raw::Slice<[u8]>[#3]"* %tmp.i to i8*
  %9 = bitcast %"struct.core::raw::Slice<[u8]>[#3]"* %0 to i8*
  call void @llvm.memcpy.p0i8.p0i8.i64(i8* %9, i8* %8, i64 16, i32 8, i1 false)
  ret void
}

; Function Attrs: inlinehint uwtable
define internal void @_ZN3mem13uninitialized21h15224781198086017270E(%"struct.core::raw::Slice<[u8]>[#3]"* noalias nocapture sret dereferenceable(16)) unnamed_addr #1 {
entry-block:
  ret void
}

; Function Attrs: inlinehint uwtable
define internal i64 @_ZN3mem7size_of21h15172530881187693429E() unnamed_addr #1 {
entry-block:
  ret i64 1
}

; Function Attrs: inlinehint uwtable
define internal i64 @"_ZN5slice34_$BP$$x27a$x20$x5bT$x5d.Collection3len21h11710005186560328175E"({ i8*, i64 }* noalias nocapture readonly dereferenceable(16)) unnamed_addr #1 {
entry-block:
  %self = alloca { i8*, i64 }*
  %1 = alloca %"struct.core::raw::Slice<[u8]>[#3]"
  store { i8*, i64 }* %0, { i8*, i64 }** %self
  %2 = load { i8*, i64 }** %self
  call void @_ZN3raw4Repr4repr21h16302393600104810143E(%"struct.core::raw::Slice<[u8]>[#3]"* noalias nocapture sret dereferenceable(16) %1, { i8*, i64 }* noalias readonly dereferenceable(16) %2)
  %3 = getelementptr inbounds %"struct.core::raw::Slice<[u8]>[#3]"* %1, i32 0, i32 1
  %4 = load i64* %3
  ret i64 %4
}

; Function Attrs: inlinehint uwtable
define internal i8* @"_ZN3ptr31_$RP$const$x20T.RawPtr$LT$T$GT$6offset19h515349624953780873E"(i8*, i64) unnamed_addr #1 {
entry-block:
  %self = alloca i8*
  %count = alloca i64
  store i8* %0, i8** %self
  store i64 %1, i64* %count
  %2 = load i8** %self
  %3 = load i64* %count
  %4 = getelementptr inbounds i8* %2, i64 %3
  ret i8* %4
}

; Function Attrs: inlinehint uwtable
define internal void @"_ZN3vec12Vec$LT$T$GT$12as_mut_slice20h4506587281822051905E"({ i8*, i64 }* noalias nocapture sret dereferenceable(16), %"struct.collections::vec::Vec<[u8]>[#6]"* noalias dereferenceable(24)) unnamed_addr #1 {
entry-block:
  %self = alloca %"struct.collections::vec::Vec<[u8]>[#6]"*
  %2 = alloca { i8*, i64 }
  %3 = alloca i8*
  store %"struct.collections::vec::Vec<[u8]>[#6]"* %1, %"struct.collections::vec::Vec<[u8]>[#6]"** %self
  %4 = bitcast { i8*, i64 }* %2 to %"struct.core::raw::Slice<[u8]>[#3]"*
  %5 = getelementptr inbounds %"struct.core::raw::Slice<[u8]>[#3]"* %4, i32 0, i32 0
  %6 = load %"struct.collections::vec::Vec<[u8]>[#6]"** %self
  %7 = call i8* @"_ZN3vec12Vec$LT$T$GT$10as_mut_ptr20h8474282559668716883E"(%"struct.collections::vec::Vec<[u8]>[#6]"* noalias dereferenceable(24) %6)
  store i8* %7, i8** %3
  %8 = load i8** %3
  store i8* %8, i8** %5
  %9 = getelementptr inbounds %"struct.core::raw::Slice<[u8]>[#3]"* %4, i32 0, i32 1
  %10 = load %"struct.collections::vec::Vec<[u8]>[#6]"** %self
  %11 = getelementptr inbounds %"struct.collections::vec::Vec<[u8]>[#6]"* %10, i32 0, i32 0
  %12 = load i64* %11
  store i64 %12, i64* %9
  %13 = bitcast { i8*, i64 }* %2 to i8*
  %14 = bitcast { i8*, i64 }* %0 to i8*
  call void @llvm.memcpy.p0i8.p0i8.i64(i8* %14, i8* %13, i64 16, i32 8, i1 false)
  ret void
}

; Function Attrs: inlinehint uwtable
define internal i8* @"_ZN3vec12Vec$LT$T$GT$10as_mut_ptr20h8474282559668716883E"(%"struct.collections::vec::Vec<[u8]>[#6]"* noalias nocapture dereferenceable(24)) unnamed_addr #1 {
entry-block:
  %self = alloca %"struct.collections::vec::Vec<[u8]>[#6]"*
  store %"struct.collections::vec::Vec<[u8]>[#6]"* %0, %"struct.collections::vec::Vec<[u8]>[#6]"** %self
  %1 = load %"struct.collections::vec::Vec<[u8]>[#6]"** %self
  %2 = getelementptr inbounds %"struct.collections::vec::Vec<[u8]>[#6]"* %1, i32 0, i32 2
  %3 = load i8** %2
  ret i8* %3
}

; Function Attrs: inlinehint uwtable
define internal i8* @"_ZN5slice57Items$LT$$x27a$C$$x20T$GT$.Iterator$LT$$BP$$x27a$x20T$GT$4next21h15962974237614240843E"(%"struct.core::slice::Items<[u8]>[#3]"* noalias nocapture dereferenceable(16)) unnamed_addr #1 {
entry-block:
  %sret_slot = alloca i8*
  %self = alloca %"struct.core::slice::Items<[u8]>[#3]"*
  %1 = alloca i64
  %old = alloca i8*
  store %"struct.core::slice::Items<[u8]>[#3]"* %0, %"struct.core::slice::Items<[u8]>[#3]"** %self
  %2 = load %"struct.core::slice::Items<[u8]>[#3]"** %self
  %3 = getelementptr inbounds %"struct.core::slice::Items<[u8]>[#3]"* %2, i32 0, i32 0
  %4 = load %"struct.core::slice::Items<[u8]>[#3]"** %self
  %5 = getelementptr inbounds %"struct.core::slice::Items<[u8]>[#3]"* %4, i32 0, i32 1
  %6 = load i8** %3
  %7 = load i8** %5
  %8 = icmp eq i8* %6, %7
  br i1 %8, label %then-block-4734-, label %else-block

then-block-4734-:                                 ; preds = %entry-block
  store i8* null, i8** %sret_slot
  br label %join2

else-block:                                       ; preds = %entry-block
  %9 = call i64 @_ZN3mem7size_of21h15172530881187693429E()
  store i64 %9, i64* %1
  %10 = load i64* %1
  %11 = icmp eq i64 %10, 0
  br i1 %11, label %then-block-4745-, label %else-block1

then-block-4745-:                                 ; preds = %else-block
  %12 = load %"struct.core::slice::Items<[u8]>[#3]"** %self
  %13 = getelementptr inbounds %"struct.core::slice::Items<[u8]>[#3]"* %12, i32 0, i32 0
  %14 = bitcast i8** %13 to i64*
  %15 = load %"struct.core::slice::Items<[u8]>[#3]"** %self
  %16 = getelementptr inbounds %"struct.core::slice::Items<[u8]>[#3]"* %15, i32 0, i32 0
  %17 = load i8** %16
  %18 = ptrtoint i8* %17 to i64
  %19 = add i64 %18, 1
  store i64 %19, i64* %14
  %20 = bitcast i8** %sret_slot to i64*
  store i64 1, i64* %20
  br label %join

else-block1:                                      ; preds = %else-block
  %21 = load %"struct.core::slice::Items<[u8]>[#3]"** %self
  %22 = getelementptr inbounds %"struct.core::slice::Items<[u8]>[#3]"* %21, i32 0, i32 0
  %23 = load i8** %22
  store i8* %23, i8** %old
  %24 = load %"struct.core::slice::Items<[u8]>[#3]"** %self
  %25 = getelementptr inbounds %"struct.core::slice::Items<[u8]>[#3]"* %24, i32 0, i32 0
  %26 = load %"struct.core::slice::Items<[u8]>[#3]"** %self
  %27 = getelementptr inbounds %"struct.core::slice::Items<[u8]>[#3]"* %26, i32 0, i32 0
  %28 = load i8** %27
  %29 = call i8* @"_ZN3ptr31_$RP$const$x20T.RawPtr$LT$T$GT$6offset19h515349624953780873E"(i8* %28, i64 1)
  store i8* %29, i8** %25
  %30 = load i8** %old
  store i8* %30, i8** %sret_slot
  br label %join

join:                                             ; preds = %else-block1, %then-block-4745-
  br label %join2

join2:                                            ; preds = %join, %then-block-4734-
  %31 = load i8** %sret_slot
  ret i8* %31
}

; Function Attrs: inlinehint uwtable
define internal i8 @_ZN3mem13uninitialized21h14495949178027149800E() unnamed_addr #1 {
entry-block:
  %sret_slot = alloca i8
  %0 = load i8* %sret_slot
  ret i8 %0
}

; Function Attrs: inlinehint uwtable
define internal void @_ZN3vec7dealloc20h1503498992985953531E(i8*, i64) unnamed_addr #1 {
entry-block:
  %ptr = alloca i8*
  %len = alloca i64
  %2 = alloca i64
  %3 = alloca i64
  %4 = alloca i64
  store i8* %0, i8** %ptr
  store i64 %1, i64* %len
  %5 = call i64 @_ZN3mem7size_of21h15172530881187693429E()
  store i64 %5, i64* %2
  %6 = load i64* %2
  %7 = icmp ne i64 %6, 0
  br i1 %7, label %then-block-4807-, label %next-block

then-block-4807-:                                 ; preds = %entry-block
  %8 = load i8** %ptr
  %9 = call i64 @_ZN3mem7size_of21h15172530881187693429E()
  store i64 %9, i64* %3
  %10 = load i64* %3
  %11 = load i64* %len
  %12 = mul i64 %11, %10
  %13 = call i64 @_ZN3mem12min_align_of21h11112657240649878198E()
  store i64 %13, i64* %4
  %14 = load i64* %4
  call void @_ZN4heap10deallocate20h1ec8a30835e4a6f4sbaE(i8* %8, i64 %12, i64 %14)
  br label %next-block

next-block:                                       ; preds = %entry-block, %then-block-4807-
  ret void
}

; Function Attrs: inlinehint uwtable
define internal i64 @_ZN3mem12min_align_of21h11112657240649878198E() unnamed_addr #1 {
entry-block:
  ret i64 1
}

; Function Attrs: inlinehint uwtable
define internal void @_ZN3fmt8argument21h15637821436350298698E(%"struct.core::fmt::Argument<[]>[#3]"* noalias nocapture sret dereferenceable(16), %"enum.core::result::Result<[(), core::fmt::FormatError]>[#3]" (double*, %"struct.core::fmt::Formatter<[]>[#3]"*)*, double* noalias readonly dereferenceable(8)) unnamed_addr #1 {
entry-block:
  %f = alloca %"enum.core::result::Result<[(), core::fmt::FormatError]>[#3]" (double*, %"struct.core::fmt::Formatter<[]>[#3]"*)*
  %t = alloca double*
  store %"enum.core::result::Result<[(), core::fmt::FormatError]>[#3]" (double*, %"struct.core::fmt::Formatter<[]>[#3]"*)* %1, %"enum.core::result::Result<[(), core::fmt::FormatError]>[#3]" (double*, %"struct.core::fmt::Formatter<[]>[#3]"*)** %f
  store double* %2, double** %t
  %3 = getelementptr inbounds %"struct.core::fmt::Argument<[]>[#3]"* %0, i32 0, i32 0
  %4 = bitcast %"enum.core::result::Result<[(), core::fmt::FormatError]>[#3]" (%"enum.core::fmt::Void<[]>[#3]"*, %"struct.core::fmt::Formatter<[]>[#3]"*)** %3 to %"enum.core::result::Result<[(), core::fmt::FormatError]>[#3]" (double*, %"struct.core::fmt::Formatter<[]>[#3]"*)**
  %5 = load %"enum.core::result::Result<[(), core::fmt::FormatError]>[#3]" (double*, %"struct.core::fmt::Formatter<[]>[#3]"*)** %f
  store %"enum.core::result::Result<[(), core::fmt::FormatError]>[#3]" (double*, %"struct.core::fmt::Formatter<[]>[#3]"*)* %5, %"enum.core::result::Result<[(), core::fmt::FormatError]>[#3]" (double*, %"struct.core::fmt::Formatter<[]>[#3]"*)** %4
  %6 = getelementptr inbounds %"struct.core::fmt::Argument<[]>[#3]"* %0, i32 0, i32 1
  %7 = bitcast %"enum.core::fmt::Void<[]>[#3]"** %6 to double**
  %8 = load double** %t
  store double* %8, double** %7
  ret void
}

; Function Attrs: uwtable
define internal %"enum.core::result::Result<[(), core::fmt::FormatError]>[#3]" @_ZN3fmt11secret_show21h11688613911888066394E(double* noalias nocapture readonly dereferenceable(8), %"struct.core::fmt::Formatter<[]>[#3]"* noalias nocapture dereferenceable(96)) unnamed_addr #0 {
entry-block:
  %x = alloca double*
  %fmt = alloca %"struct.core::fmt::Formatter<[]>[#3]"*
  store double* %0, double** %x
  store %"struct.core::fmt::Formatter<[]>[#3]"* %1, %"struct.core::fmt::Formatter<[]>[#3]"** %fmt
  %2 = load double** %x
  %3 = load %"struct.core::fmt::Formatter<[]>[#3]"** %fmt
  %4 = call %"enum.core::result::Result<[(), core::fmt::FormatError]>[#3]" @_ZN3fmt8f64.Show3fmt20h030aca2d28e5d825zhzE(double* noalias readonly dereferenceable(8) %2, %"struct.core::fmt::Formatter<[]>[#3]"* noalias dereferenceable(96) %3)
  ret %"enum.core::result::Result<[(), core::fmt::FormatError]>[#3]" %4
}

declare %"enum.core::result::Result<[(), core::fmt::FormatError]>[#3]" @_ZN3fmt8f64.Show3fmt20h030aca2d28e5d825zhzE(double* noalias nocapture readonly dereferenceable(8), %"struct.core::fmt::Formatter<[]>[#3]"* noalias nocapture dereferenceable(96)) unnamed_addr #3

; Function Attrs: inlinehint uwtable
define internal void @_ZN3fmt8argument21h18110617273399293942E(%"struct.core::fmt::Argument<[]>[#3]"* noalias nocapture sret dereferenceable(16), %"enum.core::result::Result<[(), core::fmt::FormatError]>[#3]" (%"struct.collections::string::String<[]>[#6]"**, %"struct.core::fmt::Formatter<[]>[#3]"*)*, %"struct.collections::string::String<[]>[#6]"** noalias readonly dereferenceable(8)) unnamed_addr #1 {
entry-block:
  %f = alloca %"enum.core::result::Result<[(), core::fmt::FormatError]>[#3]" (%"struct.collections::string::String<[]>[#6]"**, %"struct.core::fmt::Formatter<[]>[#3]"*)*
  %t = alloca %"struct.collections::string::String<[]>[#6]"**
  store %"enum.core::result::Result<[(), core::fmt::FormatError]>[#3]" (%"struct.collections::string::String<[]>[#6]"**, %"struct.core::fmt::Formatter<[]>[#3]"*)* %1, %"enum.core::result::Result<[(), core::fmt::FormatError]>[#3]" (%"struct.collections::string::String<[]>[#6]"**, %"struct.core::fmt::Formatter<[]>[#3]"*)** %f
  store %"struct.collections::string::String<[]>[#6]"** %2, %"struct.collections::string::String<[]>[#6]"*** %t
  %3 = getelementptr inbounds %"struct.core::fmt::Argument<[]>[#3]"* %0, i32 0, i32 0
  %4 = bitcast %"enum.core::result::Result<[(), core::fmt::FormatError]>[#3]" (%"enum.core::fmt::Void<[]>[#3]"*, %"struct.core::fmt::Formatter<[]>[#3]"*)** %3 to %"enum.core::result::Result<[(), core::fmt::FormatError]>[#3]" (%"struct.collections::string::String<[]>[#6]"**, %"struct.core::fmt::Formatter<[]>[#3]"*)**
  %5 = load %"enum.core::result::Result<[(), core::fmt::FormatError]>[#3]" (%"struct.collections::string::String<[]>[#6]"**, %"struct.core::fmt::Formatter<[]>[#3]"*)** %f
  store %"enum.core::result::Result<[(), core::fmt::FormatError]>[#3]" (%"struct.collections::string::String<[]>[#6]"**, %"struct.core::fmt::Formatter<[]>[#3]"*)* %5, %"enum.core::result::Result<[(), core::fmt::FormatError]>[#3]" (%"struct.collections::string::String<[]>[#6]"**, %"struct.core::fmt::Formatter<[]>[#3]"*)** %4
  %6 = getelementptr inbounds %"struct.core::fmt::Argument<[]>[#3]"* %0, i32 0, i32 1
  %7 = bitcast %"enum.core::fmt::Void<[]>[#3]"** %6 to %"struct.collections::string::String<[]>[#6]"***
  %8 = load %"struct.collections::string::String<[]>[#6]"*** %t
  store %"struct.collections::string::String<[]>[#6]"** %8, %"struct.collections::string::String<[]>[#6]"*** %7
  ret void
}

; Function Attrs: uwtable
define internal %"enum.core::result::Result<[(), core::fmt::FormatError]>[#3]" @_ZN3fmt11secret_show20h5677928670060582767E(%"struct.collections::string::String<[]>[#6]"** noalias nocapture readonly dereferenceable(8), %"struct.core::fmt::Formatter<[]>[#3]"* noalias nocapture dereferenceable(96)) unnamed_addr #0 {
entry-block:
  %x = alloca %"struct.collections::string::String<[]>[#6]"**
  %fmt = alloca %"struct.core::fmt::Formatter<[]>[#3]"*
  store %"struct.collections::string::String<[]>[#6]"** %0, %"struct.collections::string::String<[]>[#6]"*** %x
  store %"struct.core::fmt::Formatter<[]>[#3]"* %1, %"struct.core::fmt::Formatter<[]>[#3]"** %fmt
  %2 = load %"struct.collections::string::String<[]>[#6]"*** %x
  %3 = load %"struct.core::fmt::Formatter<[]>[#3]"** %fmt
  %4 = call %"enum.core::result::Result<[(), core::fmt::FormatError]>[#3]" @"_ZN3fmt20_$BP$$x27a$x20T.Show3fmt20h2841123418855942898E"(%"struct.collections::string::String<[]>[#6]"** noalias readonly dereferenceable(8) %2, %"struct.core::fmt::Formatter<[]>[#3]"* noalias dereferenceable(96) %3)
  ret %"enum.core::result::Result<[(), core::fmt::FormatError]>[#3]" %4
}

; Function Attrs: uwtable
define internal %"enum.core::result::Result<[(), core::fmt::FormatError]>[#3]" @"_ZN3fmt20_$BP$$x27a$x20T.Show3fmt20h2841123418855942898E"(%"struct.collections::string::String<[]>[#6]"** noalias nocapture readonly dereferenceable(8), %"struct.core::fmt::Formatter<[]>[#3]"* noalias nocapture dereferenceable(96)) unnamed_addr #0 {
entry-block:
  %self = alloca %"struct.collections::string::String<[]>[#6]"**
  %f = alloca %"struct.core::fmt::Formatter<[]>[#3]"*
  store %"struct.collections::string::String<[]>[#6]"** %0, %"struct.collections::string::String<[]>[#6]"*** %self
  store %"struct.core::fmt::Formatter<[]>[#3]"* %1, %"struct.core::fmt::Formatter<[]>[#3]"** %f
  %2 = load %"struct.collections::string::String<[]>[#6]"*** %self
  %3 = load %"struct.collections::string::String<[]>[#6]"** %2
  %4 = load %"struct.core::fmt::Formatter<[]>[#3]"** %f
  %5 = call %"enum.core::result::Result<[(), core::fmt::FormatError]>[#3]" @_ZN3fmt11secret_show21h13016532082515408702E(%"struct.collections::string::String<[]>[#6]"* noalias nocapture readonly dereferenceable(24) %3, %"struct.core::fmt::Formatter<[]>[#3]"* noalias nocapture dereferenceable(96) %4)
  ret %"enum.core::result::Result<[(), core::fmt::FormatError]>[#3]" %5
}

; Function Attrs: inlinehint uwtable
define internal void @_ZN3fmt8argument20h6162686969560664382E(%"struct.core::fmt::Argument<[]>[#3]"* noalias nocapture sret dereferenceable(16), %"enum.core::result::Result<[(), core::fmt::FormatError]>[#3]" (%"enum.regex::re::Regex<[]>[#10]"**, %"struct.core::fmt::Formatter<[]>[#3]"*)*, %"enum.regex::re::Regex<[]>[#10]"** noalias readonly dereferenceable(8)) unnamed_addr #1 {
entry-block:
  %f = alloca %"enum.core::result::Result<[(), core::fmt::FormatError]>[#3]" (%"enum.regex::re::Regex<[]>[#10]"**, %"struct.core::fmt::Formatter<[]>[#3]"*)*
  %t = alloca %"enum.regex::re::Regex<[]>[#10]"**
  store %"enum.core::result::Result<[(), core::fmt::FormatError]>[#3]" (%"enum.regex::re::Regex<[]>[#10]"**, %"struct.core::fmt::Formatter<[]>[#3]"*)* %1, %"enum.core::result::Result<[(), core::fmt::FormatError]>[#3]" (%"enum.regex::re::Regex<[]>[#10]"**, %"struct.core::fmt::Formatter<[]>[#3]"*)** %f
  store %"enum.regex::re::Regex<[]>[#10]"** %2, %"enum.regex::re::Regex<[]>[#10]"*** %t
  %3 = getelementptr inbounds %"struct.core::fmt::Argument<[]>[#3]"* %0, i32 0, i32 0
  %4 = bitcast %"enum.core::result::Result<[(), core::fmt::FormatError]>[#3]" (%"enum.core::fmt::Void<[]>[#3]"*, %"struct.core::fmt::Formatter<[]>[#3]"*)** %3 to %"enum.core::result::Result<[(), core::fmt::FormatError]>[#3]" (%"enum.regex::re::Regex<[]>[#10]"**, %"struct.core::fmt::Formatter<[]>[#3]"*)**
  %5 = load %"enum.core::result::Result<[(), core::fmt::FormatError]>[#3]" (%"enum.regex::re::Regex<[]>[#10]"**, %"struct.core::fmt::Formatter<[]>[#3]"*)** %f
  store %"enum.core::result::Result<[(), core::fmt::FormatError]>[#3]" (%"enum.regex::re::Regex<[]>[#10]"**, %"struct.core::fmt::Formatter<[]>[#3]"*)* %5, %"enum.core::result::Result<[(), core::fmt::FormatError]>[#3]" (%"enum.regex::re::Regex<[]>[#10]"**, %"struct.core::fmt::Formatter<[]>[#3]"*)** %4
  %6 = getelementptr inbounds %"struct.core::fmt::Argument<[]>[#3]"* %0, i32 0, i32 1
  %7 = bitcast %"enum.core::fmt::Void<[]>[#3]"** %6 to %"enum.regex::re::Regex<[]>[#10]"***
  %8 = load %"enum.regex::re::Regex<[]>[#10]"*** %t
  store %"enum.regex::re::Regex<[]>[#10]"** %8, %"enum.regex::re::Regex<[]>[#10]"*** %7
  ret void
}

; Function Attrs: uwtable
define internal %"enum.core::result::Result<[(), core::fmt::FormatError]>[#3]" @_ZN3fmt11secret_show21h15747951399913969676E(%"enum.regex::re::Regex<[]>[#10]"** noalias nocapture readonly dereferenceable(8), %"struct.core::fmt::Formatter<[]>[#3]"* noalias nocapture dereferenceable(96)) unnamed_addr #0 {
entry-block:
  %x = alloca %"enum.regex::re::Regex<[]>[#10]"**
  %fmt = alloca %"struct.core::fmt::Formatter<[]>[#3]"*
  store %"enum.regex::re::Regex<[]>[#10]"** %0, %"enum.regex::re::Regex<[]>[#10]"*** %x
