; ModuleID = 'hy_obj.rs'
target datalayout = "e-i64:64-f80:128-n8:16:32:64"
target triple = "x86_64-apple-darwin"

%"struct.core::intrinsics::TypeId<[]>[#3]" = type { i64 }
%str_slice = type { i8*, i64 }
%"struct.regex::parse::Error<[]>[#10]" = type { i64, %"struct.collections::string::String<[]>[#6]" }
%"struct.collections::string::String<[]>[#6]" = type { %"struct.collections::vec::Vec<[u8]>[#6]" }
%"struct.collections::vec::Vec<[u8]>[#6]" = type { i64, i64, i8* }
%"struct.HyObjSlice<[]>" = type { %"struct.HyObj<[]>"**, i64, i64 }
%"struct.HyObj<[]>" = type { %"enum.HyObjType<[]>" }
%"enum.HyObjType<[]>" = type { i8, [7 x i8], [13 x i64] }
%"struct.HyGenCtxt<[]>" = type { i8*, %"struct.HyObjSlice<[]>", %"struct.HyObjSlice<[]>", %"struct.HyObjSlice<[]>" }
%"struct.collections::vec::Vec<[Box<HyObj>]>[#6]" = type { i64, i64, %"struct.HyObj<[]>"** }
%"struct.core::fmt::Argument<[]>[#3]" = type { %"enum.core::result::Result<[(), core::fmt::FormatError]>[#3]" (%"enum.core::fmt::Void<[]>[#3]"*, %"struct.core::fmt::Formatter<[]>[#3]"*)*, %"enum.core::fmt::Void<[]>[#3]"* }
%"enum.core::result::Result<[(), core::fmt::FormatError]>[#3]" = type { i8, [0 x i8], [1 x i8] }
%"struct.core::fmt::Formatter<[]>[#3]" = type { i64, i32, i8, %"enum.core::option::Option<[uint]>[#3]", %"enum.core::option::Option<[uint]>[#3]", { void (i8*)**, i8* }, %"struct.core::slice::Items<[core::fmt::Argument]>[#3]", { %"struct.core::fmt::Argument<[]>[#3]"*, i64 } }
%"enum.core::option::Option<[uint]>[#3]" = type { i8, [7 x i8], [1 x i64] }
%"struct.core::slice::Items<[core::fmt::Argument]>[#3]" = type { %"struct.core::fmt::Argument<[]>[#3]"*, %"struct.core::fmt::Argument<[]>[#3]"*, %"struct.core::kinds::marker::ContravariantLifetime<[]>[#3]" }
%"struct.core::kinds::marker::ContravariantLifetime<[]>[#3]" = type {}
%"enum.core::fmt::Void<[]>[#3]" = type {}
%"struct.core::fmt::Arguments<[]>[#3]" = type { { %"enum.core::fmt::rt::Piece<[]>[#3]"*, i64 }, { %"struct.core::fmt::Argument<[]>[#3]"*, i64 } }
%"enum.core::fmt::rt::Piece<[]>[#3]" = type { i8, [7 x i8], [8 x i64] }
%"struct.core::slice::Items<[Box<HyObj>]>[#3]" = type { %"struct.HyObj<[]>"**, %"struct.HyObj<[]>"**, %"struct.core::kinds::marker::ContravariantLifetime<[]>[#3]" }
%"struct.core::raw::Slice<[Box<HyObj>]>[#3]" = type { %"struct.HyObj<[]>"**, i64 }
%"enum.regex::re::Regex<[]>[#10]" = type { i8, [7 x i8], [12 x i64] }
%"struct.collections::treemap::TreeMap<[collections::string::String, Box<HyObj>]>[#6]" = type { i8*, i64 }
%"struct.rustrt::c_str::CString<[]>[#9]" = type { i8*, i8, i8 }
%"struct.core::raw::Slice<[u8]>[#3]" = type { i8*, i64 }
%"struct.rustrt::libunwind::_Unwind_Exception<[]>[#9]" = type { i64, void (i32, %"struct.rustrt::libunwind::_Unwind_Exception<[]>[#9]"*)*, [6 x i64] }
%"enum.rustrt::libunwind::_Unwind_Context<[]>[#9]" = type {}
%"struct.core::slice::Items<[u8]>[#3]" = type { i8*, i8*, %"struct.core::kinds::marker::ContravariantLifetime<[]>[#3]" }
%"struct.core::iter::Range<[uint]>[#3]" = type { i64, i64, i64 }
%"struct.core::raw::Slice<[i8]>[#3]" = type { i8*, i64 }
%"enum.core::result::Result<[regex::re::Regex, regex::parse::Error]>[#3]" = type { i8, [7 x i8], [13 x i64] }
%"struct.sync::comm::Sender<[Box<HyObj>]>[#8]" = type { %"struct.core::cell::UnsafeCell<[sync::comm::Flavor<Box<HyObj>>]>[#3]", %"struct.core::cell::Cell<[uint]>[#3]", %"struct.core::kinds::marker::NoSync<[]>[#3]", i8 }
%"struct.core::cell::UnsafeCell<[sync::comm::Flavor<Box<HyObj>>]>[#3]" = type { %"enum.sync::comm::Flavor<[Box<HyObj>]>[#8]" }
%"enum.sync::comm::Flavor<[Box<HyObj>]>[#8]" = type { i8, [7 x i8], [1 x i64] }
%"struct.core::cell::Cell<[uint]>[#3]" = type { %"struct.core::cell::UnsafeCell<[uint]>[#3]", %"struct.core::kinds::marker::NoSync<[]>[#3]" }
%"struct.core::cell::UnsafeCell<[uint]>[#3]" = type { i64 }
%"struct.core::kinds::marker::NoSync<[]>[#3]" = type {}
%"struct.sync::comm::Receiver<[Box<HyObj>]>[#8]" = type { %"struct.core::cell::UnsafeCell<[sync::comm::Flavor<Box<HyObj>>]>[#3]", %"struct.core::cell::Cell<[uint]>[#3]", %"struct.core::kinds::marker::NoSync<[]>[#3]", i8 }
%"struct.alloc::arc::Arc<[core::cell::UnsafeCell<sync::comm::oneshot::Packet<Box<HyObj>>>]>[#2]" = type { %"struct.alloc::arc::ArcInner<[core::cell::UnsafeCell<sync::comm::oneshot::Packet<Box<HyObj>>>]>[#2]"* }
%"struct.alloc::arc::ArcInner<[core::cell::UnsafeCell<sync::comm::oneshot::Packet<Box<HyObj>>>]>[#2]" = type { %"struct.core::atomic::AtomicUint<[]>[#3]", %"struct.core::atomic::AtomicUint<[]>[#3]", %"struct.core::cell::UnsafeCell<[sync::comm::oneshot::Packet<Box<HyObj>>]>[#3]" }
%"struct.core::atomic::AtomicUint<[]>[#3]" = type { %"struct.core::cell::UnsafeCell<[uint]>[#3]", %"struct.core::kinds::marker::NoCopy<[]>[#3]" }
%"struct.core::kinds::marker::NoCopy<[]>[#3]" = type {}
%"struct.core::cell::UnsafeCell<[sync::comm::oneshot::Packet<Box<HyObj>>]>[#3]" = type { %"struct.sync::comm::oneshot::Packet<[Box<HyObj>]>[#8]" }
%"struct.sync::comm::oneshot::Packet<[Box<HyObj>]>[#8]" = type { %"struct.core::atomic::AtomicUint<[]>[#3]", i8*, %"enum.sync::comm::oneshot::MyUpgrade<[Box<HyObj>]>[#8]", i8 }
%"enum.sync::comm::oneshot::MyUpgrade<[Box<HyObj>]>[#8]" = type { i8, [7 x i8], [4 x i64] }
%"struct.alloc::arc::Arc<[core::cell::UnsafeCell<sync::comm::stream::Packet<Box<HyObj>>>]>[#2]" = type { %"struct.alloc::arc::ArcInner<[core::cell::UnsafeCell<sync::comm::stream::Packet<Box<HyObj>>>]>[#2]"* }
%"struct.alloc::arc::ArcInner<[core::cell::UnsafeCell<sync::comm::stream::Packet<Box<HyObj>>>]>[#2]" = type { %"struct.core::atomic::AtomicUint<[]>[#3]", %"struct.core::atomic::AtomicUint<[]>[#3]", %"struct.core::cell::UnsafeCell<[sync::comm::stream::Packet<Box<HyObj>>]>[#3]" }
%"struct.core::cell::UnsafeCell<[sync::comm::stream::Packet<Box<HyObj>>]>[#3]" = type { %"struct.sync::comm::stream::Packet<[Box<HyObj>]>[#8]" }
%"struct.sync::comm::stream::Packet<[Box<HyObj>]>[#8]" = type { %"struct.sync::spsc_queue::Queue<[sync::comm::stream::Message<Box<HyObj>>]>[#8]", %"struct.core::atomic::AtomicInt<[]>[#3]", i64, %"struct.core::atomic::AtomicUint<[]>[#3]", %"struct.core::atomic::AtomicBool<[]>[#3]", i8 }
%"struct.sync::spsc_queue::Queue<[sync::comm::stream::Message<Box<HyObj>>]>[#8]" = type { %"struct.core::cell::UnsafeCell<[*mut sync::spsc_queue::Node<sync::comm::stream::Message<Box<HyObj>>>]>[#3]", %"struct.core::atomic::AtomicPtr<[sync::spsc_queue::Node<sync::comm::stream::Message<Box<HyObj>>>]>[#3]", %"struct.core::cell::UnsafeCell<[*mut sync::spsc_queue::Node<sync::comm::stream::Message<Box<HyObj>>>]>[#3]", %"struct.core::cell::UnsafeCell<[*mut sync::spsc_queue::Node<sync::comm::stream::Message<Box<HyObj>>>]>[#3]", %"struct.core::cell::UnsafeCell<[*mut sync::spsc_queue::Node<sync::comm::stream::Message<Box<HyObj>>>]>[#3]", i64, %"struct.core::atomic::AtomicUint<[]>[#3]", %"struct.core::atomic::AtomicUint<[]>[#3]", i8 }
%"struct.core::atomic::AtomicPtr<[sync::spsc_queue::Node<sync::comm::stream::Message<Box<HyObj>>>]>[#3]" = type { %"struct.core::cell::UnsafeCell<[uint]>[#3]", %"struct.core::kinds::marker::NoCopy<[]>[#3]" }
%"struct.core::cell::UnsafeCell<[*mut sync::spsc_queue::Node<sync::comm::stream::Message<Box<HyObj>>>]>[#3]" = type { %"struct.sync::spsc_queue::Node<[sync::comm::stream::Message<Box<HyObj>>]>[#8]"* }
%"struct.sync::spsc_queue::Node<[sync::comm::stream::Message<Box<HyObj>>]>[#8]" = type { %"enum.core::option::Option<[sync::comm::stream::Message<Box<HyObj>>]>[#3]", %"struct.core::atomic::AtomicPtr<[sync::spsc_queue::Node<sync::comm::stream::Message<Box<HyObj>>>]>[#3]" }
%"enum.core::option::Option<[sync::comm::stream::Message<Box<HyObj>>]>[#3]" = type { i8, [7 x i8], [5 x i64] }
%"struct.core::atomic::AtomicInt<[]>[#3]" = type { %"struct.core::cell::UnsafeCell<[int]>[#3]", %"struct.core::kinds::marker::NoCopy<[]>[#3]" }
%"struct.core::cell::UnsafeCell<[int]>[#3]" = type { i64 }
%"struct.core::atomic::AtomicBool<[]>[#3]" = type { %"struct.core::cell::UnsafeCell<[uint]>[#3]", %"struct.core::kinds::marker::NoCopy<[]>[#3]" }
%"struct.alloc::arc::Arc<[core::cell::UnsafeCell<sync::comm::shared::Packet<Box<HyObj>>>]>[#2]" = type { %"struct.alloc::arc::ArcInner<[core::cell::UnsafeCell<sync::comm::shared::Packet<Box<HyObj>>>]>[#2]"* }
%"struct.alloc::arc::ArcInner<[core::cell::UnsafeCell<sync::comm::shared::Packet<Box<HyObj>>>]>[#2]" = type { %"struct.core::atomic::AtomicUint<[]>[#3]", %"struct.core::atomic::AtomicUint<[]>[#3]", %"struct.core::cell::UnsafeCell<[sync::comm::shared::Packet<Box<HyObj>>]>[#3]" }
%"struct.core::cell::UnsafeCell<[sync::comm::shared::Packet<Box<HyObj>>]>[#3]" = type { %"struct.sync::comm::shared::Packet<[Box<HyObj>]>[#8]" }
%"struct.sync::comm::shared::Packet<[Box<HyObj>]>[#8]" = type { %"struct.sync::mpsc_queue::Queue<[Box<HyObj>]>[#8]", %"struct.core::atomic::AtomicInt<[]>[#3]", i64, %"struct.core::atomic::AtomicUint<[]>[#3]", %"struct.core::atomic::AtomicInt<[]>[#3]", %"struct.core::atomic::AtomicBool<[]>[#3]", %"struct.core::atomic::AtomicInt<[]>[#3]", %"struct.rustrt::mutex::NativeMutex<[]>[#9]", i8 }
%"struct.sync::mpsc_queue::Queue<[Box<HyObj>]>[#8]" = type { %"struct.core::atomic::AtomicPtr<[sync::mpsc_queue::Node<Box<HyObj>>]>[#3]", %"struct.core::cell::UnsafeCell<[*mut sync::mpsc_queue::Node<Box<HyObj>>]>[#3]", i8 }
%"struct.core::atomic::AtomicPtr<[sync::mpsc_queue::Node<Box<HyObj>>]>[#3]" = type { %"struct.core::cell::UnsafeCell<[uint]>[#3]", %"struct.core::kinds::marker::NoCopy<[]>[#3]" }
%"struct.core::cell::UnsafeCell<[*mut sync::mpsc_queue::Node<Box<HyObj>>]>[#3]" = type { %"struct.sync::mpsc_queue::Node<[Box<HyObj>]>[#8]"* }
%"struct.sync::mpsc_queue::Node<[Box<HyObj>]>[#8]" = type { %"struct.core::atomic::AtomicPtr<[sync::mpsc_queue::Node<Box<HyObj>>]>[#3]", i8* }
%"struct.rustrt::mutex::NativeMutex<[]>[#9]" = type { %"struct.rustrt::mutex::StaticNativeMutex<[]>[#9]", i8 }
%"struct.rustrt::mutex::StaticNativeMutex<[]>[#9]" = type { %"struct.rustrt::mutex::imp::Mutex<[]>[#9]" }
%"struct.rustrt::mutex::imp::Mutex<[]>[#9]" = type { %"struct.core::cell::UnsafeCell<[rustrt::mutex::imp::os::pthread_mutex_t]>[#3]", %"struct.core::cell::UnsafeCell<[rustrt::mutex::imp::os::pthread_cond_t]>[#3]" }
%"struct.core::cell::UnsafeCell<[rustrt::mutex::imp::os::pthread_mutex_t]>[#3]" = type { %"struct.rustrt::mutex::imp::os::pthread_mutex_t<[]>[#9]" }
%"struct.rustrt::mutex::imp::os::pthread_mutex_t<[]>[#9]" = type { i64, [56 x i8] }
%"struct.core::cell::UnsafeCell<[rustrt::mutex::imp::os::pthread_cond_t]>[#3]" = type { %"struct.rustrt::mutex::imp::os::pthread_cond_t<[]>[#9]" }
%"struct.rustrt::mutex::imp::os::pthread_cond_t<[]>[#9]" = type { i64, [40 x i8] }
%"struct.alloc::arc::Arc<[core::cell::UnsafeCell<sync::comm::sync::Packet<Box<HyObj>>>]>[#2]" = type { %"struct.alloc::arc::ArcInner<[core::cell::UnsafeCell<sync::comm::sync::Packet<Box<HyObj>>>]>[#2]"* }
%"struct.alloc::arc::ArcInner<[core::cell::UnsafeCell<sync::comm::sync::Packet<Box<HyObj>>>]>[#2]" = type { %"struct.core::atomic::AtomicUint<[]>[#3]", %"struct.core::atomic::AtomicUint<[]>[#3]", %"struct.core::cell::UnsafeCell<[sync::comm::sync::Packet<Box<HyObj>>]>[#3]" }
%"struct.core::cell::UnsafeCell<[sync::comm::sync::Packet<Box<HyObj>>]>[#3]" = type { %"struct.sync::comm::sync::Packet<[Box<HyObj>]>[#8]" }
%"struct.sync::comm::sync::Packet<[Box<HyObj>]>[#8]" = type { %"struct.core::atomic::AtomicUint<[]>[#3]", %"struct.rustrt::mutex::NativeMutex<[]>[#9]", %"struct.core::cell::UnsafeCell<[sync::comm::sync::State<Box<HyObj>>]>[#3]", i8 }
%"struct.core::cell::UnsafeCell<[sync::comm::sync::State<Box<HyObj>>]>[#3]" = type { %"struct.sync::comm::sync::State<[Box<HyObj>]>[#8]" }
%"struct.sync::comm::sync::State<[Box<HyObj>]>[#8]" = type { i8, %"struct.sync::comm::sync::Queue<[]>[#8]", %"enum.sync::comm::sync::Blocker<[]>[#8]", %"struct.sync::comm::sync::Buffer<[Box<HyObj>]>[#8]", i64, i8* }
%"struct.sync::comm::sync::Queue<[]>[#8]" = type { %"struct.sync::comm::sync::Node<[]>[#8]"*, %"struct.sync::comm::sync::Node<[]>[#8]"* }
%"struct.sync::comm::sync::Node<[]>[#8]" = type { %"enum.core::option::Option<[rustrt::task::BlockedTask]>[#3]", %"struct.sync::comm::sync::Node<[]>[#8]"* }
%"enum.core::option::Option<[rustrt::task::BlockedTask]>[#3]" = type { i8, [7 x i8], [2 x i64] }
%"enum.sync::comm::sync::Blocker<[]>[#8]" = type { i8, [7 x i8], [2 x i64] }
%"struct.sync::comm::sync::Buffer<[Box<HyObj>]>[#8]" = type { %"struct.collections::vec::Vec<[core::option::Option<Box<HyObj>>]>[#6]", i64, i64 }
%"struct.collections::vec::Vec<[core::option::Option<Box<HyObj>>]>[#6]" = type { i64, i64, i8** }
%"enum.rustrt::task::BlockedTask<[]>[#9]" = type { i8, [7 x i8], [1 x i64] }
%"struct.rustrt::task::Task<[]>[#9]" = type { %"struct.rustrt::local_heap::LocalHeap<[]>[#9]", %"struct.rustrt::task::GarbageCollector<[]>[#9]", %"struct.rustrt::task::LocalStorage<[]>[#9]", %"struct.rustrt::unwind::Unwinder<[]>[#9]", %"struct.rustrt::task::Death<[]>[#9]", %"enum.core::option::Option<[collections::str::MaybeOwned]>[#3]", i8, %"enum.core::option::Option<[Box<rustrt::Runtime:Send>]>[#3]", i8 }
%"struct.rustrt::local_heap::LocalHeap<[]>[#9]" = type { %"struct.rustrt::local_heap::MemoryRegion<[]>[#9]", %"struct.core::raw::Box<[()]>[#3]"*, i8 }
%"struct.rustrt::local_heap::MemoryRegion<[]>[#9]" = type { i64, i8 }
%"struct.core::raw::Box<[()]>[#3]" = type { i64, void (i8*)*, %"struct.core::raw::Box<[()]>[#3]"*, %"struct.core::raw::Box<[()]>[#3]"*, {} }
%"struct.rustrt::task::GarbageCollector<[]>[#9]" = type {}
%"struct.rustrt::task::LocalStorage<[]>[#9]" = type { %"enum.core::option::Option<[collections::treemap::TreeMap<uint,rustrt::local_data::TLDValue>]>[#3]" }
%"enum.core::option::Option<[collections::treemap::TreeMap<uint,rustrt::local_data::TLDValue>]>[#3]" = type { i8, [7 x i8], [2 x i64] }
%"struct.rustrt::unwind::Unwinder<[]>[#9]" = type { i8 }
%"struct.rustrt::task::Death<[]>[#9]" = type { %"enum.core::option::Option<[proc(core::result::Result<(),Box<core::any::Any:Send>>):Send]>[#3]", %"struct.core::kinds::marker::NoCopy<[]>[#3]" }
%"enum.core::option::Option<[proc(core::result::Result<(),Box<core::any::Any:Send>>):Send]>[#3]" = type { { void (i8*, %"enum.core::result::Result<[(), Box<core::any::Any:Send>]>[#3]"*)*, i8* } }
%"enum.core::result::Result<[(), Box<core::any::Any:Send>]>[#3]" = type { { void (i8*)**, i8* } }
%"enum.core::option::Option<[collections::str::MaybeOwned]>[#3]" = type { i8, [7 x i8], [4 x i64] }
%"enum.core::option::Option<[Box<rustrt::Runtime:Send>]>[#3]" = type { { void (i8*)**, i8* } }
%"enum.core::option::Option<[()]>[#3]" = type { i8, [0 x i8], [0 x i8] }
%"struct.alloc::arc::Arc<[core::atomic::AtomicUint]>[#2]" = type { %"struct.alloc::arc::ArcInner<[core::atomic::AtomicUint]>[#2]"* }
%"struct.alloc::arc::ArcInner<[core::atomic::AtomicUint]>[#2]" = type { %"struct.core::atomic::AtomicUint<[]>[#3]", %"struct.core::atomic::AtomicUint<[]>[#3]", %"struct.core::atomic::AtomicUint<[]>[#3]" }
%"enum.collections::str::MaybeOwned<[]>[#6]" = type { i8, [7 x i8], [3 x i64] }
%"struct.collections::treemap::TreeMap<[uint, rustrt::local_data::TLDValue]>[#6]" = type { i8*, i64 }
%"struct.collections::treemap::TreeNode<[uint, rustrt::local_data::TLDValue]>[#6]" = type { i64, %"struct.rustrt::local_data::TLDValue<[]>[#9]", i8*, i8*, i64 }
%"struct.rustrt::local_data::TLDValue<[]>[#9]" = type { {}*, void ({}*)* }
%"enum.sync::comm::stream::Message<[Box<HyObj>]>[#8]" = type { i8, [7 x i8], [4 x i64] }
%"enum.sync::mpsc_queue::PopResult<[Box<HyObj>]>[#8]" = type { i8, [7 x i8], [1 x i64] }
%"struct.rustrt::mutex::LockGuard<[]>[#9]" = type { %"struct.rustrt::mutex::StaticNativeMutex<[]>[#9]"*, i8 }
%"enum.core::option::Option<[core::option::Option<()>]>[#3]" = type { i8, [0 x i8], [1 x i8] }
%"struct.core::slice::Items<[core::option::Option<Box<HyObj>>]>[#3]" = type { i8**, i8**, %"struct.core::kinds::marker::ContravariantLifetime<[]>[#3]" }
%"struct.core::raw::Slice<[core::option::Option<Box<HyObj>>]>[#3]" = type { i8**, i64 }
%"struct.collections::treemap::TreeNode<[collections::string::String, Box<HyObj>]>[#6]" = type { %"struct.collections::string::String<[]>[#6]", %"struct.HyObj<[]>"*, i8*, i8*, i64 }
%"struct.regex::re::Dynamic<[]>[#10]" = type { %"struct.collections::string::String<[]>[#6]", %"struct.collections::vec::Vec<[core::option::Option<collections::string::String>]>[#6]", %"struct.regex::compile::Program<[]>[#10]" }
%"struct.collections::vec::Vec<[core::option::Option<collections::string::String>]>[#6]" = type { i64, i64, %"enum.core::option::Option<[collections::string::String]>[#3]"* }
%"enum.core::option::Option<[collections::string::String]>[#3]" = type { i8, [7 x i8], [3 x i64] }
%"struct.regex::compile::Program<[]>[#10]" = type { %"struct.collections::vec::Vec<[regex::compile::Inst]>[#6]", %"struct.collections::string::String<[]>[#6]" }
%"struct.collections::vec::Vec<[regex::compile::Inst]>[#6]" = type { i64, i64, %"enum.regex::compile::Inst<[]>[#10]"* }
%"enum.regex::compile::Inst<[]>[#10]" = type { i8, [7 x i8], [4 x i64] }
%"struct.regex::re::Native<[]>[#10]" = type { %str_slice, { %"enum.core::option::Option<[&'static str]>[#3]"*, i64 }, void (%"struct.collections::vec::Vec<[core::option::Option<uint>]>[#6]"*, i8, %str_slice*, i64, i64)* }
%"enum.core::option::Option<[&'static str]>[#3]" = type { %str_slice }
%"struct.collections::vec::Vec<[core::option::Option<uint>]>[#6]" = type { i64, i64, %"enum.core::option::Option<[uint]>[#3]"* }
%"struct.core::slice::Items<[core::option::Option<collections::string::String>]>[#3]" = type { %"enum.core::option::Option<[collections::string::String]>[#3]"*, %"enum.core::option::Option<[collections::string::String]>[#3]"*, %"struct.core::kinds::marker::ContravariantLifetime<[]>[#3]" }
%"struct.core::raw::Slice<[core::option::Option<collections::string::String>]>[#3]" = type { %"enum.core::option::Option<[collections::string::String]>[#3]"*, i64 }
%"struct.core::slice::Items<[regex::compile::Inst]>[#3]" = type { %"enum.regex::compile::Inst<[]>[#10]"*, %"enum.regex::compile::Inst<[]>[#10]"*, %"struct.core::kinds::marker::ContravariantLifetime<[]>[#3]" }
%"struct.core::raw::Slice<[regex::compile::Inst]>[#3]" = type { %"enum.regex::compile::Inst<[]>[#10]"*, i64 }
%"struct.collections::vec::Vec<[(char,char)]>[#6]" = type { i64, i64, { i32, i32 }* }
%"struct.core::slice::Items<[(char,char)]>[#3]" = type { { i32, i32 }*, { i32, i32 }*, %"struct.core::kinds::marker::ContravariantLifetime<[]>[#3]" }
%"struct.core::raw::Slice<[(char,char)]>[#3]" = type { { i32, i32 }*, i64 }
%"struct.core::option::Item<[&'static mut Box<collections::treemap::TreeNode<collections::string::String,Box<HyObj>>>]>[#3]" = type { i8* }

@_ZN4heap5EMPTY20hbfe5b9a4d3c56c6f8baE = available_externally global i64 12345
@vtable2350 = internal constant { void (i8**)*, %"struct.core::intrinsics::TypeId<[]>[#3]" (%str_slice*)* } { void (i8**)* @"_ZN13Box$LT$i8$GT$14glue_drop.233817h94d9eed4dc829bb4E", %"struct.core::intrinsics::TypeId<[]>[#3]" (%str_slice*)* @_ZN3any12T.AnyPrivate11get_type_id21h16415080557321492640E }
@str2351 = internal constant [49 x i8] c"Tried to push too many HyObjs into the HyObjSlice"
@str2352 = internal constant [52 x i8] c"src/lib/lib_hy_obj_types/lib/lib_hy_obj/src/HyObj.rs"
@_ZN17hy_obj_slice_push10_FILE_LINE20h1300df55bb5326a9mfaE = internal constant { %str_slice, i64 } { %str_slice { i8* getelementptr inbounds ([52 x i8]* @str2352, i32 0, i32 0), i64 52 }, i64 96 }
@str2413 = internal constant [1 x i8] c"["
@_ZN5HyObj12hy_obj_print15__STATIC_FMTSTR20he6cd311728f95dc5XiaE = internal unnamed_addr constant { { i8, %str_slice, [48 x i8] } } { { i8, %str_slice, [48 x i8] } { i8 0, %str_slice { i8* getelementptr inbounds ([1 x i8]* @str2413, i32 0, i32 0), i64 1 }, [48 x i8] undef } }
@str2487 = internal constant [1 x i8] c"]"
@_ZN5HyObj12hy_obj_print15__STATIC_FMTSTR20he6cd311728f95dc5HjaE = internal unnamed_addr constant { { i8, %str_slice, [48 x i8] } } { { i8, %str_slice, [48 x i8] } { i8 0, %str_slice { i8* getelementptr inbounds ([1 x i8]* @str2487, i32 0, i32 0), i64 1 }, [48 x i8] undef } }
@str2488 = internal constant [46 x i8] c"Called print on an object that is not an Array"
@_ZN5HyObj12hy_obj_print10_FILE_LINE20h1300df55bb5326a9fkaE = internal constant { %str_slice, i64 } { %str_slice { i8* getelementptr inbounds ([52 x i8]* @str2352, i32 0, i32 0), i64 52 }, i64 157 }
@_ZN9to_string10T.ToString9to_string15__STATIC_FMTSTR20h8b23f08f60bcdf37dfeE = internal unnamed_addr constant { { i8, { { i8, [15 x i8] }, { i32, i8, i64, { i8, [15 x i8] }, { i8, [15 x i8] } } }, [0 x i8] } } { { i8, { { i8, [15 x i8] }, { i32, i8, i64, { i8, [15 x i8] }, { i8, [15 x i8] } } }, [0 x i8] } { i8 1, { { i8, [15 x i8] }, { i32, i8, i64, { i8, [15 x i8] }, { i8, [15 x i8] } } } { { i8, [15 x i8] } { i8 0, [15 x i8] undef }, { i32, i8, i64, { i8, [15 x i8] }, { i8, [15 x i8] } } { i32 32, i8 2, i64 0, { i8, [15 x i8] } { i8 3, [15 x i8] undef }, { i8, [15 x i8] } { i8 3, [15 x i8] undef } } }, [0 x i8] undef } }
@str2515 = internal constant [9 x i8] c"undefined"
@str2563 = internal constant [4 x i8] c"null"
@str2565 = internal constant [6 x i8] c"int : "
@_ZN5HyObj13hy_obj_to_str15__STATIC_FMTSTR20h42038198f74a27d4AlaE = internal unnamed_addr constant { { i8, %str_slice, [48 x i8] }, { i8, { { i8, [15 x i8] }, { i32, i8, i64, { i8, [15 x i8] }, { i8, [15 x i8] } } }, [0 x i8] } } { { i8, %str_slice, [48 x i8] } { i8 0, %str_slice { i8* getelementptr inbounds ([6 x i8]* @str2565, i32 0, i32 0), i64 6 }, [48 x i8] undef }, { i8, { { i8, [15 x i8] }, { i32, i8, i64, { i8, [15 x i8] }, { i8, [15 x i8] } } }, [0 x i8] } { i8 1, { { i8, [15 x i8] }, { i32, i8, i64, { i8, [15 x i8] }, { i8, [15 x i8] } } } { { i8, [15 x i8] } { i8 0, [15 x i8] undef }, { i32, i8, i64, { i8, [15 x i8] }, { i8, [15 x i8] } } { i32 32, i8 2, i64 0, { i8, [15 x i8] } { i8 3, [15 x i8] undef }, { i8, [15 x i8] } { i8 3, [15 x i8] undef } } }, [0 x i8] undef } }
@str2567 = internal constant [8 x i8] c"float : "
@_ZN5HyObj13hy_obj_to_str15__STATIC_FMTSTR20h42038198f74a27d4AmaE = internal unnamed_addr constant { { i8, %str_slice, [48 x i8] }, { i8, { { i8, [15 x i8] }, { i32, i8, i64, { i8, [15 x i8] }, { i8, [15 x i8] } } }, [0 x i8] } } { { i8, %str_slice, [48 x i8] } { i8 0, %str_slice { i8* getelementptr inbounds ([8 x i8]* @str2567, i32 0, i32 0), i64 8 }, [48 x i8] undef }, { i8, { { i8, [15 x i8] }, { i32, i8, i64, { i8, [15 x i8] }, { i8, [15 x i8] } } }, [0 x i8] } { i8 1, { { i8, [15 x i8] }, { i32, i8, i64, { i8, [15 x i8] }, { i8, [15 x i8] } } } { { i8, [15 x i8] } { i8 0, [15 x i8] undef }, { i32, i8, i64, { i8, [15 x i8] }, { i8, [15 x i8] } } { i32 32, i8 2, i64 0, { i8, [15 x i8] } { i8 3, [15 x i8] undef }, { i8, [15 x i8] } { i8 3, [15 x i8] undef } } }, [0 x i8] undef } }
@str2571 = internal constant [8 x i8] c"regex : "
@_ZN5HyObj13hy_obj_to_str15__STATIC_FMTSTR20h42038198f74a27d4OnaE = internal unnamed_addr constant { { i8, %str_slice, [48 x i8] }, { i8, { { i8, [15 x i8] }, { i32, i8, i64, { i8, [15 x i8] }, { i8, [15 x i8] } } }, [0 x i8] } } { { i8, %str_slice, [48 x i8] } { i8 0, %str_slice { i8* getelementptr inbounds ([8 x i8]* @str2571, i32 0, i32 0), i64 8 }, [48 x i8] undef }, { i8, { { i8, [15 x i8] }, { i32, i8, i64, { i8, [15 x i8] }, { i8, [15 x i8] } } }, [0 x i8] } { i8 1, { { i8, [15 x i8] }, { i32, i8, i64, { i8, [15 x i8] }, { i8, [15 x i8] } } } { { i8, [15 x i8] } { i8 0, [15 x i8] undef }, { i32, i8, i64, { i8, [15 x i8] }, { i8, [15 x i8] } } { i32 32, i8 2, i64 0, { i8, [15 x i8] } { i8 3, [15 x i8] undef }, { i8, [15 x i8] } { i8 3, [15 x i8] undef } } }, [0 x i8] undef } }
@str2572 = internal constant [10 x i8] c"Array : []"
@str2573 = internal constant [10 x i8] c"Tuple : ()"
@str2574 = internal constant [8 x i8] c"Map : {}"
@str2575 = internal constant [11 x i8] c"bool : true"
@str2576 = internal constant [12 x i8] c"bool : false"
@str2577 = internal constant [60 x i8] c"Called print on an object that is not an Array, Map, or bool"
@_ZN3vec10PTR_MARKER20hd0730fd7e79c68f4HgiE = available_externally constant i8 0
@str2614 = internal constant [40 x i8] c"Vec::reserve_additional: `uint` overflow"
@"_ZN3vec12Vec$LT$T$GT$18reserve_additional15__STATIC_FMTSTR20hc4afdecb9c205274fyiE" = internal unnamed_addr constant { { i8, { { i8, [15 x i8] }, { i32, i8, i64, { i8, [15 x i8] }, { i8, [15 x i8] } } }, [0 x i8] } } { { i8, { { i8, [15 x i8] }, { i32, i8, i64, { i8, [15 x i8] }, { i8, [15 x i8] } } }, [0 x i8] } { i8 1, { { i8, [15 x i8] }, { i32, i8, i64, { i8, [15 x i8] }, { i8, [15 x i8] } } } { { i8, [15 x i8] } { i8 0, [15 x i8] undef }, { i32, i8, i64, { i8, [15 x i8] }, { i8, [15 x i8] } } { i32 32, i8 2, i64 0, { i8, [15 x i8] } { i8 3, [15 x i8] undef }, { i8, [15 x i8] } { i8 3, [15 x i8] undef } } }, [0 x i8] undef } }
@str2616 = internal constant [84 x i8] c"/Users/rustbuild/src/rust-buildbot/slave/nightly-mac/build/src/libcollections/vec.rs"
@"_ZN3vec12Vec$LT$T$GT$18reserve_additional8_run_fmt10_FILE_LINE20hcbe4b606f4a2422dQxiE" = available_externally constant { %str_slice, i64 } { %str_slice { i8* getelementptr inbounds ([84 x i8]* @str2616, i32 0, i32 0), i64 84 }, i64 585 }
@"_ZN6option15Option$LT$T$GT$6expect15__STATIC_FMTSTR20h79b308b23b8faec4humE" = internal unnamed_addr constant { { i8, { { i8, [15 x i8] }, { i32, i8, i64, { i8, [15 x i8] }, { i8, [15 x i8] } } }, [0 x i8] } } { { i8, { { i8, [15 x i8] }, { i32, i8, i64, { i8, [15 x i8] }, { i8, [15 x i8] } } }, [0 x i8] } { i8 1, { { i8, [15 x i8] }, { i32, i8, i64, { i8, [15 x i8] }, { i8, [15 x i8] } } } { { i8, [15 x i8] } { i8 0, [15 x i8] undef }, { i32, i8, i64, { i8, [15 x i8] }, { i8, [15 x i8] } } { i32 32, i8 2, i64 0, { i8, [15 x i8] } { i8 3, [15 x i8] undef }, { i8, [15 x i8] } { i8 3, [15 x i8] undef } } }, [0 x i8] undef } }
@str2639 = internal constant [80 x i8] c"/Users/rustbuild/src/rust-buildbot/slave/nightly-mac/build/src/libcore/option.rs"
@"_ZN6option15Option$LT$T$GT$6expect8_run_fmt10_FILE_LINE20h9519b9138055b1fdStmE" = available_externally constant { %str_slice, i64 } { %str_slice { i8* getelementptr inbounds ([80 x i8]* @str2639, i32 0, i32 0), i64 80 }, i64 243 }
@str2643 = internal constant [17 x i8] c"capacity overflow"
@_ZN4uint3MAX20h6a46217bd556340b3caE = available_externally constant i64 -1
@_ZN4comm7oneshot12DISCONNECTED20h658a6de3c86d9c83AmcE = available_externally constant i64 2
@str2868 = internal constant [41 x i8] c"there is no such thing as a relaxed fence"
@_ZN6atomic5fence15__STATIC_FMTSTR20h79b308b23b8faec4smjE = internal unnamed_addr constant { { i8, { { i8, [15 x i8] }, { i32, i8, i64, { i8, [15 x i8] }, { i8, [15 x i8] } } }, [0 x i8] } } { { i8, { { i8, [15 x i8] }, { i32, i8, i64, { i8, [15 x i8] }, { i8, [15 x i8] } } }, [0 x i8] } { i8 1, { { i8, [15 x i8] }, { i32, i8, i64, { i8, [15 x i8] }, { i8, [15 x i8] } } } { { i8, [15 x i8] } { i8 0, [15 x i8] undef }, { i32, i8, i64, { i8, [15 x i8] }, { i8, [15 x i8] } } { i32 32, i8 2, i64 0, { i8, [15 x i8] } { i8 3, [15 x i8] undef }, { i8, [15 x i8] } { i8 3, [15 x i8] undef } } }, [0 x i8] undef } }
@str2870 = internal constant [80 x i8] c"/Users/rustbuild/src/rust-buildbot/slave/nightly-mac/build/src/libcore/atomic.rs"
@_ZN6atomic5fence8_run_fmt10_FILE_LINE20h9519b9138055b1fd3ljE = available_externally constant { %str_slice, i64 } { %str_slice { i8* getelementptr inbounds ([80 x i8]* @str2870, i32 0, i32 0), i64 80 }, i64 740 }
@_ZN3int4BITS20h6a46217bd556340bgaaE = available_externally constant i64 64
@_ZN3int3MIN20h758b24e6297728a8raaE = available_externally constant i64 -9223372036854775808
@_ZN4comm6stream12DISCONNECTED20h2cf3355faf13351cTQdE = available_externally constant i64 -9223372036854775808
@str2972 = internal constant [40 x i8] c"there is no such thing as a release load"
@_ZN6atomic11atomic_load15__STATIC_FMTSTR20h79b308b23b8faec4AdjE = internal unnamed_addr constant { { i8, { { i8, [15 x i8] }, { i32, i8, i64, { i8, [15 x i8] }, { i8, [15 x i8] } } }, [0 x i8] } } { { i8, { { i8, [15 x i8] }, { i32, i8, i64, { i8, [15 x i8] }, { i8, [15 x i8] } } }, [0 x i8] } { i8 1, { { i8, [15 x i8] }, { i32, i8, i64, { i8, [15 x i8] }, { i8, [15 x i8] } } } { { i8, [15 x i8] } { i8 0, [15 x i8] undef }, { i32, i8, i64, { i8, [15 x i8] }, { i8, [15 x i8] } } { i32 32, i8 2, i64 0, { i8, [15 x i8] } { i8 3, [15 x i8] undef }, { i8, [15 x i8] } { i8 3, [15 x i8] undef } } }, [0 x i8] undef } }
@_ZN6atomic11atomic_load8_run_fmt10_FILE_LINE20h9519b9138055b1fdbdjE = available_externally constant { %str_slice, i64 } { %str_slice { i8* getelementptr inbounds ([80 x i8]* @str2870, i32 0, i32 0), i64 80 }, i64 613 }
@str2973 = internal constant [49 x i8] c"there is no such thing as an acquire/release load"
@_ZN6atomic11atomic_load15__STATIC_FMTSTR20h79b308b23b8faec4RejE = internal unnamed_addr constant { { i8, { { i8, [15 x i8] }, { i32, i8, i64, { i8, [15 x i8] }, { i8, [15 x i8] } } }, [0 x i8] } } { { i8, { { i8, [15 x i8] }, { i32, i8, i64, { i8, [15 x i8] }, { i8, [15 x i8] } } }, [0 x i8] } { i8 1, { { i8, [15 x i8] }, { i32, i8, i64, { i8, [15 x i8] }, { i8, [15 x i8] } } } { { i8, [15 x i8] } { i8 0, [15 x i8] undef }, { i32, i8, i64, { i8, [15 x i8] }, { i8, [15 x i8] } } { i32 32, i8 2, i64 0, { i8, [15 x i8] } { i8 3, [15 x i8] undef }, { i8, [15 x i8] } { i8 3, [15 x i8] undef } } }, [0 x i8] undef } }
@_ZN6atomic11atomic_load8_run_fmt10_FILE_LINE20h9519b9138055b1fdsejE = available_externally constant { %str_slice, i64 } { %str_slice { i8* getelementptr inbounds ([80 x i8]* @str2870, i32 0, i32 0), i64 80 }, i64 614 }
@str2981 = internal constant [42 x i8] c"there is no such thing as an acquire store"
@_ZN6atomic12atomic_store15__STATIC_FMTSTR20h79b308b23b8faec4AajE = internal unnamed_addr constant { { i8, { { i8, [15 x i8] }, { i32, i8, i64, { i8, [15 x i8] }, { i8, [15 x i8] } } }, [0 x i8] } } { { i8, { { i8, [15 x i8] }, { i32, i8, i64, { i8, [15 x i8] }, { i8, [15 x i8] } } }, [0 x i8] } { i8 1, { { i8, [15 x i8] }, { i32, i8, i64, { i8, [15 x i8] }, { i8, [15 x i8] } } } { { i8, [15 x i8] } { i8 0, [15 x i8] undef }, { i32, i8, i64, { i8, [15 x i8] }, { i8, [15 x i8] } } { i32 32, i8 2, i64 0, { i8, [15 x i8] } { i8 3, [15 x i8] undef }, { i8, [15 x i8] } { i8 3, [15 x i8] undef } } }, [0 x i8] undef } }
@_ZN6atomic12atomic_store8_run_fmt10_FILE_LINE20h9519b9138055b1fdbajE = available_externally constant { %str_slice, i64 } { %str_slice { i8* getelementptr inbounds ([80 x i8]* @str2870, i32 0, i32 0), i64 80 }, i64 602 }
@str2982 = internal constant [50 x i8] c"there is no such thing as an acquire/release store"
@_ZN6atomic12atomic_store15__STATIC_FMTSTR20h79b308b23b8faec4RbjE = internal unnamed_addr constant { { i8, { { i8, [15 x i8] }, { i32, i8, i64, { i8, [15 x i8] }, { i8, [15 x i8] } } }, [0 x i8] } } { { i8, { { i8, [15 x i8] }, { i32, i8, i64, { i8, [15 x i8] }, { i8, [15 x i8] } } }, [0 x i8] } { i8 1, { { i8, [15 x i8] }, { i32, i8, i64, { i8, [15 x i8] }, { i8, [15 x i8] } } } { { i8, [15 x i8] } { i8 0, [15 x i8] undef }, { i32, i8, i64, { i8, [15 x i8] }, { i8, [15 x i8] } } { i32 32, i8 2, i64 0, { i8, [15 x i8] } { i8 3, [15 x i8] undef }, { i8, [15 x i8] } { i8 3, [15 x i8] undef } } }, [0 x i8] undef } }
@_ZN6atomic12atomic_store8_run_fmt10_FILE_LINE20h9519b9138055b1fdsbjE = available_externally constant { %str_slice, i64 } { %str_slice { i8* getelementptr inbounds ([80 x i8]* @str2870, i32 0, i32 0), i64 80 }, i64 603 }
@str2983 = internal constant [27 x i8] c"assertion failed: task != 0"
@"_ZN4comm6stream15Packet$LT$T$GT$12take_to_wake15__STATIC_FMTSTR20hed13cac4520e738cMYdE" = internal unnamed_addr constant { { i8, { { i8, [15 x i8] }, { i32, i8, i64, { i8, [15 x i8] }, { i8, [15 x i8] } } }, [0 x i8] } } { { i8, { { i8, [15 x i8] }, { i32, i8, i64, { i8, [15 x i8] }, { i8, [15 x i8] } } }, [0 x i8] } { i8 1, { { i8, [15 x i8] }, { i32, i8, i64, { i8, [15 x i8] }, { i8, [15 x i8] } } } { { i8, [15 x i8] } { i8 0, [15 x i8] undef }, { i32, i8, i64, { i8, [15 x i8] }, { i8, [15 x i8] } } { i32 32, i8 2, i64 0, { i8, [15 x i8] } { i8 3, [15 x i8] undef }, { i8, [15 x i8] } { i8 3, [15 x i8] undef } } }, [0 x i8] undef } }
@str2985 = internal constant [85 x i8] c"/Users/rustbuild/src/rust-buildbot/slave/nightly-mac/build/src/libsync/comm/stream.rs"
@"_ZN4comm6stream15Packet$LT$T$GT$12take_to_wake8_run_fmt10_FILE_LINE20heedd677b49688ad9nYdE" = available_externally constant { %str_slice, i64 } { %str_slice { i8* getelementptr inbounds ([85 x i8]* @str2985, i32 0, i32 0), i64 85 }, i64 145 }
@str2988 = internal constant [24 x i8] c"assertion failed: n >= 0"
@"_ZN4comm6stream15Packet$LT$T$GT$9drop_chan15__STATIC_FMTSTR20hed13cac4520e738c49dE" = internal unnamed_addr constant { { i8, { { i8, [15 x i8] }, { i32, i8, i64, { i8, [15 x i8] }, { i8, [15 x i8] } } }, [0 x i8] } } { { i8, { { i8, [15 x i8] }, { i32, i8, i64, { i8, [15 x i8] }, { i8, [15 x i8] } } }, [0 x i8] } { i8 1, { { i8, [15 x i8] }, { i32, i8, i64, { i8, [15 x i8] }, { i8, [15 x i8] } } } { { i8, [15 x i8] } { i8 0, [15 x i8] undef }, { i32, i8, i64, { i8, [15 x i8] }, { i8, [15 x i8] } } { i32 32, i8 2, i64 0, { i8, [15 x i8] } { i8 3, [15 x i8] undef }, { i8, [15 x i8] } { i8 3, [15 x i8] undef } } }, [0 x i8] undef } }
@"_ZN4comm6stream15Packet$LT$T$GT$9drop_chan8_run_fmt10_FILE_LINE20heedd677b49688ad9F9dE" = available_externally constant { %str_slice, i64 } { %str_slice { i8* getelementptr inbounds ([85 x i8]* @str2985, i32 0, i32 0), i64 85 }, i64 269 }
@str2994 = internal constant [28 x i8] c"bad number of channels left "
@"_ZN4comm6shared15Packet$LT$T$GT$9drop_chan15__STATIC_FMTSTR20hd800eb6e7218c028vvdE" = internal unnamed_addr constant { { i8, %str_slice, [48 x i8] }, { i8, { { i8, [15 x i8] }, { i32, i8, i64, { i8, [15 x i8] }, { i8, [15 x i8] } } }, [0 x i8] } } { { i8, %str_slice, [48 x i8] } { i8 0, %str_slice { i8* getelementptr inbounds ([28 x i8]* @str2994, i32 0, i32 0), i64 28 }, [48 x i8] undef }, { i8, { { i8, [15 x i8] }, { i32, i8, i64, { i8, [15 x i8] }, { i8, [15 x i8] } } }, [0 x i8] } { i8 1, { { i8, [15 x i8] }, { i32, i8, i64, { i8, [15 x i8] }, { i8, [15 x i8] } } } { { i8, [15 x i8] } { i8 0, [15 x i8] undef }, { i32, i8, i64, { i8, [15 x i8] }, { i8, [15 x i8] } } { i32 32, i8 2, i64 0, { i8, [15 x i8] } { i8 3, [15 x i8] undef }, { i8, [15 x i8] } { i8 3, [15 x i8] undef } } }, [0 x i8] undef } }
@str2996 = internal constant [85 x i8] c"/Users/rustbuild/src/rust-buildbot/slave/nightly-mac/build/src/libsync/comm/shared.rs"
@"_ZN4comm6shared15Packet$LT$T$GT$9drop_chan8_run_fmt10_FILE_LINE20heedd677b49688ad96udE" = available_externally constant { %str_slice, i64 } { %str_slice { i8* getelementptr inbounds ([85 x i8]* @str2996, i32 0, i32 0), i64 85 }, i64 361 }
@_ZN4comm6shared12DISCONNECTED20h2cf3355faf13351cJ9cE = available_externally constant i64 -9223372036854775808
@"_ZN4comm6shared15Packet$LT$T$GT$12take_to_wake15__STATIC_FMTSTR20hed13cac4520e738c0zdE" = internal unnamed_addr constant { { i8, { { i8, [15 x i8] }, { i32, i8, i64, { i8, [15 x i8] }, { i8, [15 x i8] } } }, [0 x i8] } } { { i8, { { i8, [15 x i8] }, { i32, i8, i64, { i8, [15 x i8] }, { i8, [15 x i8] } } }, [0 x i8] } { i8 1, { { i8, [15 x i8] }, { i32, i8, i64, { i8, [15 x i8] }, { i8, [15 x i8] } } } { { i8, [15 x i8] } { i8 0, [15 x i8] undef }, { i32, i8, i64, { i8, [15 x i8] }, { i8, [15 x i8] } } { i32 32, i8 2, i64 0, { i8, [15 x i8] } { i8 3, [15 x i8] undef }, { i8, [15 x i8] } { i8 3, [15 x i8] undef } } }, [0 x i8] undef } }
@"_ZN4comm6shared15Packet$LT$T$GT$12take_to_wake8_run_fmt10_FILE_LINE20heedd677b49688ad9BzdE" = available_externally constant { %str_slice, i64 } { %str_slice { i8* getelementptr inbounds ([85 x i8]* @str2996, i32 0, i32 0), i64 85 }, i64 396 }
@"_ZN4comm6shared15Packet$LT$T$GT$9drop_chan15__STATIC_FMTSTR20hed13cac4520e738cpxdE" = internal unnamed_addr constant { { i8, { { i8, [15 x i8] }, { i32, i8, i64, { i8, [15 x i8] }, { i8, [15 x i8] } } }, [0 x i8] } } { { i8, { { i8, [15 x i8] }, { i32, i8, i64, { i8, [15 x i8] }, { i8, [15 x i8] } } }, [0 x i8] } { i8 1, { { i8, [15 x i8] }, { i32, i8, i64, { i8, [15 x i8] }, { i8, [15 x i8] } } } { { i8, [15 x i8] } { i8 0, [15 x i8] undef }, { i32, i8, i64, { i8, [15 x i8] }, { i8, [15 x i8] } } { i32 32, i8 2, i64 0, { i8, [15 x i8] } { i8 3, [15 x i8] undef }, { i8, [15 x i8] } { i8 3, [15 x i8] undef } } }, [0 x i8] undef } }
@"_ZN4comm6shared15Packet$LT$T$GT$9drop_chan8_run_fmt10_FILE_LINE20heedd677b49688ad90wdE" = available_externally constant { %str_slice, i64 } { %str_slice { i8* getelementptr inbounds ([85 x i8]* @str2996, i32 0, i32 0), i64 85 }, i64 367 }
@str2999 = internal constant [16 x i8] c"unreachable code"
@"_ZN4comm20Sender$LT$T$GT$.Drop4drop15__STATIC_FMTSTR20hed13cac4520e738cxLfE" = internal unnamed_addr constant { { i8, { { i8, [15 x i8] }, { i32, i8, i64, { i8, [15 x i8] }, { i8, [15 x i8] } } }, [0 x i8] } } { { i8, { { i8, [15 x i8] }, { i32, i8, i64, { i8, [15 x i8] }, { i8, [15 x i8] } } }, [0 x i8] } { i8 1, { { i8, [15 x i8] }, { i32, i8, i64, { i8, [15 x i8] }, { i8, [15 x i8] } } } { { i8, [15 x i8] } { i8 0, [15 x i8] undef }, { i32, i8, i64, { i8, [15 x i8] }, { i8, [15 x i8] } } { i32 32, i8 2, i64 0, { i8, [15 x i8] } { i8 3, [15 x i8] undef }, { i8, [15 x i8] } { i8 3, [15 x i8] undef } } }, [0 x i8] undef } }
@str3001 = internal constant [82 x i8] c"/Users/rustbuild/src/rust-buildbot/slave/nightly-mac/build/src/libsync/comm/mod.rs"
@"_ZN4comm20Sender$LT$T$GT$.Drop4drop8_run_fmt10_FILE_LINE20heedd677b49688ad98KfE" = available_externally constant { %str_slice, i64 } { %str_slice { i8* getelementptr inbounds ([82 x i8]* @str3001, i32 0, i32 0), i64 82 }, i64 707 }
@str3024 = internal constant [29 x i8] c"expressions not equal, left: "
@str3025 = internal constant [9 x i8] c", right: "
@"_ZN4comm7oneshot20Packet$LT$T$GT$.Drop4drop15__STATIC_FMTSTR20h6a11ad9540bb3ad7TMcE" = internal unnamed_addr constant { { i8, %str_slice, [48 x i8] }, { i8, { { i8, [15 x i8] }, { i32, i8, i64, { i8, [15 x i8] }, { i8, [15 x i8] } } }, [0 x i8] }, { i8, %str_slice, [48 x i8] }, { i8, { { i8, [15 x i8] }, { i32, i8, i64, { i8, [15 x i8] }, { i8, [15 x i8] } } }, [0 x i8] } } { { i8, %str_slice, [48 x i8] } { i8 0, %str_slice { i8* getelementptr inbounds ([29 x i8]* @str3024, i32 0, i32 0), i64 29 }, [48 x i8] undef }, { i8, { { i8, [15 x i8] }, { i32, i8, i64, { i8, [15 x i8] }, { i8, [15 x i8] } } }, [0 x i8] } { i8 1, { { i8, [15 x i8] }, { i32, i8, i64, { i8, [15 x i8] }, { i8, [15 x i8] } } } { { i8, [15 x i8] } { i8 0, [15 x i8] undef }, { i32, i8, i64, { i8, [15 x i8] }, { i8, [15 x i8] } } { i32 32, i8 2, i64 0, { i8, [15 x i8] } { i8 3, [15 x i8] undef }, { i8, [15 x i8] } { i8 3, [15 x i8] undef } } }, [0 x i8] undef }, { i8, %str_slice, [48 x i8] } { i8 0, %str_slice { i8* getelementptr inbounds ([9 x i8]* @str3025, i32 0, i32 0), i64 9 }, [48 x i8] undef }, { i8, { { i8, [15 x i8] }, { i32, i8, i64, { i8, [15 x i8] }, { i8, [15 x i8] } } }, [0 x i8] } { i8 1, { { i8, [15 x i8] }, { i32, i8, i64, { i8, [15 x i8] }, { i8, [15 x i8] } } } { { i8, [15 x i8] } { i8 0, [15 x i8] undef }, { i32, i8, i64, { i8, [15 x i8] }, { i8, [15 x i8] } } { i32 32, i8 2, i64 0, { i8, [15 x i8] } { i8 3, [15 x i8] undef }, { i8, [15 x i8] } { i8 3, [15 x i8] undef } } }, [0 x i8] undef } }
@str3027 = internal constant [86 x i8] c"/Users/rustbuild/src/rust-buildbot/slave/nightly-mac/build/src/libsync/comm/oneshot.rs"
@"_ZN4comm7oneshot20Packet$LT$T$GT$.Drop4drop8_run_fmt10_FILE_LINE20heedd677b49688ad9rMcE" = available_externally constant { %str_slice, i64 } { %str_slice { i8* getelementptr inbounds ([86 x i8]* @str3027, i32 0, i32 0), i64 86 }, i64 370 }
@str3079 = internal constant [48 x i8] c"called `Option::take_unwrap()` on a `None` value"
@"_ZN6option15Option$LT$T$GT$11take_unwrap15__STATIC_FMTSTR20h79b308b23b8faec4KDmE" = internal unnamed_addr constant { { i8, { { i8, [15 x i8] }, { i32, i8, i64, { i8, [15 x i8] }, { i8, [15 x i8] } } }, [0 x i8] } } { { i8, { { i8, [15 x i8] }, { i32, i8, i64, { i8, [15 x i8] }, { i8, [15 x i8] } } }, [0 x i8] } { i8 1, { { i8, [15 x i8] }, { i32, i8, i64, { i8, [15 x i8] }, { i8, [15 x i8] } } } { { i8, [15 x i8] } { i8 0, [15 x i8] undef }, { i32, i8, i64, { i8, [15 x i8] }, { i8, [15 x i8] } } { i32 32, i8 2, i64 0, { i8, [15 x i8] } { i8 3, [15 x i8] undef }, { i8, [15 x i8] } { i8 3, [15 x i8] undef } } }, [0 x i8] undef } }
@"_ZN6option15Option$LT$T$GT$11take_unwrap8_run_fmt10_FILE_LINE20h9519b9138055b1fdlDmE" = available_externally constant { %str_slice, i64 } { %str_slice { i8* getelementptr inbounds ([80 x i8]* @str2639, i32 0, i32 0), i64 80 }, i64 440 }
@"_ZN4comm7oneshot15Packet$LT$T$GT$9drop_port15__STATIC_FMTSTR20hed13cac4520e738cjDcE" = internal unnamed_addr constant { { i8, { { i8, [15 x i8] }, { i32, i8, i64, { i8, [15 x i8] }, { i8, [15 x i8] } } }, [0 x i8] } } { { i8, { { i8, [15 x i8] }, { i32, i8, i64, { i8, [15 x i8] }, { i8, [15 x i8] } } }, [0 x i8] } { i8 1, { { i8, [15 x i8] }, { i32, i8, i64, { i8, [15 x i8] }, { i8, [15 x i8] } } } { { i8, [15 x i8] } { i8 0, [15 x i8] undef }, { i32, i8, i64, { i8, [15 x i8] }, { i8, [15 x i8] } } { i32 32, i8 2, i64 0, { i8, [15 x i8] } { i8 3, [15 x i8] undef }, { i8, [15 x i8] } { i8 3, [15 x i8] undef } } }, [0 x i8] undef } }
@"_ZN4comm7oneshot15Packet$LT$T$GT$9drop_port8_run_fmt10_FILE_LINE20heedd677b49688ad9UCcE" = available_externally constant { %str_slice, i64 } { %str_slice { i8* getelementptr inbounds ([86 x i8]* @str3027, i32 0, i32 0), i64 86 }, i64 250 }
@_ZN6atomic9UINT_TRUE20h6a46217bd556340bXTiE = available_externally constant i64 -1
@str3101 = internal constant [41 x i8] c"assertion failed: (*next).value.is_some()"
@"_ZN10spsc_queue14Queue$LT$T$GT$3pop15__STATIC_FMTSTR20hed13cac4520e738cxuaE" = internal unnamed_addr constant { { i8, { { i8, [15 x i8] }, { i32, i8, i64, { i8, [15 x i8] }, { i8, [15 x i8] } } }, [0 x i8] } } { { i8, { { i8, [15 x i8] }, { i32, i8, i64, { i8, [15 x i8] }, { i8, [15 x i8] } } }, [0 x i8] } { i8 1, { { i8, [15 x i8] }, { i32, i8, i64, { i8, [15 x i8] }, { i8, [15 x i8] } } } { { i8, [15 x i8] } { i8 0, [15 x i8] undef }, { i32, i8, i64, { i8, [15 x i8] }, { i8, [15 x i8] } } { i32 32, i8 2, i64 0, { i8, [15 x i8] } { i8 3, [15 x i8] undef }, { i8, [15 x i8] } { i8 3, [15 x i8] undef } } }, [0 x i8] undef } }
@str3103 = internal constant [84 x i8] c"/Users/rustbuild/src/rust-buildbot/slave/nightly-mac/build/src/libsync/spsc_queue.rs"
@"_ZN10spsc_queue14Queue$LT$T$GT$3pop8_run_fmt10_FILE_LINE20heedd677b49688ad98taE" = available_externally constant { %str_slice, i64 } { %str_slice { i8* getelementptr inbounds ([84 x i8]* @str3103, i32 0, i32 0), i64 84 }, i64 236 }
@str3131 = internal constant [41 x i8] c"assertion failed: (*tail).value.is_none()"
@"_ZN10mpsc_queue14Queue$LT$T$GT$3pop15__STATIC_FMTSTR20hed13cac4520e738ckCaE" = internal unnamed_addr constant { { i8, { { i8, [15 x i8] }, { i32, i8, i64, { i8, [15 x i8] }, { i8, [15 x i8] } } }, [0 x i8] } } { { i8, { { i8, [15 x i8] }, { i32, i8, i64, { i8, [15 x i8] }, { i8, [15 x i8] } } }, [0 x i8] } { i8 1, { { i8, [15 x i8] }, { i32, i8, i64, { i8, [15 x i8] }, { i8, [15 x i8] } } } { { i8, [15 x i8] } { i8 0, [15 x i8] undef }, { i32, i8, i64, { i8, [15 x i8] }, { i8, [15 x i8] } } { i32 32, i8 2, i64 0, { i8, [15 x i8] } { i8 3, [15 x i8] undef }, { i8, [15 x i8] } { i8 3, [15 x i8] undef } } }, [0 x i8] undef } }
@str3133 = internal constant [84 x i8] c"/Users/rustbuild/src/rust-buildbot/slave/nightly-mac/build/src/libsync/mpsc_queue.rs"
@"_ZN10mpsc_queue14Queue$LT$T$GT$3pop8_run_fmt10_FILE_LINE20heedd677b49688ad9VBaE" = available_externally constant { %str_slice, i64 } { %str_slice { i8* getelementptr inbounds ([84 x i8]* @str3133, i32 0, i32 0), i64 84 }, i64 123 }
@"_ZN10mpsc_queue14Queue$LT$T$GT$3pop15__STATIC_FMTSTR20hed13cac4520e738cJDaE" = internal unnamed_addr constant { { i8, { { i8, [15 x i8] }, { i32, i8, i64, { i8, [15 x i8] }, { i8, [15 x i8] } } }, [0 x i8] } } { { i8, { { i8, [15 x i8] }, { i32, i8, i64, { i8, [15 x i8] }, { i8, [15 x i8] } } }, [0 x i8] } { i8 1, { { i8, [15 x i8] }, { i32, i8, i64, { i8, [15 x i8] }, { i8, [15 x i8] } } } { { i8, [15 x i8] } { i8 0, [15 x i8] undef }, { i32, i8, i64, { i8, [15 x i8] }, { i8, [15 x i8] } } { i32 32, i8 2, i64 0, { i8, [15 x i8] } { i8 3, [15 x i8] undef }, { i8, [15 x i8] } { i8 3, [15 x i8] undef } } }, [0 x i8] undef } }
@"_ZN10mpsc_queue14Queue$LT$T$GT$3pop8_run_fmt10_FILE_LINE20heedd677b49688ad9kDaE" = available_externally constant { %str_slice, i64 } { %str_slice { i8* getelementptr inbounds ([84 x i8]* @str3133, i32 0, i32 0), i64 84 }, i64 124 }
@"_ZN4comm4sync15Packet$LT$T$GT$9drop_port15__STATIC_FMTSTR20hed13cac4520e738ca2eE" = internal unnamed_addr constant { { i8, { { i8, [15 x i8] }, { i32, i8, i64, { i8, [15 x i8] }, { i8, [15 x i8] } } }, [0 x i8] } } { { i8, { { i8, [15 x i8] }, { i32, i8, i64, { i8, [15 x i8] }, { i8, [15 x i8] } } }, [0 x i8] } { i8 1, { { i8, [15 x i8] }, { i32, i8, i64, { i8, [15 x i8] }, { i8, [15 x i8] } } } { { i8, [15 x i8] } { i8 0, [15 x i8] undef }, { i32, i8, i64, { i8, [15 x i8] }, { i8, [15 x i8] } } { i32 32, i8 2, i64 0, { i8, [15 x i8] } { i8 3, [15 x i8] undef }, { i8, [15 x i8] } { i8 3, [15 x i8] undef } } }, [0 x i8] undef } }
@str3181 = internal constant [83 x i8] c"/Users/rustbuild/src/rust-buildbot/slave/nightly-mac/build/src/libsync/comm/sync.rs"
@"_ZN4comm4sync15Packet$LT$T$GT$9drop_port8_run_fmt10_FILE_LINE20heedd677b49688ad9L1eE" = available_externally constant { %str_slice, i64 } { %str_slice { i8* getelementptr inbounds ([83 x i8]* @str3181, i32 0, i32 0), i64 83 }, i64 354 }
@"_ZN4comm6stream20Packet$LT$T$GT$.Drop4drop15__STATIC_FMTSTR20h6a11ad9540bb3ad7NveE" = internal unnamed_addr constant { { i8, %str_slice, [48 x i8] }, { i8, { { i8, [15 x i8] }, { i32, i8, i64, { i8, [15 x i8] }, { i8, [15 x i8] } } }, [0 x i8] }, { i8, %str_slice, [48 x i8] }, { i8, { { i8, [15 x i8] }, { i32, i8, i64, { i8, [15 x i8] }, { i8, [15 x i8] } } }, [0 x i8] } } { { i8, %str_slice, [48 x i8] } { i8 0, %str_slice { i8* getelementptr inbounds ([29 x i8]* @str3024, i32 0, i32 0), i64 29 }, [48 x i8] undef }, { i8, { { i8, [15 x i8] }, { i32, i8, i64, { i8, [15 x i8] }, { i8, [15 x i8] } } }, [0 x i8] } { i8 1, { { i8, [15 x i8] }, { i32, i8, i64, { i8, [15 x i8] }, { i8, [15 x i8] } } } { { i8, [15 x i8] } { i8 0, [15 x i8] undef }, { i32, i8, i64, { i8, [15 x i8] }, { i8, [15 x i8] } } { i32 32, i8 2, i64 0, { i8, [15 x i8] } { i8 3, [15 x i8] undef }, { i8, [15 x i8] } { i8 3, [15 x i8] undef } } }, [0 x i8] undef }, { i8, %str_slice, [48 x i8] } { i8 0, %str_slice { i8* getelementptr inbounds ([9 x i8]* @str3025, i32 0, i32 0), i64 9 }, [48 x i8] undef }, { i8, { { i8, [15 x i8] }, { i32, i8, i64, { i8, [15 x i8] }, { i8, [15 x i8] } } }, [0 x i8] } { i8 1, { { i8, [15 x i8] }, { i32, i8, i64, { i8, [15 x i8] }, { i8, [15 x i8] } } } { { i8, [15 x i8] } { i8 0, [15 x i8] undef }, { i32, i8, i64, { i8, [15 x i8] }, { i8, [15 x i8] } } { i32 32, i8 2, i64 0, { i8, [15 x i8] } { i8 3, [15 x i8] undef }, { i8, [15 x i8] } { i8 3, [15 x i8] undef } } }, [0 x i8] undef } }
@"_ZN4comm6stream20Packet$LT$T$GT$.Drop4drop8_run_fmt10_FILE_LINE20heedd677b49688ad9lveE" = available_externally constant { %str_slice, i64 } { %str_slice { i8* getelementptr inbounds ([85 x i8]* @str2985, i32 0, i32 0), i64 85 }, i64 478 }
@"_ZN4comm6stream20Packet$LT$T$GT$.Drop4drop15__STATIC_FMTSTR20h6a11ad9540bb3ad7QxeE" = internal unnamed_addr constant { { i8, %str_slice, [48 x i8] }, { i8, { { i8, [15 x i8] }, { i32, i8, i64, { i8, [15 x i8] }, { i8, [15 x i8] } } }, [0 x i8] }, { i8, %str_slice, [48 x i8] }, { i8, { { i8, [15 x i8] }, { i32, i8, i64, { i8, [15 x i8] }, { i8, [15 x i8] } } }, [0 x i8] } } { { i8, %str_slice, [48 x i8] } { i8 0, %str_slice { i8* getelementptr inbounds ([29 x i8]* @str3024, i32 0, i32 0), i64 29 }, [48 x i8] undef }, { i8, { { i8, [15 x i8] }, { i32, i8, i64, { i8, [15 x i8] }, { i8, [15 x i8] } } }, [0 x i8] } { i8 1, { { i8, [15 x i8] }, { i32, i8, i64, { i8, [15 x i8] }, { i8, [15 x i8] } } } { { i8, [15 x i8] } { i8 0, [15 x i8] undef }, { i32, i8, i64, { i8, [15 x i8] }, { i8, [15 x i8] } } { i32 32, i8 2, i64 0, { i8, [15 x i8] } { i8 3, [15 x i8] undef }, { i8, [15 x i8] } { i8 3, [15 x i8] undef } } }, [0 x i8] undef }, { i8, %str_slice, [48 x i8] } { i8 0, %str_slice { i8* getelementptr inbounds ([9 x i8]* @str3025, i32 0, i32 0), i64 9 }, [48 x i8] undef }, { i8, { { i8, [15 x i8] }, { i32, i8, i64, { i8, [15 x i8] }, { i8, [15 x i8] } } }, [0 x i8] } { i8 1, { { i8, [15 x i8] }, { i32, i8, i64, { i8, [15 x i8] }, { i8, [15 x i8] } } } { { i8, [15 x i8] } { i8 0, [15 x i8] undef }, { i32, i8, i64, { i8, [15 x i8] }, { i8, [15 x i8] } } { i32 32, i8 2, i64 0, { i8, [15 x i8] } { i8 3, [15 x i8] undef }, { i8, [15 x i8] } { i8 3, [15 x i8] undef } } }, [0 x i8] undef } }
@"_ZN4comm6stream20Packet$LT$T$GT$.Drop4drop8_run_fmt10_FILE_LINE20heedd677b49688ad9oxeE" = available_externally constant { %str_slice, i64 } { %str_slice { i8* getelementptr inbounds ([85 x i8]* @str2985, i32 0, i32 0), i64 85 }, i64 479 }
@"_ZN4comm6shared20Packet$LT$T$GT$.Drop4drop15__STATIC_FMTSTR20h6a11ad9540bb3ad7BLdE" = internal unnamed_addr constant { { i8, %str_slice, [48 x i8] }, { i8, { { i8, [15 x i8] }, { i32, i8, i64, { i8, [15 x i8] }, { i8, [15 x i8] } } }, [0 x i8] }, { i8, %str_slice, [48 x i8] }, { i8, { { i8, [15 x i8] }, { i32, i8, i64, { i8, [15 x i8] }, { i8, [15 x i8] } } }, [0 x i8] } } { { i8, %str_slice, [48 x i8] } { i8 0, %str_slice { i8* getelementptr inbounds ([29 x i8]* @str3024, i32 0, i32 0), i64 29 }, [48 x i8] undef }, { i8, { { i8, [15 x i8] }, { i32, i8, i64, { i8, [15 x i8] }, { i8, [15 x i8] } } }, [0 x i8] } { i8 1, { { i8, [15 x i8] }, { i32, i8, i64, { i8, [15 x i8] }, { i8, [15 x i8] } } } { { i8, [15 x i8] } { i8 0, [15 x i8] undef }, { i32, i8, i64, { i8, [15 x i8] }, { i8, [15 x i8] } } { i32 32, i8 2, i64 0, { i8, [15 x i8] } { i8 3, [15 x i8] undef }, { i8, [15 x i8] } { i8 3, [15 x i8] undef } } }, [0 x i8] undef }, { i8, %str_slice, [48 x i8] } { i8 0, %str_slice { i8* getelementptr inbounds ([9 x i8]* @str3025, i32 0, i32 0), i64 9 }, [48 x i8] undef }, { i8, { { i8, [15 x i8] }, { i32, i8, i64, { i8, [15 x i8] }, { i8, [15 x i8] } } }, [0 x i8] } { i8 1, { { i8, [15 x i8] }, { i32, i8, i64, { i8, [15 x i8] }, { i8, [15 x i8] } } } { { i8, [15 x i8] } { i8 0, [15 x i8] undef }, { i32, i8, i64, { i8, [15 x i8] }, { i8, [15 x i8] } } { i32 32, i8 2, i64 0, { i8, [15 x i8] } { i8 3, [15 x i8] undef }, { i8, [15 x i8] } { i8 3, [15 x i8] undef } } }, [0 x i8] undef } }
@"_ZN4comm6shared20Packet$LT$T$GT$.Drop4drop8_run_fmt10_FILE_LINE20heedd677b49688ad99KdE" = available_externally constant { %str_slice, i64 } { %str_slice { i8* getelementptr inbounds ([85 x i8]* @str2996, i32 0, i32 0), i64 85 }, i64 498 }
@"_ZN4comm6shared20Packet$LT$T$GT$.Drop4drop15__STATIC_FMTSTR20h6a11ad9540bb3ad7ENdE" = internal unnamed_addr constant { { i8, %str_slice, [48 x i8] }, { i8, { { i8, [15 x i8] }, { i32, i8, i64, { i8, [15 x i8] }, { i8, [15 x i8] } } }, [0 x i8] }, { i8, %str_slice, [48 x i8] }, { i8, { { i8, [15 x i8] }, { i32, i8, i64, { i8, [15 x i8] }, { i8, [15 x i8] } } }, [0 x i8] } } { { i8, %str_slice, [48 x i8] } { i8 0, %str_slice { i8* getelementptr inbounds ([29 x i8]* @str3024, i32 0, i32 0), i64 29 }, [48 x i8] undef }, { i8, { { i8, [15 x i8] }, { i32, i8, i64, { i8, [15 x i8] }, { i8, [15 x i8] } } }, [0 x i8] } { i8 1, { { i8, [15 x i8] }, { i32, i8, i64, { i8, [15 x i8] }, { i8, [15 x i8] } } } { { i8, [15 x i8] } { i8 0, [15 x i8] undef }, { i32, i8, i64, { i8, [15 x i8] }, { i8, [15 x i8] } } { i32 32, i8 2, i64 0, { i8, [15 x i8] } { i8 3, [15 x i8] undef }, { i8, [15 x i8] } { i8 3, [15 x i8] undef } } }, [0 x i8] undef }, { i8, %str_slice, [48 x i8] } { i8 0, %str_slice { i8* getelementptr inbounds ([9 x i8]* @str3025, i32 0, i32 0), i64 9 }, [48 x i8] undef }, { i8, { { i8, [15 x i8] }, { i32, i8, i64, { i8, [15 x i8] }, { i8, [15 x i8] } } }, [0 x i8] } { i8 1, { { i8, [15 x i8] }, { i32, i8, i64, { i8, [15 x i8] }, { i8, [15 x i8] } } } { { i8, [15 x i8] } { i8 0, [15 x i8] undef }, { i32, i8, i64, { i8, [15 x i8] }, { i8, [15 x i8] } } { i32 32, i8 2, i64 0, { i8, [15 x i8] } { i8 3, [15 x i8] undef }, { i8, [15 x i8] } { i8 3, [15 x i8] undef } } }, [0 x i8] undef } }
@"_ZN4comm6shared20Packet$LT$T$GT$.Drop4drop8_run_fmt10_FILE_LINE20heedd677b49688ad9cNdE" = available_externally constant { %str_slice, i64 } { %str_slice { i8* getelementptr inbounds ([85 x i8]* @str2996, i32 0, i32 0), i64 85 }, i64 499 }
@"_ZN4comm6shared20Packet$LT$T$GT$.Drop4drop15__STATIC_FMTSTR20h6a11ad9540bb3ad7HPdE" = internal unnamed_addr constant { { i8, %str_slice, [48 x i8] }, { i8, { { i8, [15 x i8] }, { i32, i8, i64, { i8, [15 x i8] }, { i8, [15 x i8] } } }, [0 x i8] }, { i8, %str_slice, [48 x i8] }, { i8, { { i8, [15 x i8] }, { i32, i8, i64, { i8, [15 x i8] }, { i8, [15 x i8] } } }, [0 x i8] } } { { i8, %str_slice, [48 x i8] } { i8 0, %str_slice { i8* getelementptr inbounds ([29 x i8]* @str3024, i32 0, i32 0), i64 29 }, [48 x i8] undef }, { i8, { { i8, [15 x i8] }, { i32, i8, i64, { i8, [15 x i8] }, { i8, [15 x i8] } } }, [0 x i8] } { i8 1, { { i8, [15 x i8] }, { i32, i8, i64, { i8, [15 x i8] }, { i8, [15 x i8] } } } { { i8, [15 x i8] } { i8 0, [15 x i8] undef }, { i32, i8, i64, { i8, [15 x i8] }, { i8, [15 x i8] } } { i32 32, i8 2, i64 0, { i8, [15 x i8] } { i8 3, [15 x i8] undef }, { i8, [15 x i8] } { i8 3, [15 x i8] undef } } }, [0 x i8] undef }, { i8, %str_slice, [48 x i8] } { i8 0, %str_slice { i8* getelementptr inbounds ([9 x i8]* @str3025, i32 0, i32 0), i64 9 }, [48 x i8] undef }, { i8, { { i8, [15 x i8] }, { i32, i8, i64, { i8, [15 x i8] }, { i8, [15 x i8] } } }, [0 x i8] } { i8 1, { { i8, [15 x i8] }, { i32, i8, i64, { i8, [15 x i8] }, { i8, [15 x i8] } } } { { i8, [15 x i8] } { i8 0, [15 x i8] undef }, { i32, i8, i64, { i8, [15 x i8] }, { i8, [15 x i8] } } { i32 32, i8 2, i64 0, { i8, [15 x i8] } { i8 3, [15 x i8] undef }, { i8, [15 x i8] } { i8 3, [15 x i8] undef } } }, [0 x i8] undef } }
@"_ZN4comm6shared20Packet$LT$T$GT$.Drop4drop8_run_fmt10_FILE_LINE20heedd677b49688ad9fPdE" = available_externally constant { %str_slice, i64 } { %str_slice { i8* getelementptr inbounds ([85 x i8]* @str2996, i32 0, i32 0), i64 85 }, i64 500 }
@"_ZN4comm4sync20Packet$LT$T$GT$.Drop4drop15__STATIC_FMTSTR20h6a11ad9540bb3ad7p9eE" = internal unnamed_addr constant { { i8, %str_slice, [48 x i8] }, { i8, { { i8, [15 x i8] }, { i32, i8, i64, { i8, [15 x i8] }, { i8, [15 x i8] } } }, [0 x i8] }, { i8, %str_slice, [48 x i8] }, { i8, { { i8, [15 x i8] }, { i32, i8, i64, { i8, [15 x i8] }, { i8, [15 x i8] } } }, [0 x i8] } } { { i8, %str_slice, [48 x i8] } { i8 0, %str_slice { i8* getelementptr inbounds ([29 x i8]* @str3024, i32 0, i32 0), i64 29 }, [48 x i8] undef }, { i8, { { i8, [15 x i8] }, { i32, i8, i64, { i8, [15 x i8] }, { i8, [15 x i8] } } }, [0 x i8] } { i8 1, { { i8, [15 x i8] }, { i32, i8, i64, { i8, [15 x i8] }, { i8, [15 x i8] } } } { { i8, [15 x i8] } { i8 0, [15 x i8] undef }, { i32, i8, i64, { i8, [15 x i8] }, { i8, [15 x i8] } } { i32 32, i8 2, i64 0, { i8, [15 x i8] } { i8 3, [15 x i8] undef }, { i8, [15 x i8] } { i8 3, [15 x i8] undef } } }, [0 x i8] undef }, { i8, %str_slice, [48 x i8] } { i8 0, %str_slice { i8* getelementptr inbounds ([9 x i8]* @str3025, i32 0, i32 0), i64 9 }, [48 x i8] undef }, { i8, { { i8, [15 x i8] }, { i32, i8, i64, { i8, [15 x i8] }, { i8, [15 x i8] } } }, [0 x i8] } { i8 1, { { i8, [15 x i8] }, { i32, i8, i64, { i8, [15 x i8] }, { i8, [15 x i8] } } } { { i8, [15 x i8] } { i8 0, [15 x i8] undef }, { i32, i8, i64, { i8, [15 x i8] }, { i8, [15 x i8] } } { i32 32, i8 2, i64 0, { i8, [15 x i8] } { i8 3, [15 x i8] undef }, { i8, [15 x i8] } { i8 3, [15 x i8] undef } } }, [0 x i8] undef } }
@"_ZN4comm4sync20Packet$LT$T$GT$.Drop4drop8_run_fmt10_FILE_LINE20heedd677b49688ad9X8eE" = available_externally constant { %str_slice, i64 } { %str_slice { i8* getelementptr inbounds ([83 x i8]* @str3181, i32 0, i32 0), i64 83 }, i64 414 }
@str3240 = internal constant [49 x i8] c"assertion failed: state.queue.dequeue().is_none()"
@"_ZN4comm4sync20Packet$LT$T$GT$.Drop4drop15__STATIC_FMTSTR20hed13cac4520e738cfbfE" = internal unnamed_addr constant { { i8, { { i8, [15 x i8] }, { i32, i8, i64, { i8, [15 x i8] }, { i8, [15 x i8] } } }, [0 x i8] } } { { i8, { { i8, [15 x i8] }, { i32, i8, i64, { i8, [15 x i8] }, { i8, [15 x i8] } } }, [0 x i8] } { i8 1, { { i8, [15 x i8] }, { i32, i8, i64, { i8, [15 x i8] }, { i8, [15 x i8] } } } { { i8, [15 x i8] } { i8 0, [15 x i8] undef }, { i32, i8, i64, { i8, [15 x i8] }, { i8, [15 x i8] } } { i32 32, i8 2, i64 0, { i8, [15 x i8] } { i8 3, [15 x i8] undef }, { i8, [15 x i8] } { i8 3, [15 x i8] undef } } }, [0 x i8] undef } }
@"_ZN4comm4sync20Packet$LT$T$GT$.Drop4drop8_run_fmt10_FILE_LINE20heedd677b49688ad9QafE" = available_externally constant { %str_slice, i64 } { %str_slice { i8* getelementptr inbounds ([83 x i8]* @str3181, i32 0, i32 0), i64 83 }, i64 416 }
@str3241 = internal constant [42 x i8] c"assertion failed: state.canceled.is_none()"
@"_ZN4comm4sync20Packet$LT$T$GT$.Drop4drop15__STATIC_FMTSTR20hed13cac4520e738cCcfE" = internal unnamed_addr constant { { i8, { { i8, [15 x i8] }, { i32, i8, i64, { i8, [15 x i8] }, { i8, [15 x i8] } } }, [0 x i8] } } { { i8, { { i8, [15 x i8] }, { i32, i8, i64, { i8, [15 x i8] }, { i8, [15 x i8] } } }, [0 x i8] } { i8 1, { { i8, [15 x i8] }, { i32, i8, i64, { i8, [15 x i8] }, { i8, [15 x i8] } } } { { i8, [15 x i8] } { i8 0, [15 x i8] undef }, { i32, i8, i64, { i8, [15 x i8] }, { i8, [15 x i8] } } { i32 32, i8 2, i64 0, { i8, [15 x i8] } { i8 3, [15 x i8] undef }, { i8, [15 x i8] } { i8 3, [15 x i8] undef } } }, [0 x i8] undef } }
@"_ZN4comm4sync20Packet$LT$T$GT$.Drop4drop8_run_fmt10_FILE_LINE20heedd677b49688ad9dcfE" = available_externally constant { %str_slice, i64 } { %str_slice { i8* getelementptr inbounds ([83 x i8]* @str3181, i32 0, i32 0), i64 83 }, i64 417 }
@vtable3303 = internal constant { void (%"struct.regex::parse::Error<[]>[#10]"**)*, %"struct.core::intrinsics::TypeId<[]>[#3]" (%"struct.regex::parse::Error<[]>[#10]"*)* } { void (%"struct.regex::parse::Error<[]>[#10]"**)* @"_ZN30Box$LT$regex..parse..Error$GT$14glue_drop.330117hd80557ae3e77a12eE", %"struct.core::intrinsics::TypeId<[]>[#3]" (%"struct.regex::parse::Error<[]>[#10]"*)* @_ZN3any12T.AnyPrivate11get_type_id21h10979257856040556061E }
@_ZN5HyObj12hy_new_regex10_FILE_LINE20h1300df55bb5326a94raE = internal constant { %str_slice, i64 } { %str_slice { i8* getelementptr inbounds ([52 x i8]* @str2352, i32 0, i32 0), i64 52 }, i64 286 }
@str3307 = internal constant [53 x i8] c"Regular expression constructors take a string pattern"
@_ZN5HyObj12hy_new_regex10_FILE_LINE20h1300df55bb5326a9osaE = internal constant { %str_slice, i64 } { %str_slice { i8* getelementptr inbounds ([52 x i8]* @str2352, i32 0, i32 0), i64 52 }, i64 289 }
@_ZN4comm7oneshot5EMPTY20h658a6de3c86d9c83smcE = available_externally constant i64 0
@str3354 = internal constant [27 x i8] c"+ only defined for ints atm"
@_ZN5HyObj9hy_add_op10_FILE_LINE20h1300df55bb5326a9QuaE = internal constant { %str_slice, i64 } { %str_slice { i8* getelementptr inbounds ([52 x i8]* @str2352, i32 0, i32 0), i64 52 }, i64 350 }
@_ZN5HyObj9hy_add_op10_FILE_LINE20h1300df55bb5326a9cvaE = internal constant { %str_slice, i64 } { %str_slice { i8* getelementptr inbounds ([52 x i8]* @str2352, i32 0, i32 0), i64 52 }, i64 355 }
@str3355 = internal constant [27 x i8] c"- only defined for ints atm"
@_ZN5HyObj9hy_sub_op10_FILE_LINE20h1300df55bb5326a93vaE = internal constant { %str_slice, i64 } { %str_slice { i8* getelementptr inbounds ([52 x i8]* @str2352, i32 0, i32 0), i64 52 }, i64 368 }
@_ZN5HyObj9hy_sub_op10_FILE_LINE20h1300df55bb5326a9nwaE = internal constant { %str_slice, i64 } { %str_slice { i8* getelementptr inbounds ([52 x i8]* @str2352, i32 0, i32 0), i64 52 }, i64 371 }
@str3356 = internal constant [27 x i8] c"* only defined for ints atm"
@_ZN5HyObj9hy_mul_op10_FILE_LINE20h1300df55bb5326a9exaE = internal constant { %str_slice, i64 } { %str_slice { i8* getelementptr inbounds ([52 x i8]* @str2352, i32 0, i32 0), i64 52 }, i64 383 }
@_ZN5HyObj9hy_mul_op10_FILE_LINE20h1300df55bb5326a9yxaE = internal constant { %str_slice, i64 } { %str_slice { i8* getelementptr inbounds ([52 x i8]* @str2352, i32 0, i32 0), i64 52 }, i64 386 }
@str3357 = internal constant [27 x i8] c"attempted to divide by zero"
@const = private constant { %str_slice, %str_slice, i64 } { %str_slice { i8* getelementptr inbounds ([27 x i8]* @str3357, i32 0, i32 0), i64 27 }, %str_slice { i8* getelementptr inbounds ([52 x i8]* @str2352, i32 0, i32 0), i64 52 }, i64 396 }
@str3359 = internal constant [33 x i8] c"attempted to divide with overflow"
@const1 = private constant { %str_slice, %str_slice, i64 } { %str_slice { i8* getelementptr inbounds ([33 x i8]* @str3359, i32 0, i32 0), i64 33 }, %str_slice { i8* getelementptr inbounds ([52 x i8]* @str2352, i32 0, i32 0), i64 52 }, i64 396 }
@str3360 = internal constant [27 x i8] c"/ only defined for ints atm"
@_ZN5HyObj9hy_div_op10_FILE_LINE20h1300df55bb5326a9pyaE = internal constant { %str_slice, i64 } { %str_slice { i8* getelementptr inbounds ([52 x i8]* @str2352, i32 0, i32 0), i64 52 }, i64 398 }
@_ZN5HyObj9hy_div_op10_FILE_LINE20h1300df55bb5326a9JyaE = internal constant { %str_slice, i64 } { %str_slice { i8* getelementptr inbounds ([52 x i8]* @str2352, i32 0, i32 0), i64 52 }, i64 401 }
@str3361 = internal constant [42 x i8] c"attempted remainder with a divisor of zero"
@const2 = private constant { %str_slice, %str_slice, i64 } { %str_slice { i8* getelementptr inbounds ([42 x i8]* @str3361, i32 0, i32 0), i64 42 }, %str_slice { i8* getelementptr inbounds ([52 x i8]* @str2352, i32 0, i32 0), i64 52 }, i64 411 }
@str3362 = internal constant [33 x i8] c"attempted remainder with overflow"
@const3 = private constant { %str_slice, %str_slice, i64 } { %str_slice { i8* getelementptr inbounds ([33 x i8]* @str3362, i32 0, i32 0), i64 33 }, %str_slice { i8* getelementptr inbounds ([52 x i8]* @str2352, i32 0, i32 0), i64 52 }, i64 411 }
@str3363 = internal constant [27 x i8] c"% only defined for ints atm"
@_ZN5HyObj9hy_mod_op10_FILE_LINE20h1300df55bb5326a9AzaE = internal constant { %str_slice, i64 } { %str_slice { i8* getelementptr inbounds ([52 x i8]* @str2352, i32 0, i32 0), i64 52 }, i64 413 }
@_ZN5HyObj9hy_mod_op10_FILE_LINE20h1300df55bb5326a9UzaE = internal constant { %str_slice, i64 } { %str_slice { i8* getelementptr inbounds ([52 x i8]* @str2352, i32 0, i32 0), i64 52 }, i64 416 }
@str3364 = internal constant [27 x i8] c"< only defined for ints atm"
@_ZN5HyObj8hy_lt_op10_FILE_LINE20h1300df55bb5326a9LAaE = internal constant { %str_slice, i64 } { %str_slice { i8* getelementptr inbounds ([52 x i8]* @str2352, i32 0, i32 0), i64 52 }, i64 428 }
@_ZN5HyObj8hy_lt_op10_FILE_LINE20h1300df55bb5326a95AaE = internal constant { %str_slice, i64 } { %str_slice { i8* getelementptr inbounds ([52 x i8]* @str2352, i32 0, i32 0), i64 52 }, i64 431 }
@str3365 = internal constant [27 x i8] c"> only defined for ints atm"
@_ZN5HyObj8hy_gt_op10_FILE_LINE20h1300df55bb5326a9WBaE = internal constant { %str_slice, i64 } { %str_slice { i8* getelementptr inbounds ([52 x i8]* @str2352, i32 0, i32 0), i64 52 }, i64 443 }
@_ZN5HyObj8hy_gt_op10_FILE_LINE20h1300df55bb5326a9gCaE = internal constant { %str_slice, i64 } { %str_slice { i8* getelementptr inbounds ([52 x i8]* @str2352, i32 0, i32 0), i64 52 }, i64 446 }
@str3366 = internal constant [28 x i8] c"<= only defined for ints atm"
@_ZN5HyObj11hy_lt_eq_op10_FILE_LINE20h1300df55bb5326a97CaE = internal constant { %str_slice, i64 } { %str_slice { i8* getelementptr inbounds ([52 x i8]* @str2352, i32 0, i32 0), i64 52 }, i64 458 }
@_ZN5HyObj11hy_lt_eq_op10_FILE_LINE20h1300df55bb5326a9rDaE = internal constant { %str_slice, i64 } { %str_slice { i8* getelementptr inbounds ([52 x i8]* @str2352, i32 0, i32 0), i64 52 }, i64 461 }
@str3367 = internal constant [28 x i8] c">= only defined for ints atm"
@_ZN5HyObj11hy_gt_eq_op10_FILE_LINE20h1300df55bb5326a9iEaE = internal constant { %str_slice, i64 } { %str_slice { i8* getelementptr inbounds ([52 x i8]* @str2352, i32 0, i32 0), i64 52 }, i64 473 }
@_ZN5HyObj11hy_gt_eq_op10_FILE_LINE20h1300df55bb5326a9CEaE = internal constant { %str_slice, i64 } { %str_slice { i8* getelementptr inbounds ([52 x i8]* @str2352, i32 0, i32 0), i64 52 }, i64 476 }
@str3368 = internal constant [28 x i8] c"== only defined for ints atm"
@_ZN5HyObj8hy_eq_op10_FILE_LINE20h1300df55bb5326a9tFaE = internal constant { %str_slice, i64 } { %str_slice { i8* getelementptr inbounds ([52 x i8]* @str2352, i32 0, i32 0), i64 52 }, i64 488 }
@_ZN5HyObj8hy_eq_op10_FILE_LINE20h1300df55bb5326a9NFaE = internal constant { %str_slice, i64 } { %str_slice { i8* getelementptr inbounds ([52 x i8]* @str2352, i32 0, i32 0), i64 52 }, i64 491 }
@str3369 = internal constant [28 x i8] c"!= only defined for ints atm"
@_ZN5HyObj9hy_neq_op10_FILE_LINE20h1300df55bb5326a9EGaE = internal constant { %str_slice, i64 } { %str_slice { i8* getelementptr inbounds ([52 x i8]* @str2352, i32 0, i32 0), i64 52 }, i64 503 }
@_ZN5HyObj9hy_neq_op10_FILE_LINE20h1300df55bb5326a9YGaE = internal constant { %str_slice, i64 } { %str_slice { i8* getelementptr inbounds ([52 x i8]* @str2352, i32 0, i32 0), i64 52 }, i64 506 }
@str3427 = internal constant [26 x i8] c"Maps only take string keys"
@_ZN5HyObj13hy_map_insert10_FILE_LINE20h1300df55bb5326a9JIaE = internal constant { %str_slice, i64 } { %str_slice { i8* getelementptr inbounds ([52 x i8]* @str2352, i32 0, i32 0), i64 52 }, i64 543 }
@str3428 = internal constant [51 x i8] c"Called hy_map_insert on an object that is not a Map"
@_ZN5HyObj13hy_map_insert10_FILE_LINE20h1300df55bb5326a93IaE = internal constant { %str_slice, i64 } { %str_slice { i8* getelementptr inbounds ([52 x i8]* @str2352, i32 0, i32 0), i64 52 }, i64 546 }
@str3456 = internal constant [16 x i8] c"explicit failure"
@_ZN7treemap6remove15__STATIC_FMTSTR20hc4afdecb9c2052741zfE = internal unnamed_addr constant { { i8, { { i8, [15 x i8] }, { i32, i8, i64, { i8, [15 x i8] }, { i8, [15 x i8] } } }, [0 x i8] } } { { i8, { { i8, [15 x i8] }, { i32, i8, i64, { i8, [15 x i8] }, { i8, [15 x i8] } } }, [0 x i8] } { i8 1, { { i8, [15 x i8] }, { i32, i8, i64, { i8, [15 x i8] }, { i8, [15 x i8] } } } { { i8, [15 x i8] } { i8 0, [15 x i8] undef }, { i32, i8, i64, { i8, [15 x i8] }, { i8, [15 x i8] } } { i32 32, i8 2, i64 0, { i8, [15 x i8] } { i8 3, [15 x i8] undef }, { i8, [15 x i8] } { i8 3, [15 x i8] undef } } }, [0 x i8] undef } }
@str3458 = internal constant [88 x i8] c"/Users/rustbuild/src/rust-buildbot/slave/nightly-mac/build/src/libcollections/treemap.rs"
@_ZN7treemap6remove8_run_fmt10_FILE_LINE20hcbe4b606f4a2422dCzfE = available_externally constant { %str_slice, i64 } { %str_slice { i8* getelementptr inbounds ([88 x i8]* @str3458, i32 0, i32 0), i64 88 }, i64 1619 }
@_ZN5HyObj13hy_map_delete10_FILE_LINE20h1300df55bb5326a9VJaE = internal constant { %str_slice, i64 } { %str_slice { i8* getelementptr inbounds ([52 x i8]* @str2352, i32 0, i32 0), i64 52 }, i64 558 }
@str3459 = internal constant [51 x i8] c"Called hy_map_delete on an object that is not a Map"
@_ZN5HyObj13hy_map_delete10_FILE_LINE20h1300df55bb5326a9fKaE = internal constant { %str_slice, i64 } { %str_slice { i8* getelementptr inbounds ([52 x i8]* @str2352, i32 0, i32 0), i64 52 }, i64 561 }
@str3470 = internal constant [53 x i8] c"Called hy_map_contains on an object that is not a Map"
@_ZN5HyObj15hy_map_contains10_FILE_LINE20h1300df55bb5326a9bLaE = internal constant { %str_slice, i64 } { %str_slice { i8* getelementptr inbounds ([52 x i8]* @str2352, i32 0, i32 0), i64 52 }, i64 576 }
@str3475 = internal constant [40 x i8] c"Tried to add too many objects to a tuple"
@_ZN5HyObj15hy_tuple_insert10_FILE_LINE20h1300df55bb5326a9XLaE = internal constant { %str_slice, i64 } { %str_slice { i8* getelementptr inbounds ([52 x i8]* @str2352, i32 0, i32 0), i64 52 }, i64 589 }
@str3483 = internal constant [15 x i8] c"length overflow"
@"_ZN3vec32Vec$LT$T$GT$.MutableSeq$LT$T$GT$4push15__STATIC_FMTSTR20hc4afdecb9c2052748XiE" = internal unnamed_addr constant { { i8, { { i8, [15 x i8] }, { i32, i8, i64, { i8, [15 x i8] }, { i8, [15 x i8] } } }, [0 x i8] } } { { i8, { { i8, [15 x i8] }, { i32, i8, i64, { i8, [15 x i8] }, { i8, [15 x i8] } } }, [0 x i8] } { i8 1, { { i8, [15 x i8] }, { i32, i8, i64, { i8, [15 x i8] }, { i8, [15 x i8] } } } { { i8, [15 x i8] } { i8 0, [15 x i8] undef }, { i32, i8, i64, { i8, [15 x i8] }, { i8, [15 x i8] } } { i32 32, i8 2, i64 0, { i8, [15 x i8] } { i8 3, [15 x i8] undef }, { i8, [15 x i8] } { i8 3, [15 x i8] undef } } }, [0 x i8] undef } }
@"_ZN3vec32Vec$LT$T$GT$.MutableSeq$LT$T$GT$4push8_run_fmt10_FILE_LINE20hcbe4b606f4a2422dJXiE" = available_externally constant { %str_slice, i64 } { %str_slice { i8* getelementptr inbounds ([84 x i8]* @str2616, i32 0, i32 0), i64 84 }, i64 1585 }
@str3487 = internal constant [55 x i8] c"Called hy_tuple_insert on an object that is not a Tuple"
@_ZN5HyObj15hy_tuple_insert10_FILE_LINE20h1300df55bb5326a9lMaE = internal constant { %str_slice, i64 } { %str_slice { i8* getelementptr inbounds ([52 x i8]* @str2352, i32 0, i32 0), i64 52 }, i64 594 }

; Function Attrs: uwtable
define void @hy_obj_slice_init(%"struct.HyObjSlice<[]>"*, i64) unnamed_addr #0 {
entry-block:
  %this = alloca %"struct.HyObjSlice<[]>"*
  %cap = alloca i64
  %mem_sz = alloca i64
  %alignment = alloca i64
  %ptr = alloca %"struct.HyObj<[]>"**
  %2 = alloca i8*
  store %"struct.HyObjSlice<[]>"* %0, %"struct.HyObjSlice<[]>"** %this
  store i64 %1, i64* %cap
  %3 = call i64 @_ZN3mem7size_of20h8341535022911819433E()
  store i64 %3, i64* %mem_sz
  %4 = call i64 @_ZN3mem12min_align_of20h9136666661964905806E()
  store i64 %4, i64* %alignment
  %5 = load i64* %cap
  %6 = load i64* %mem_sz
  %7 = mul i64 %6, %5
  %8 = load i64* %alignment
  %9 = call i8* @_ZN4heap8allocate20hbbf7a98b60e7e368ZNaE(i64 %7, i64 %8)
  store i8* %9, i8** %2
  %10 = load i8** %2
  %11 = bitcast i8* %10 to %"struct.HyObj<[]>"**
  store %"struct.HyObj<[]>"** %11, %"struct.HyObj<[]>"*** %ptr
  %12 = load %"struct.HyObjSlice<[]>"** %this
  %13 = getelementptr inbounds %"struct.HyObjSlice<[]>"* %12, i32 0, i32 0
  %14 = load %"struct.HyObj<[]>"*** %ptr
  store %"struct.HyObj<[]>"** %14, %"struct.HyObj<[]>"*** %13
  %15 = load %"struct.HyObjSlice<[]>"** %this
  %16 = getelementptr inbounds %"struct.HyObjSlice<[]>"* %15, i32 0, i32 2
  %17 = load i64* %cap
  store i64 %17, i64* %16
  %18 = load %"struct.HyObjSlice<[]>"** %this
  %19 = getelementptr inbounds %"struct.HyObjSlice<[]>"* %18, i32 0, i32 1
  store i64 0, i64* %19
  ret void
}

; Function Attrs: inlinehint uwtable
define internal i64 @_ZN3mem7size_of20h8341535022911819433E() unnamed_addr #1 {
entry-block:
  ret i64 8
}

; Function Attrs: inlinehint uwtable
define internal i64 @_ZN3mem12min_align_of20h9136666661964905806E() unnamed_addr #1 {
entry-block:
  ret i64 8
}

; Function Attrs: inlinehint uwtable
define internal i8* @_ZN4heap8allocate20hbbf7a98b60e7e368ZNaE(i64, i64) unnamed_addr #1 {
entry-block:
  %size = alloca i64
  %align = alloca i64
  store i64 %0, i64* %size
  store i64 %1, i64* %align
  %2 = load i64* %size
  %3 = load i64* %align
  %4 = call i8* @_ZN4heap3imp8allocate20he6b90da1882669f9hOaE(i64 %2, i64 %3)
  ret i8* %4
}

; Function Attrs: inlinehint uwtable
define internal i8* @_ZN4heap3imp8allocate20he6b90da1882669f9hOaE(i64, i64) unnamed_addr #1 {
entry-block:
  %a.i = alloca i64
  %2 = alloca i64
  %size = alloca i64
  %align = alloca i64
  %ptr = alloca i8*
  %3 = alloca i8*
  %4 = alloca i32
  %__arg = alloca i64
  %__arg1 = alloca i32
  %5 = alloca i8
  store i64 %0, i64* %size
  store i64 %1, i64* %align
  %6 = load i64* %size
  %7 = load i64* %align
  store i64 %7, i64* %a.i
  %8 = load i64* %a.i
  %9 = call i64 @_ZN3num8uint.Int14trailing_zeros20hf9eb50f4435007808OaE(i64 %8)
  store i64 %9, i64* %2
  %10 = load i64* %2
  %11 = trunc i64 %10 to i32
  store i32 %11, i32* %4
  %12 = load i32* %4
  store i64 %6, i64* %__arg
  %13 = load i64* %__arg
  store i32 %12, i32* %__arg1
  %14 = load i32* %__arg1
  %15 = call i8* @je_mallocx(i64 %13, i32 %14)
  store i8* %15, i8** %3
  %16 = load i8** %3
  store i8* %16, i8** %ptr
  %17 = call zeroext i1 @"_ZN3ptr29_$RP$mut$x20T.RawPtr$LT$T$GT$7is_null20h9947899616967216770E"(i8** noalias dereferenceable(8) %ptr)
  %18 = zext i1 %17 to i8
  store i8 %18, i8* %5
  %19 = load i8* %5, !range !0
  %20 = trunc i8 %19 to i1
  br i1 %20, label %then-block-2521-, label %next-block

then-block-2521-:                                 ; preds = %entry-block
  call void @_ZN3oom20h70228b11624052eclRaE()
  unreachable

next-block:                                       ; preds = %entry-block
  %21 = load i8** %ptr
  ret i8* %21
}

declare i8* @je_mallocx(i64, i32) unnamed_addr #2

; Function Attrs: inlinehint uwtable
define internal i64 @_ZN3num8uint.Int14trailing_zeros20hf9eb50f4435007808OaE(i64) unnamed_addr #1 {
entry-block:
  %self = alloca i64
  %1 = alloca i64
  store i64 %0, i64* %self
  %2 = load i64* %self
  %3 = call i64 @_ZN3num7u64.Int14trailing_zeros20hde85dae5b74923ebpPaE(i64 %2)
  store i64 %3, i64* %1
  %4 = load i64* %1
  ret i64 %4
}

; Function Attrs: inlinehint uwtable
define internal i64 @_ZN3num7u64.Int14trailing_zeros20hde85dae5b74923ebpPaE(i64) unnamed_addr #1 {
entry-block:
  %self = alloca i64
  store i64 %0, i64* %self
  %1 = load i64* %self
  %2 = call i64 @llvm.cttz.i64(i64 %1, i1 false)
  ret i64 %2
}

; Function Attrs: nounwind readnone
declare i64 @llvm.cttz.i64(i64, i1) unnamed_addr #3

; Function Attrs: inlinehint uwtable
define internal zeroext i1 @"_ZN3ptr29_$RP$mut$x20T.RawPtr$LT$T$GT$7is_null20h9947899616967216770E"(i8** noalias nocapture dereferenceable(8)) unnamed_addr #1 {
entry-block:
  %self = alloca i8**
  %1 = alloca i8*
  store i8** %0, i8*** %self
  %2 = load i8*** %self
  %3 = call i8* @"_ZN3ptr29_$RP$mut$x20T.RawPtr$LT$T$GT$4null21h14577535168597440108E"()
  store i8* %3, i8** %1
  %4 = load i8** %1
  %5 = load i8** %2
  %6 = icmp eq i8* %5, %4
  %7 = zext i1 %6 to i8
  %8 = trunc i8 %7 to i1
  ret i1 %8
}

; Function Attrs: inlinehint uwtable
define internal i8* @"_ZN3ptr29_$RP$mut$x20T.RawPtr$LT$T$GT$4null21h14577535168597440108E"() unnamed_addr #1 {
entry-block:
  %0 = call i8* @_ZN3ptr8mut_null21h13107936376555089333E()
  ret i8* %0
}

; Function Attrs: inlinehint uwtable
define internal i8* @_ZN3ptr8mut_null21h13107936376555089333E() unnamed_addr #1 {
entry-block:
  ret i8* null
}

; Function Attrs: noreturn
declare void @_ZN3oom20h70228b11624052eclRaE() unnamed_addr #4

; Function Attrs: uwtable
define void @hy_obj_slice_reinit(%"struct.HyObjSlice<[]>"*, i64) unnamed_addr #0 {
entry-block:
  %this = alloca %"struct.HyObjSlice<[]>"*
  %cap = alloca i64
  store %"struct.HyObjSlice<[]>"* %0, %"struct.HyObjSlice<[]>"** %this
  store i64 %1, i64* %cap
  %2 = load %"struct.HyObjSlice<[]>"** %this
  %3 = getelementptr inbounds %"struct.HyObjSlice<[]>"* %2, i32 0, i32 1
  store i64 0, i64* %3
  ret void
}

; Function Attrs: uwtable
define void @hy_obj_slice_clear(%"struct.HyObjSlice<[]>"*) unnamed_addr #0 {
entry-block:
  %this = alloca %"struct.HyObjSlice<[]>"*
  %mem_sz = alloca i64
  %1 = alloca i64
  %alignment = alloca i64
  %ptr = alloca %"struct.HyObj<[]>"**
  store %"struct.HyObjSlice<[]>"* %0, %"struct.HyObjSlice<[]>"** %this
  %2 = call i64 @_ZN3mem7size_of20h8341535022911819433E()
  store i64 %2, i64* %1
  %3 = load i64* %1
  %4 = load %"struct.HyObjSlice<[]>"** %this
  %5 = getelementptr inbounds %"struct.HyObjSlice<[]>"* %4, i32 0, i32 2
  %6 = load i64* %5
  %7 = mul i64 %3, %6
  store i64 %7, i64* %mem_sz
  %8 = call i64 @_ZN3mem12min_align_of20h9136666661964905806E()
  store i64 %8, i64* %alignment
  %9 = load %"struct.HyObjSlice<[]>"** %this
  %10 = getelementptr inbounds %"struct.HyObjSlice<[]>"* %9, i32 0, i32 1
  store i64 0, i64* %10
  %11 = load %"struct.HyObjSlice<[]>"** %this
  %12 = getelementptr inbounds %"struct.HyObjSlice<[]>"* %11, i32 0, i32 2
  store i64 0, i64* %12
  %13 = load %"struct.HyObjSlice<[]>"** %this
  %14 = getelementptr inbounds %"struct.HyObjSlice<[]>"* %13, i32 0, i32 0
  %15 = load %"struct.HyObj<[]>"*** %14
  store %"struct.HyObj<[]>"** %15, %"struct.HyObj<[]>"*** %ptr
  %16 = load %"struct.HyObj<[]>"*** %ptr
  %17 = bitcast %"struct.HyObj<[]>"** %16 to i8*
  %18 = load i64* %mem_sz
  %19 = load i64* %alignment
  call void @_ZN4heap10deallocate20haba22702ee4715b4hQaE(i8* %17, i64 %18, i64 %19)
  ret void
}

; Function Attrs: inlinehint uwtable
define internal void @_ZN4heap10deallocate20haba22702ee4715b4hQaE(i8*, i64, i64) unnamed_addr #1 {
entry-block:
  %ptr = alloca i8*
  %size = alloca i64
  %align = alloca i64
  store i8* %0, i8** %ptr
  store i64 %1, i64* %size
  store i64 %2, i64* %align
  %3 = load i8** %ptr
  %4 = load i64* %size
  %5 = load i64* %align
  call void @_ZN4heap3imp10deallocate20h904661e1685d29c4DQaE(i8* %3, i64 %4, i64 %5)
  ret void
}

; Function Attrs: inlinehint uwtable
define internal void @_ZN4heap3imp10deallocate20h904661e1685d29c4DQaE(i8*, i64, i64) unnamed_addr #1 {
entry-block:
  %a.i = alloca i64
  %3 = alloca i64
  %ptr = alloca i8*
  %_size = alloca i64
  %align = alloca i64
  %4 = alloca i32
  %__arg = alloca i8*
  %__arg1 = alloca i32
  store i8* %0, i8** %ptr
  store i64 %1, i64* %_size
  store i64 %2, i64* %align
  %5 = load i8** %ptr
  %6 = load i64* %align
  store i64 %6, i64* %a.i
  %7 = load i64* %a.i
  %8 = call i64 @_ZN3num8uint.Int14trailing_zeros20hf9eb50f4435007808OaE(i64 %7)
  store i64 %8, i64* %3
  %9 = load i64* %3
  %10 = trunc i64 %9 to i32
  store i32 %10, i32* %4
  %11 = load i32* %4
  store i8* %5, i8** %__arg
  %12 = load i8** %__arg
  store i32 %11, i32* %__arg1
  %13 = load i32* %__arg1
  call void @je_dallocx(i8* %12, i32 %13)
  ret void
}

declare void @je_dallocx(i8*, i32) unnamed_addr #2

; Function Attrs: uwtable
define void @hy_obj_slice_push(%"struct.HyObjSlice<[]>"*, %"struct.HyObj<[]>"*) unnamed_addr #0 {
entry-block:
  %this = alloca %"struct.HyObjSlice<[]>"*
  %obj = alloca %"struct.HyObj<[]>"*
  %ptr = alloca %"struct.HyObj<[]>"**
  %len = alloca i64
  %cap = alloca i64
  %2 = alloca %str_slice
  %3 = alloca %"struct.HyObj<[]>"**
  store %"struct.HyObjSlice<[]>"* %0, %"struct.HyObjSlice<[]>"** %this
  store %"struct.HyObj<[]>"* %1, %"struct.HyObj<[]>"** %obj
  %4 = load %"struct.HyObjSlice<[]>"** %this
  %5 = getelementptr inbounds %"struct.HyObjSlice<[]>"* %4, i32 0, i32 1
  %6 = load i64* %5
  store i64 %6, i64* %len
  %7 = load %"struct.HyObjSlice<[]>"** %this
  %8 = getelementptr inbounds %"struct.HyObjSlice<[]>"* %7, i32 0, i32 2
  %9 = load i64* %8
  store i64 %9, i64* %cap
  %10 = load i64* %cap
  %11 = load i64* %len
  %12 = icmp eq i64 %10, %11
  br i1 %12, label %then-block-317-, label %next-block

then-block-317-:                                  ; preds = %entry-block
  %13 = getelementptr inbounds %str_slice* %2, i32 0, i32 0
  store i8* getelementptr inbounds ([49 x i8]* @str2351, i32 0, i32 0), i8** %13
  %14 = getelementptr inbounds %str_slice* %2, i32 0, i32 1
  store i64 49, i64* %14
  call void @_ZN6unwind12begin_unwind21h10046155336790399840E(%str_slice* noalias nocapture dereferenceable(16) %2, { %str_slice, i64 }* noalias nocapture dereferenceable(24) @_ZN17hy_obj_slice_push10_FILE_LINE20h1300df55bb5326a9mfaE)
  unreachable

next-block:                                       ; preds = %entry-block
  %15 = load %"struct.HyObjSlice<[]>"** %this
  %16 = getelementptr inbounds %"struct.HyObjSlice<[]>"* %15, i32 0, i32 1
  %17 = load i64* %len
  %18 = add i64 %17, 1
  store i64 %18, i64* %16
  %19 = load %"struct.HyObjSlice<[]>"** %this
  %20 = getelementptr inbounds %"struct.HyObjSlice<[]>"* %19, i32 0, i32 0
  %21 = load %"struct.HyObj<[]>"*** %20
  %22 = load i64* %len
  %23 = call %"struct.HyObj<[]>"** @"_ZN3ptr29_$RP$mut$x20T.RawPtr$LT$T$GT$6offset20h4859216774351017493E"(%"struct.HyObj<[]>"** %21, i64 %22)
  store %"struct.HyObj<[]>"** %23, %"struct.HyObj<[]>"*** %ptr
  %24 = load %"struct.HyObj<[]>"*** %ptr
  store %"struct.HyObj<[]>"** %24, %"struct.HyObj<[]>"*** %3
  %25 = load %"struct.HyObj<[]>"*** %3
  %26 = load %"struct.HyObj<[]>"** %obj
  call void @_ZN3ptr5write20h7386411517373297856E(%"struct.HyObj<[]>"** %25, %"struct.HyObj<[]>"* %26)
  ret void
}

; Function Attrs: cold noinline noreturn uwtable
define internal void @_ZN6unwind12begin_unwind21h10046155336790399840E(%str_slice* noalias nocapture dereferenceable(16), { %str_slice, i64 }* noalias nocapture dereferenceable(24)) unnamed_addr #5 {
entry-block:
  %file_line = alloca { %str_slice, i64 }*
  %__adjust = alloca { void (i8*)**, i8* }
  store { %str_slice, i64 }* %1, { %str_slice, i64 }** %file_line
  %2 = call i8* @_ZN4heap15exchange_malloc20h30d5ec1e5810ddf3uRaE(i64 16, i64 8)
  %3 = bitcast i8* %2 to %str_slice*
  %4 = bitcast %str_slice* %0 to i8*
  %5 = bitcast %str_slice* %3 to i8*
  call void @llvm.memcpy.p0i8.p0i8.i64(i8* %5, i8* %4, i64 16, i32 8, i1 false)
  %6 = getelementptr inbounds { void (i8*)**, i8* }* %__adjust, i32 0, i32 1
  %7 = bitcast i8** %6 to %str_slice**
  store %str_slice* %3, %str_slice** %7
  %8 = getelementptr inbounds { void (i8*)**, i8* }* %__adjust, i32 0, i32 0
  %9 = bitcast void (i8*)*** %8 to { void (i8**)*, %"struct.core::intrinsics::TypeId<[]>[#3]" (%str_slice*)* }**
  store { void (i8**)*, %"struct.core::intrinsics::TypeId<[]>[#3]" (%str_slice*)* }* @vtable2350, { void (i8**)*, %"struct.core::intrinsics::TypeId<[]>[#3]" (%str_slice*)* }** %9
  %10 = load { %str_slice, i64 }** %file_line
  call void @_ZN6unwind18begin_unwind_inner20h7c6fecebc6991c8bS5dE({ void (i8*)**, i8* }* noalias nocapture dereferenceable(16) %__adjust, { %str_slice, i64 }* noalias nocapture dereferenceable(24) %10)
  unreachable
}

; Function Attrs: cold noinline noreturn
declare void @_ZN6unwind18begin_unwind_inner20h7c6fecebc6991c8bS5dE({ void (i8*)**, i8* }* noalias nocapture dereferenceable(16), { %str_slice, i64 }* noalias nocapture dereferenceable(24)) unnamed_addr #6

; Function Attrs: inlinehint uwtable
define internal i8* @_ZN4heap15exchange_malloc20h30d5ec1e5810ddf3uRaE(i64, i64) unnamed_addr #1 {
entry-block:
  %sret_slot = alloca i8*
  %size = alloca i64
  %align = alloca i64
  store i64 %0, i64* %size
  store i64 %1, i64* %align
  %2 = load i64* %size
  %3 = icmp eq i64 %2, 0
  br i1 %3, label %then-block-2703-, label %else-block

then-block-2703-:                                 ; preds = %entry-block
  store i8* bitcast (i64* @_ZN4heap5EMPTY20hbfe5b9a4d3c56c6f8baE to i8*), i8** %sret_slot
  br label %join

else-block:                                       ; preds = %entry-block
  %4 = load i64* %size
  %5 = load i64* %align
  %6 = call i8* @_ZN4heap8allocate20hbbf7a98b60e7e368ZNaE(i64 %4, i64 %5)
  store i8* %6, i8** %sret_slot
  br label %join

join:                                             ; preds = %else-block, %then-block-2703-
  %7 = load i8** %sret_slot
  ret i8* %7
}

; Function Attrs: nounwind
declare void @llvm.memcpy.p0i8.p0i8.i64(i8* nocapture, i8* nocapture readonly, i64, i32, i1) unnamed_addr #7

define internal void @"_ZN13Box$LT$i8$GT$14glue_drop.233817h94d9eed4dc829bb4E"(i8**) unnamed_addr #2 {
entry-block:
  %1 = load i8** %0
  %2 = icmp ne i8* %1, null
  br i1 %2, label %cond, label %next

next:                                             ; preds = %cond, %entry-block
  ret void

cond:                                             ; preds = %entry-block
  call void @_ZN4heap13exchange_free20h39df02bdcf92c5138RaE(i8* %1, i64 1, i64 1)
  br label %next
}

; Function Attrs: inlinehint uwtable
define internal void @_ZN4heap13exchange_free20h39df02bdcf92c5138RaE(i8*, i64, i64) unnamed_addr #1 {
entry-block:
  %ptr = alloca i8*
  %size = alloca i64
  %align = alloca i64
  store i8* %0, i8** %ptr
  store i64 %1, i64* %size
  store i64 %2, i64* %align
  %3 = load i8** %ptr
  %4 = load i64* %size
  %5 = load i64* %align
  call void @_ZN4heap10deallocate20haba22702ee4715b4hQaE(i8* %3, i64 %4, i64 %5)
  ret void
}

; Function Attrs: uwtable
define internal %"struct.core::intrinsics::TypeId<[]>[#3]" @_ZN3any12T.AnyPrivate11get_type_id21h16415080557321492640E(%str_slice* noalias nocapture dereferenceable(16)) unnamed_addr #0 {
entry-block:
  %self = alloca %str_slice*
  store %str_slice* %0, %str_slice** %self
  %1 = call %"struct.core::intrinsics::TypeId<[]>[#3]" @_ZN10intrinsics6TypeId2of21h10786832703630792300E()
  ret %"struct.core::intrinsics::TypeId<[]>[#3]" %1
}

; Function Attrs: uwtable
define internal %"struct.core::intrinsics::TypeId<[]>[#3]" @_ZN10intrinsics6TypeId2of21h10786832703630792300E() unnamed_addr #0 {
entry-block:
  ret %"struct.core::intrinsics::TypeId<[]>[#3]" { i64 8802261786977977801 }
}

; Function Attrs: inlinehint uwtable
define internal %"struct.HyObj<[]>"** @"_ZN3ptr29_$RP$mut$x20T.RawPtr$LT$T$GT$6offset20h4859216774351017493E"(%"struct.HyObj<[]>"**, i64) unnamed_addr #1 {
entry-block:
  %self = alloca %"struct.HyObj<[]>"**
  %count = alloca i64
  %2 = alloca %"struct.HyObj<[]>"**
  store %"struct.HyObj<[]>"** %0, %"struct.HyObj<[]>"*** %self
  store i64 %1, i64* %count
  %3 = load %"struct.HyObj<[]>"*** %self
  %4 = load i64* %count
  %5 = getelementptr inbounds %"struct.HyObj<[]>"** %3, i64 %4
  store %"struct.HyObj<[]>"** %5, %"struct.HyObj<[]>"*** %2
  %6 = load %"struct.HyObj<[]>"*** %2
  ret %"struct.HyObj<[]>"** %6
}

; Function Attrs: inlinehint uwtable
define internal void @_ZN3ptr5write20h7386411517373297856E(%"struct.HyObj<[]>"**, %"struct.HyObj<[]>"*) unnamed_addr #1 {
entry-block:
  %dst = alloca %"struct.HyObj<[]>"**
  %src = alloca %"struct.HyObj<[]>"*
  store %"struct.HyObj<[]>"** %0, %"struct.HyObj<[]>"*** %dst
  store %"struct.HyObj<[]>"* %1, %"struct.HyObj<[]>"** %src
  %2 = load %"struct.HyObj<[]>"*** %dst
  %3 = load %"struct.HyObj<[]>"** %src
  store %"struct.HyObj<[]>"* %3, %"struct.HyObj<[]>"** %2
  ret void
}

; Function Attrs: uwtable
define %"struct.HyObj<[]>"* @hy_obj_slice_get(%"struct.HyObjSlice<[]>"*, i64) unnamed_addr #0 {
entry-block:
  %llretslotptr = alloca %"struct.HyObj<[]>"**
  %this = alloca %"struct.HyObjSlice<[]>"*
  %index = alloca i64
  %iret_slot = alloca %"struct.HyObj<[]>"*
  %len = alloca i64
  %ret_slot = alloca %"struct.HyObj<[]>"*
  %ptr = alloca %"struct.HyObj<[]>"**
  store %"struct.HyObjSlice<[]>"* %0, %"struct.HyObjSlice<[]>"** %this
  store i64 %1, i64* %index
  %2 = load %"struct.HyObjSlice<[]>"** %this
  %3 = getelementptr inbounds %"struct.HyObjSlice<[]>"* %2, i32 0, i32 1
  %4 = load i64* %3
  store i64 %4, i64* %len
  %5 = load i64* %index
  %6 = load i64* %len
  %7 = icmp uge i64 %5, %6
  br i1 %7, label %then-block-394-, label %next-block

then-block-394-:                                  ; preds = %entry-block
  %8 = call noalias dereferenceable(112) %"struct.HyObj<[]>"* @hy_new_undefined()
  store %"struct.HyObj<[]>"* %8, %"struct.HyObj<[]>"** %ret_slot
  store %"struct.HyObj<[]>"** %ret_slot, %"struct.HyObj<[]>"*** %llretslotptr
  br label %clean_ast_380_

clean_custom_:                                    ; preds = %next-block, %clean_ast_380_
  br label %return

clean_ast_380_:                                   ; preds = %then-block-394-
  br label %clean_custom_

next-block:                                       ; preds = %entry-block
  %9 = load %"struct.HyObjSlice<[]>"** %this
  %10 = getelementptr inbounds %"struct.HyObjSlice<[]>"* %9, i32 0, i32 0
  %11 = load %"struct.HyObj<[]>"*** %10
  %12 = load i64* %index
  %13 = call %"struct.HyObj<[]>"** @"_ZN3ptr29_$RP$mut$x20T.RawPtr$LT$T$GT$6offset20h4859216774351017493E"(%"struct.HyObj<[]>"** %11, i64 %12)
  store %"struct.HyObj<[]>"** %13, %"struct.HyObj<[]>"*** %ptr
  %14 = load %"struct.HyObj<[]>"*** %ptr
  %15 = load %"struct.HyObj<[]>"** %14
  store %"struct.HyObj<[]>"* %15, %"struct.HyObj<[]>"** %iret_slot
  store %"struct.HyObj<[]>"** %iret_slot, %"struct.HyObj<[]>"*** %llretslotptr
  br label %clean_custom_

return:                                           ; preds = %clean_custom_
  %16 = load %"struct.HyObj<[]>"*** %llretslotptr
  %17 = load %"struct.HyObj<[]>"** %16
  ret %"struct.HyObj<[]>"* %17
}

; Function Attrs: uwtable
define noalias dereferenceable(112) %"struct.HyObj<[]>"* @hy_new_undefined() unnamed_addr #0 {
entry-block:
  %0 = call i8* @_ZN4heap15exchange_malloc20h30d5ec1e5810ddf3uRaE(i64 112, i64 8)
  %1 = bitcast i8* %0 to %"struct.HyObj<[]>"*
  %2 = getelementptr inbounds %"struct.HyObj<[]>"* %1, i32 0, i32 0
  %3 = getelementptr inbounds %"enum.HyObjType<[]>"* %2, i32 0, i32 0
  store i8 10, i8* %3
  ret %"struct.HyObj<[]>"* %1
}

; Function Attrs: uwtable
define %"struct.HyGenCtxt<[]>"* @_ZN9HyGenCtxt3new20hee99e5587a2a299a8gaE(i8*, %"struct.HyObjSlice<[]>"* noalias nocapture dereferenceable(24), i64, i64) unnamed_addr #0 {
entry-block:
  %block = alloca i8*
  %num_state = alloca i64
  %num_yields = alloca i64
  %mem_sz = alloca i64
  %alignment = alloca i64
  %ctxt = alloca %"struct.HyGenCtxt<[]>"*
  %4 = alloca i8*
  store i8* %0, i8** %block
  store i64 %2, i64* %num_state
  store i64 %3, i64* %num_yields
  %5 = call i64 @_ZN3mem7size_of21h13072421463834856962E()
  store i64 %5, i64* %mem_sz
  %6 = call i64 @_ZN3mem12min_align_of21h16120888984642177686E()
  store i64 %6, i64* %alignment
  %7 = load i64* %mem_sz
  %8 = load i64* %alignment
  %9 = call i8* @_ZN4heap8allocate20hbbf7a98b60e7e368ZNaE(i64 %7, i64 %8)
  store i8* %9, i8** %4
  %10 = load i8** %4
  %11 = bitcast i8* %10 to %"struct.HyGenCtxt<[]>"*
  store %"struct.HyGenCtxt<[]>"* %11, %"struct.HyGenCtxt<[]>"** %ctxt
  %12 = load %"struct.HyGenCtxt<[]>"** %ctxt
  %13 = getelementptr inbounds %"struct.HyGenCtxt<[]>"* %12, i32 0, i32 0
  %14 = load i8** %block
  store i8* %14, i8** %13
  %15 = load %"struct.HyGenCtxt<[]>"** %ctxt
  %16 = getelementptr inbounds %"struct.HyGenCtxt<[]>"* %15, i32 0, i32 1
  %17 = bitcast %"struct.HyObjSlice<[]>"* %1 to i8*
  %18 = bitcast %"struct.HyObjSlice<[]>"* %16 to i8*
  call void @llvm.memcpy.p0i8.p0i8.i64(i8* %18, i8* %17, i64 24, i32 8, i1 false)
  %19 = load %"struct.HyGenCtxt<[]>"** %ctxt
  %20 = getelementptr inbounds %"struct.HyGenCtxt<[]>"* %19, i32 0, i32 2
  %21 = load i64* %num_state
  call void @hy_obj_slice_init(%"struct.HyObjSlice<[]>"* %20, i64 %21)
  %22 = load %"struct.HyGenCtxt<[]>"** %ctxt
  %23 = getelementptr inbounds %"struct.HyGenCtxt<[]>"* %22, i32 0, i32 3
  %24 = load i64* %num_yields
  call void @hy_obj_slice_init(%"struct.HyObjSlice<[]>"* %23, i64 %24)
  %25 = load %"struct.HyGenCtxt<[]>"** %ctxt
  ret %"struct.HyGenCtxt<[]>"* %25
}

; Function Attrs: inlinehint uwtable
define internal i64 @_ZN3mem7size_of21h13072421463834856962E() unnamed_addr #1 {
entry-block:
  ret i64 80
}

; Function Attrs: inlinehint uwtable
define internal i64 @_ZN3mem12min_align_of21h16120888984642177686E() unnamed_addr #1 {
entry-block:
  ret i64 8
}

; Function Attrs: uwtable
define void @hy_obj_print(%"struct.HyObj<[]>"* nocapture dereferenceable(112)) unnamed_addr #0 {
entry-block:
  %self = alloca %"struct.HyObj<[]>"*
  %vec = alloca %"struct.collections::vec::Vec<[Box<HyObj>]>[#6]"*
  %match = alloca {}
  %__args_vec = alloca { %"struct.core::fmt::Argument<[]>[#3]"*, i64 }
  %1 = alloca %"struct.core::fmt::Argument<[]>[#3]", i64 0
  %__args = alloca %"struct.core::fmt::Arguments<[]>[#3]"
  %__adjust = alloca { %"enum.core::fmt::rt::Piece<[]>[#3]"*, i64 }
  %__adjust3 = alloca { %"struct.core::fmt::Argument<[]>[#3]"*, i64 }
  %2 = alloca %"struct.core::slice::Items<[Box<HyObj>]>[#3]"
  %for_head = alloca %"struct.core::slice::Items<[Box<HyObj>]>[#3]"*
  %loop_option = alloca i8*
  %match4 = alloca {}
  %__args_vec6 = alloca { %"struct.core::fmt::Argument<[]>[#3]"*, i64 }
  %3 = alloca %"struct.core::fmt::Argument<[]>[#3]", i64 0
  %__args7 = alloca %"struct.core::fmt::Arguments<[]>[#3]"
  %__adjust8 = alloca { %"enum.core::fmt::rt::Piece<[]>[#3]"*, i64 }
  %__adjust9 = alloca { %"struct.core::fmt::Argument<[]>[#3]"*, i64 }
  %4 = alloca %str_slice
  store %"struct.HyObj<[]>"* %0, %"struct.HyObj<[]>"** %self
  %5 = load %"struct.HyObj<[]>"** %self
  %6 = getelementptr inbounds %"struct.HyObj<[]>"* %5, i32 0, i32 0
  %7 = getelementptr inbounds %"enum.HyObjType<[]>"* %6, i32 0, i32 0
  %8 = load i8* %7, !range !1
  switch i8 %8, label %match_else [
    i8 3, label %match_case
  ]

case_body:                                        ; preds = %match_case
  br label %case_body2

case_body1:                                       ; preds = %match_else
  %9 = getelementptr inbounds %str_slice* %4, i32 0, i32 0
  store i8* getelementptr inbounds ([46 x i8]* @str2488, i32 0, i32 0), i8** %9
  %10 = getelementptr inbounds %str_slice* %4, i32 0, i32 1
  store i64 46, i64* %10
  call void @_ZN6unwind12begin_unwind21h10046155336790399840E(%str_slice* noalias nocapture dereferenceable(16) %4, { %str_slice, i64 }* noalias nocapture dereferenceable(24) @_ZN5HyObj12hy_obj_print10_FILE_LINE20h1300df55bb5326a9fkaE)
  unreachable

match_else:                                       ; preds = %entry-block
  br label %case_body1

match_case:                                       ; preds = %entry-block
  %11 = bitcast %"enum.HyObjType<[]>"* %6 to { i8, %"struct.collections::vec::Vec<[Box<HyObj>]>[#6]" }*
  %12 = getelementptr inbounds { i8, %"struct.collections::vec::Vec<[Box<HyObj>]>[#6]" }* %11, i32 0, i32 1
  store %"struct.collections::vec::Vec<[Box<HyObj>]>[#6]"* %12, %"struct.collections::vec::Vec<[Box<HyObj>]>[#6]"** %vec
  br label %case_body

case_body2:                                       ; preds = %case_body
  %13 = getelementptr inbounds { %"struct.core::fmt::Argument<[]>[#3]"*, i64 }* %__args_vec, i32 0, i32 0
  store %"struct.core::fmt::Argument<[]>[#3]"* %1, %"struct.core::fmt::Argument<[]>[#3]"** %13
  %14 = getelementptr inbounds { %"struct.core::fmt::Argument<[]>[#3]"*, i64 }* %__args_vec, i32 0, i32 1
  store i64 0, i64* %14
  %15 = getelementptr inbounds { %"enum.core::fmt::rt::Piece<[]>[#3]"*, i64 }* %__adjust, i32 0, i32 0
  store %"enum.core::fmt::rt::Piece<[]>[#3]"* getelementptr inbounds ([1 x %"enum.core::fmt::rt::Piece<[]>[#3]"]* bitcast ({ { i8, %str_slice, [48 x i8] } }* @_ZN5HyObj12hy_obj_print15__STATIC_FMTSTR20he6cd311728f95dc5XiaE to [1 x %"enum.core::fmt::rt::Piece<[]>[#3]"]*), i32 0, i32 0), %"enum.core::fmt::rt::Piece<[]>[#3]"** %15
  %16 = getelementptr inbounds { %"enum.core::fmt::rt::Piece<[]>[#3]"*, i64 }* %__adjust, i32 0, i32 1
  store i64 1, i64* %16
  %17 = getelementptr inbounds { %"struct.core::fmt::Argument<[]>[#3]"*, i64 }* %__args_vec, i32 0, i32 0
  %18 = load %"struct.core::fmt::Argument<[]>[#3]"** %17
  %19 = getelementptr inbounds { %"struct.core::fmt::Argument<[]>[#3]"*, i64 }* %__args_vec, i32 0, i32 1
  %20 = load i64* %19
  %21 = getelementptr inbounds { %"struct.core::fmt::Argument<[]>[#3]"*, i64 }* %__adjust3, i32 0, i32 0
  store %"struct.core::fmt::Argument<[]>[#3]"* %18, %"struct.core::fmt::Argument<[]>[#3]"** %21
  %22 = getelementptr inbounds { %"struct.core::fmt::Argument<[]>[#3]"*, i64 }* %__adjust3, i32 0, i32 1
  store i64 %20, i64* %22
  call void @"_ZN3fmt22Arguments$LT$$x27a$GT$3new20h08e5545b7031607ajUaE"(%"struct.core::fmt::Arguments<[]>[#3]"* noalias nocapture sret dereferenceable(32) %__args, { %"enum.core::fmt::rt::Piece<[]>[#3]"*, i64 }* noalias nocapture dereferenceable(16) %__adjust, { %"struct.core::fmt::Argument<[]>[#3]"*, i64 }* noalias nocapture dereferenceable(16) %__adjust3)
  call void @_ZN2io5stdio10print_args20ha2ad804cfb78f72eyumE(%"struct.core::fmt::Arguments<[]>[#3]"* noalias nocapture dereferenceable(32) %__args)
  br label %join

join:                                             ; preds = %case_body2
  %23 = load %"struct.collections::vec::Vec<[Box<HyObj>]>[#6]"** %vec
  call void @"_ZN3vec12Vec$LT$T$GT$4iter21h16318131407831971467E"(%"struct.core::slice::Items<[Box<HyObj>]>[#3]"* noalias nocapture sret dereferenceable(16) %2, %"struct.collections::vec::Vec<[Box<HyObj>]>[#6]"* noalias dereferenceable(24) %23)
  store %"struct.core::slice::Items<[Box<HyObj>]>[#3]"* %2, %"struct.core::slice::Items<[Box<HyObj>]>[#3]"** %for_head
  %24 = load %"struct.core::slice::Items<[Box<HyObj>]>[#3]"** %for_head
  br label %for_loopback

for_exit:                                         ; preds = %for_loopback
  br label %case_body5

for_loopback:                                     ; preds = %for_body, %join
  %25 = call i8* @"_ZN5slice57Items$LT$$x27a$C$$x20T$GT$.Iterator$LT$$BP$$x27a$x20T$GT$4next21h17569184356016087143E"(%"struct.core::slice::Items<[Box<HyObj>]>[#3]"* noalias dereferenceable(16) %24)
  store i8* %25, i8** %loop_option
  %26 = load i8** %loop_option
  %27 = icmp ne i8* %26, null
  %28 = zext i1 %27 to i8
  %29 = icmp ne i8 %28, 0
  br i1 %29, label %for_body, label %for_exit

for_body:                                         ; preds = %for_loopback
  %30 = bitcast i8** %loop_option to %"struct.HyObj<[]>"***
  %31 = load %"struct.HyObj<[]>"*** %30
  %32 = load %"struct.HyObj<[]>"** %31
  call void @hy_obj_print(%"struct.HyObj<[]>"* dereferenceable(112) %32)
  br label %for_loopback

case_body5:                                       ; preds = %for_exit
  %33 = getelementptr inbounds { %"struct.core::fmt::Argument<[]>[#3]"*, i64 }* %__args_vec6, i32 0, i32 0
  store %"struct.core::fmt::Argument<[]>[#3]"* %3, %"struct.core::fmt::Argument<[]>[#3]"** %33
  %34 = getelementptr inbounds { %"struct.core::fmt::Argument<[]>[#3]"*, i64 }* %__args_vec6, i32 0, i32 1
  store i64 0, i64* %34
  %35 = getelementptr inbounds { %"enum.core::fmt::rt::Piece<[]>[#3]"*, i64 }* %__adjust8, i32 0, i32 0
  store %"enum.core::fmt::rt::Piece<[]>[#3]"* getelementptr inbounds ([1 x %"enum.core::fmt::rt::Piece<[]>[#3]"]* bitcast ({ { i8, %str_slice, [48 x i8] } }* @_ZN5HyObj12hy_obj_print15__STATIC_FMTSTR20he6cd311728f95dc5HjaE to [1 x %"enum.core::fmt::rt::Piece<[]>[#3]"]*), i32 0, i32 0), %"enum.core::fmt::rt::Piece<[]>[#3]"** %35
  %36 = getelementptr inbounds { %"enum.core::fmt::rt::Piece<[]>[#3]"*, i64 }* %__adjust8, i32 0, i32 1
  store i64 1, i64* %36
  %37 = getelementptr inbounds { %"struct.core::fmt::Argument<[]>[#3]"*, i64 }* %__args_vec6, i32 0, i32 0
  %38 = load %"struct.core::fmt::Argument<[]>[#3]"** %37
  %39 = getelementptr inbounds { %"struct.core::fmt::Argument<[]>[#3]"*, i64 }* %__args_vec6, i32 0, i32 1
  %40 = load i64* %39
  %41 = getelementptr inbounds { %"struct.core::fmt::Argument<[]>[#3]"*, i64 }* %__adjust9, i32 0, i32 0
  store %"struct.core::fmt::Argument<[]>[#3]"* %38, %"struct.core::fmt::Argument<[]>[#3]"** %41
  %42 = getelementptr inbounds { %"struct.core::fmt::Argument<[]>[#3]"*, i64 }* %__adjust9, i32 0, i32 1
  store i64 %40, i64* %42
  call void @"_ZN3fmt22Arguments$LT$$x27a$GT$3new20h08e5545b7031607ajUaE"(%"struct.core::fmt::Arguments<[]>[#3]"* noalias nocapture sret dereferenceable(32) %__args7, { %"enum.core::fmt::rt::Piece<[]>[#3]"*, i64 }* noalias nocapture dereferenceable(16) %__adjust8, { %"struct.core::fmt::Argument<[]>[#3]"*, i64 }* noalias nocapture dereferenceable(16) %__adjust9)
  call void @_ZN2io5stdio10print_args20ha2ad804cfb78f72eyumE(%"struct.core::fmt::Arguments<[]>[#3]"* noalias nocapture dereferenceable(32) %__args7)
  br label %join10

join10:                                           ; preds = %case_body5
  br label %join11

join11:                                           ; preds = %join10
  ret void
}

; Function Attrs: inlinehint uwtable
define internal void @"_ZN3fmt22Arguments$LT$$x27a$GT$3new20h08e5545b7031607ajUaE"(%"struct.core::fmt::Arguments<[]>[#3]"* noalias nocapture sret dereferenceable(32), { %"enum.core::fmt::rt::Piece<[]>[#3]"*, i64 }* noalias nocapture dereferenceable(16), { %"struct.core::fmt::Argument<[]>[#3]"*, i64 }* noalias nocapture dereferenceable(16)) unnamed_addr #1 {
entry-block:
  %__adjust = alloca { %"struct.core::fmt::Argument<[]>[#3]"*, i64 }
  %3 = getelementptr inbounds %"struct.core::fmt::Arguments<[]>[#3]"* %0, i32 0, i32 0
  %4 = bitcast { %"enum.core::fmt::rt::Piece<[]>[#3]"*, i64 }* %1 to i8*
  %5 = bitcast { %"enum.core::fmt::rt::Piece<[]>[#3]"*, i64 }* %3 to i8*
  call void @llvm.memcpy.p0i8.p0i8.i64(i8* %5, i8* %4, i64 16, i32 8, i1 false)
  %6 = getelementptr inbounds %"struct.core::fmt::Arguments<[]>[#3]"* %0, i32 0, i32 1
  %7 = getelementptr inbounds { %"struct.core::fmt::Argument<[]>[#3]"*, i64 }* %2, i32 0, i32 0
  %8 = load %"struct.core::fmt::Argument<[]>[#3]"** %7
  %9 = getelementptr inbounds { %"struct.core::fmt::Argument<[]>[#3]"*, i64 }* %2, i32 0, i32 1
  %10 = load i64* %9
  %11 = getelementptr inbounds { %"struct.core::fmt::Argument<[]>[#3]"*, i64 }* %__adjust, i32 0, i32 0
  store %"struct.core::fmt::Argument<[]>[#3]"* %8, %"struct.core::fmt::Argument<[]>[#3]"** %11
  %12 = getelementptr inbounds { %"struct.core::fmt::Argument<[]>[#3]"*, i64 }* %__adjust, i32 0, i32 1
  store i64 %10, i64* %12
  %13 = bitcast { %"struct.core::fmt::Argument<[]>[#3]"*, i64 }* %__adjust to i8*
  %14 = bitcast { %"struct.core::fmt::Argument<[]>[#3]"*, i64 }* %6 to i8*
  call void @llvm.memcpy.p0i8.p0i8.i64(i8* %14, i8* %13, i64 16, i32 8, i1 false)
  ret void
}

declare void @_ZN2io5stdio10print_args20ha2ad804cfb78f72eyumE(%"struct.core::fmt::Arguments<[]>[#3]"* noalias nocapture dereferenceable(32)) unnamed_addr #2

; Function Attrs: inlinehint uwtable
define internal void @"_ZN3vec12Vec$LT$T$GT$4iter21h16318131407831971467E"(%"struct.core::slice::Items<[Box<HyObj>]>[#3]"* noalias nocapture sret dereferenceable(16), %"struct.collections::vec::Vec<[Box<HyObj>]>[#6]"* noalias dereferenceable(24)) unnamed_addr #1 {
entry-block:
  %self = alloca %"struct.collections::vec::Vec<[Box<HyObj>]>[#6]"*
  %2 = alloca { %"struct.HyObj<[]>"**, i64 }
  %__adjust = alloca { %"struct.HyObj<[]>"**, i64 }
  store %"struct.collections::vec::Vec<[Box<HyObj>]>[#6]"* %1, %"struct.collections::vec::Vec<[Box<HyObj>]>[#6]"** %self
  %3 = load %"struct.collections::vec::Vec<[Box<HyObj>]>[#6]"** %self
  call void @"_ZN3vec28Vec$LT$T$GT$.Vector$LT$T$GT$8as_slice21h17872811760189019562E"({ %"struct.HyObj<[]>"**, i64 }* noalias nocapture sret dereferenceable(16) %2, %"struct.collections::vec::Vec<[Box<HyObj>]>[#6]"* noalias dereferenceable(24) %3)
  %4 = getelementptr inbounds { %"struct.HyObj<[]>"**, i64 }* %2, i32 0, i32 0
  %5 = load %"struct.HyObj<[]>"*** %4
  %6 = getelementptr inbounds { %"struct.HyObj<[]>"**, i64 }* %2, i32 0, i32 1
  %7 = load i64* %6
  %8 = getelementptr inbounds { %"struct.HyObj<[]>"**, i64 }* %__adjust, i32 0, i32 0
  store %"struct.HyObj<[]>"** %5, %"struct.HyObj<[]>"*** %8
  %9 = getelementptr inbounds { %"struct.HyObj<[]>"**, i64 }* %__adjust, i32 0, i32 1
  store i64 %7, i64* %9
  call void @"_ZN5slice60_$BP$$x27a$x20$x5bT$x5d.ImmutableVector$LT$$x27a$C$$x20T$GT$4iter20h3479203828245091853E"(%"struct.core::slice::Items<[Box<HyObj>]>[#3]"* noalias nocapture sret dereferenceable(16) %0, { %"struct.HyObj<[]>"**, i64 }* noalias nocapture dereferenceable(16) %__adjust)
  ret void
}

; Function Attrs: inlinehint uwtable
define internal void @"_ZN5slice60_$BP$$x27a$x20$x5bT$x5d.ImmutableVector$LT$$x27a$C$$x20T$GT$4iter20h3479203828245091853E"(%"struct.core::slice::Items<[Box<HyObj>]>[#3]"* noalias nocapture sret dereferenceable(16), { %"struct.HyObj<[]>"**, i64 }* noalias nocapture dereferenceable(16)) unnamed_addr #1 {
entry-block:
  %p = alloca %"struct.HyObj<[]>"**
  %2 = alloca i64
  %3 = alloca i64
  %4 = alloca i64
  %5 = call %"struct.HyObj<[]>"** @"_ZN5slice60_$BP$$x27a$x20$x5bT$x5d.ImmutableVector$LT$$x27a$C$$x20T$GT$6as_ptr21h18373342061099985032E"({ %"struct.HyObj<[]>"**, i64 }* noalias dereferenceable(16) %1)
  store %"struct.HyObj<[]>"** %5, %"struct.HyObj<[]>"*** %p
  %6 = call i64 @_ZN3mem7size_of21h15234428265663029702E()
  store i64 %6, i64* %2
  %7 = load i64* %2
  %8 = icmp eq i64 %7, 0
  br i1 %8, label %then-block-2930-, label %else-block

then-block-2930-:                                 ; preds = %entry-block
  %9 = getelementptr inbounds %"struct.core::slice::Items<[Box<HyObj>]>[#3]"* %0, i32 0, i32 0
  %10 = load %"struct.HyObj<[]>"*** %p
  store %"struct.HyObj<[]>"** %10, %"struct.HyObj<[]>"*** %9
  %11 = getelementptr inbounds %"struct.core::slice::Items<[Box<HyObj>]>[#3]"* %0, i32 0, i32 1
  %12 = load %"struct.HyObj<[]>"*** %p
  %13 = ptrtoint %"struct.HyObj<[]>"** %12 to i64
  %14 = call i64 @"_ZN5slice34_$BP$$x27a$x20$x5bT$x5d.Collection3len20h2399317071214919819E"({ %"struct.HyObj<[]>"**, i64 }* noalias dereferenceable(16) %1)
  store i64 %14, i64* %3
  %15 = load i64* %3
  %16 = add i64 %13, %15
  %17 = inttoptr i64 %16 to %"struct.HyObj<[]>"**
  store %"struct.HyObj<[]>"** %17, %"struct.HyObj<[]>"*** %11
  %18 = getelementptr inbounds %"struct.core::slice::Items<[Box<HyObj>]>[#3]"* %0, i32 0, i32 2
  br label %join

else-block:                                       ; preds = %entry-block
  %19 = getelementptr inbounds %"struct.core::slice::Items<[Box<HyObj>]>[#3]"* %0, i32 0, i32 0
  %20 = load %"struct.HyObj<[]>"*** %p
  store %"struct.HyObj<[]>"** %20, %"struct.HyObj<[]>"*** %19
  %21 = getelementptr inbounds %"struct.core::slice::Items<[Box<HyObj>]>[#3]"* %0, i32 0, i32 1
  %22 = load %"struct.HyObj<[]>"*** %p
  %23 = call i64 @"_ZN5slice34_$BP$$x27a$x20$x5bT$x5d.Collection3len20h2399317071214919819E"({ %"struct.HyObj<[]>"**, i64 }* noalias dereferenceable(16) %1)
  store i64 %23, i64* %4
  %24 = load i64* %4
  %25 = call %"struct.HyObj<[]>"** @"_ZN3ptr31_$RP$const$x20T.RawPtr$LT$T$GT$6offset21h15244941566609166629E"(%"struct.HyObj<[]>"** %22, i64 %24)
  store %"struct.HyObj<[]>"** %25, %"struct.HyObj<[]>"*** %21
  %26 = getelementptr inbounds %"struct.core::slice::Items<[Box<HyObj>]>[#3]"* %0, i32 0, i32 2
  br label %join

join:                                             ; preds = %else-block, %then-block-2930-
  ret void
}

; Function Attrs: inlinehint uwtable
define internal %"struct.HyObj<[]>"** @"_ZN5slice60_$BP$$x27a$x20$x5bT$x5d.ImmutableVector$LT$$x27a$C$$x20T$GT$6as_ptr21h18373342061099985032E"({ %"struct.HyObj<[]>"**, i64 }* noalias nocapture dereferenceable(16)) unnamed_addr #1 {
entry-block:
  %self = alloca { %"struct.HyObj<[]>"**, i64 }*
  %1 = alloca %"struct.core::raw::Slice<[Box<HyObj>]>[#3]"
  store { %"struct.HyObj<[]>"**, i64 }* %0, { %"struct.HyObj<[]>"**, i64 }** %self
  %2 = load { %"struct.HyObj<[]>"**, i64 }** %self
  call void @_ZN3raw4Repr4repr21h15697506728738778793E(%"struct.core::raw::Slice<[Box<HyObj>]>[#3]"* noalias nocapture sret dereferenceable(16) %1, { %"struct.HyObj<[]>"**, i64 }* noalias dereferenceable(16) %2)
  %3 = getelementptr inbounds %"struct.core::raw::Slice<[Box<HyObj>]>[#3]"* %1, i32 0, i32 0
  %4 = load %"struct.HyObj<[]>"*** %3
  ret %"struct.HyObj<[]>"** %4
}

; Function Attrs: inlinehint uwtable
define internal void @_ZN3raw4Repr4repr21h15697506728738778793E(%"struct.core::raw::Slice<[Box<HyObj>]>[#3]"* noalias nocapture sret dereferenceable(16), { %"struct.HyObj<[]>"**, i64 }* noalias nocapture dereferenceable(16)) unnamed_addr #1 {
entry-block:
  %self = alloca { %"struct.HyObj<[]>"**, i64 }*
  store { %"struct.HyObj<[]>"**, i64 }* %1, { %"struct.HyObj<[]>"**, i64 }** %self
  %2 = load { %"struct.HyObj<[]>"**, i64 }** %self
  call void @_ZN3mem14transmute_copy21h17090130801842411997E(%"struct.core::raw::Slice<[Box<HyObj>]>[#3]"* noalias nocapture sret dereferenceable(16) %0, { %"struct.HyObj<[]>"**, i64 }* noalias nocapture dereferenceable(16) %2)
  ret void
}

; Function Attrs: inlinehint uwtable
define internal void @_ZN3mem14transmute_copy21h17090130801842411997E(%"struct.core::raw::Slice<[Box<HyObj>]>[#3]"* noalias nocapture sret dereferenceable(16), { %"struct.HyObj<[]>"**, i64 }* noalias nocapture dereferenceable(16)) unnamed_addr #1 {
entry-block:
  %src.i = alloca %"struct.core::raw::Slice<[Box<HyObj>]>[#3]"*
  %tmp.i = alloca %"struct.core::raw::Slice<[Box<HyObj>]>[#3]"
  %src = alloca { %"struct.HyObj<[]>"**, i64 }*
  store { %"struct.HyObj<[]>"**, i64 }* %1, { %"struct.HyObj<[]>"**, i64 }** %src
  %2 = load { %"struct.HyObj<[]>"**, i64 }** %src
  %3 = bitcast { %"struct.HyObj<[]>"**, i64 }* %2 to %"struct.core::raw::Slice<[Box<HyObj>]>[#3]"*
  store %"struct.core::raw::Slice<[Box<HyObj>]>[#3]"* %3, %"struct.core::raw::Slice<[Box<HyObj>]>[#3]"** %src.i
  call void @_ZN3mem13uninitialized21h10404589186679367676E(%"struct.core::raw::Slice<[Box<HyObj>]>[#3]"* noalias nocapture sret dereferenceable(16) %tmp.i)
  %4 = load %"struct.core::raw::Slice<[Box<HyObj>]>[#3]"** %src.i
  %5 = bitcast %"struct.core::raw::Slice<[Box<HyObj>]>[#3]"* %tmp.i to i8*
  %6 = bitcast %"struct.core::raw::Slice<[Box<HyObj>]>[#3]"* %4 to i8*
  call void @llvm.memcpy.p0i8.p0i8.i64(i8* %5, i8* %6, i64 16, i32 8, i1 false)
  %7 = bitcast %"struct.core::raw::Slice<[Box<HyObj>]>[#3]"* %tmp.i to i8*
  %8 = bitcast %"struct.core::raw::Slice<[Box<HyObj>]>[#3]"* %0 to i8*
  call void @llvm.memcpy.p0i8.p0i8.i64(i8* %8, i8* %7, i64 16, i32 8, i1 false)
  ret void
}

; Function Attrs: inlinehint uwtable
define internal void @_ZN3mem13uninitialized21h10404589186679367676E(%"struct.core::raw::Slice<[Box<HyObj>]>[#3]"* noalias nocapture sret dereferenceable(16)) unnamed_addr #1 {
entry-block:
  ret void
}

; Function Attrs: inlinehint uwtable
define internal i64 @_ZN3mem7size_of21h15234428265663029702E() unnamed_addr #1 {
entry-block:
  ret i64 8
}

; Function Attrs: inlinehint uwtable
define internal i64 @"_ZN5slice34_$BP$$x27a$x20$x5bT$x5d.Collection3len20h2399317071214919819E"({ %"struct.HyObj<[]>"**, i64 }* noalias nocapture dereferenceable(16)) unnamed_addr #1 {
entry-block:
  %self = alloca { %"struct.HyObj<[]>"**, i64 }*
  %1 = alloca %"struct.core::raw::Slice<[Box<HyObj>]>[#3]"
  store { %"struct.HyObj<[]>"**, i64 }* %0, { %"struct.HyObj<[]>"**, i64 }** %self
  %2 = load { %"struct.HyObj<[]>"**, i64 }** %self
  call void @_ZN3raw4Repr4repr21h12503974637000727944E(%"struct.core::raw::Slice<[Box<HyObj>]>[#3]"* noalias nocapture sret dereferenceable(16) %1, { %"struct.HyObj<[]>"**, i64 }* noalias dereferenceable(16) %2)
  %3 = getelementptr inbounds %"struct.core::raw::Slice<[Box<HyObj>]>[#3]"* %1, i32 0, i32 1
  %4 = load i64* %3
  ret i64 %4
}

; Function Attrs: inlinehint uwtable
define internal void @_ZN3raw4Repr4repr21h12503974637000727944E(%"struct.core::raw::Slice<[Box<HyObj>]>[#3]"* noalias nocapture sret dereferenceable(16), { %"struct.HyObj<[]>"**, i64 }* noalias nocapture dereferenceable(16)) unnamed_addr #1 {
entry-block:
  %self = alloca { %"struct.HyObj<[]>"**, i64 }*
  store { %"struct.HyObj<[]>"**, i64 }* %1, { %"struct.HyObj<[]>"**, i64 }** %self
  %2 = load { %"struct.HyObj<[]>"**, i64 }** %self
  call void @_ZN3mem14transmute_copy21h12013436176734514094E(%"struct.core::raw::Slice<[Box<HyObj>]>[#3]"* noalias nocapture sret dereferenceable(16) %0, { %"struct.HyObj<[]>"**, i64 }* noalias nocapture dereferenceable(16) %2)
  ret void
}

; Function Attrs: inlinehint uwtable
define internal void @_ZN3mem14transmute_copy21h12013436176734514094E(%"struct.core::raw::Slice<[Box<HyObj>]>[#3]"* noalias nocapture sret dereferenceable(16), { %"struct.HyObj<[]>"**, i64 }* noalias nocapture dereferenceable(16)) unnamed_addr #1 {
entry-block:
  %src.i = alloca %"struct.core::raw::Slice<[Box<HyObj>]>[#3]"*
  %tmp.i = alloca %"struct.core::raw::Slice<[Box<HyObj>]>[#3]"
  %src = alloca { %"struct.HyObj<[]>"**, i64 }*
  store { %"struct.HyObj<[]>"**, i64 }* %1, { %"struct.HyObj<[]>"**, i64 }** %src
  %2 = load { %"struct.HyObj<[]>"**, i64 }** %src
  %3 = bitcast { %"struct.HyObj<[]>"**, i64 }* %2 to %"struct.core::raw::Slice<[Box<HyObj>]>[#3]"*
  store %"struct.core::raw::Slice<[Box<HyObj>]>[#3]"* %3, %"struct.core::raw::Slice<[Box<HyObj>]>[#3]"** %src.i
  call void @_ZN3mem13uninitialized21h10404589186679367676E(%"struct.core::raw::Slice<[Box<HyObj>]>[#3]"* noalias nocapture sret dereferenceable(16) %tmp.i)
  %4 = load %"struct.core::raw::Slice<[Box<HyObj>]>[#3]"** %src.i
  %5 = bitcast %"struct.core::raw::Slice<[Box<HyObj>]>[#3]"* %tmp.i to i8*
  %6 = bitcast %"struct.core::raw::Slice<[Box<HyObj>]>[#3]"* %4 to i8*
  call void @llvm.memcpy.p0i8.p0i8.i64(i8* %5, i8* %6, i64 16, i32 8, i1 false)
  %7 = bitcast %"struct.core::raw::Slice<[Box<HyObj>]>[#3]"* %tmp.i to i8*
  %8 = bitcast %"struct.core::raw::Slice<[Box<HyObj>]>[#3]"* %0 to i8*
  call void @llvm.memcpy.p0i8.p0i8.i64(i8* %8, i8* %7, i64 16, i32 8, i1 false)
  ret void
}

; Function Attrs: inlinehint uwtable
define internal %"struct.HyObj<[]>"** @"_ZN3ptr31_$RP$const$x20T.RawPtr$LT$T$GT$6offset21h15244941566609166629E"(%"struct.HyObj<[]>"**, i64) unnamed_addr #1 {
entry-block:
  %self = alloca %"struct.HyObj<[]>"**
  %count = alloca i64
  store %"struct.HyObj<[]>"** %0, %"struct.HyObj<[]>"*** %self
  store i64 %1, i64* %count
  %2 = load %"struct.HyObj<[]>"*** %self
  %3 = load i64* %count
  %4 = getelementptr inbounds %"struct.HyObj<[]>"** %2, i64 %3
  ret %"struct.HyObj<[]>"** %4
}

; Function Attrs: inlinehint uwtable
define internal void @"_ZN3vec28Vec$LT$T$GT$.Vector$LT$T$GT$8as_slice21h17872811760189019562E"({ %"struct.HyObj<[]>"**, i64 }* noalias nocapture sret dereferenceable(16), %"struct.collections::vec::Vec<[Box<HyObj>]>[#6]"* noalias dereferenceable(24)) unnamed_addr #1 {
entry-block:
  %self = alloca %"struct.collections::vec::Vec<[Box<HyObj>]>[#6]"*
  store %"struct.collections::vec::Vec<[Box<HyObj>]>[#6]"* %1, %"struct.collections::vec::Vec<[Box<HyObj>]>[#6]"** %self
  %2 = bitcast { %"struct.HyObj<[]>"**, i64 }* %0 to %"struct.core::raw::Slice<[Box<HyObj>]>[#3]"*
  %3 = getelementptr inbounds %"struct.core::raw::Slice<[Box<HyObj>]>[#3]"* %2, i32 0, i32 0
  %4 = load %"struct.collections::vec::Vec<[Box<HyObj>]>[#6]"** %self
  %5 = call %"struct.HyObj<[]>"** @"_ZN3vec12Vec$LT$T$GT$6as_ptr20h1666515520246802961E"(%"struct.collections::vec::Vec<[Box<HyObj>]>[#6]"* noalias dereferenceable(24) %4)
  store %"struct.HyObj<[]>"** %5, %"struct.HyObj<[]>"*** %3
  %6 = getelementptr inbounds %"struct.core::raw::Slice<[Box<HyObj>]>[#3]"* %2, i32 0, i32 1
  %7 = load %"struct.collections::vec::Vec<[Box<HyObj>]>[#6]"** %self
  %8 = getelementptr inbounds %"struct.collections::vec::Vec<[Box<HyObj>]>[#6]"* %7, i32 0, i32 0
  %9 = load i64* %8
  store i64 %9, i64* %6
  ret void
}

; Function Attrs: inlinehint uwtable
define internal %"struct.HyObj<[]>"** @"_ZN3vec12Vec$LT$T$GT$6as_ptr20h1666515520246802961E"(%"struct.collections::vec::Vec<[Box<HyObj>]>[#6]"* noalias nocapture dereferenceable(24)) unnamed_addr #1 {
entry-block:
  %self = alloca %"struct.collections::vec::Vec<[Box<HyObj>]>[#6]"*
  store %"struct.collections::vec::Vec<[Box<HyObj>]>[#6]"* %0, %"struct.collections::vec::Vec<[Box<HyObj>]>[#6]"** %self
  %1 = load %"struct.collections::vec::Vec<[Box<HyObj>]>[#6]"** %self
  %2 = getelementptr inbounds %"struct.collections::vec::Vec<[Box<HyObj>]>[#6]"* %1, i32 0, i32 2
  %3 = load %"struct.HyObj<[]>"*** %2
  ret %"struct.HyObj<[]>"** %3
}

; Function Attrs: inlinehint uwtable
define internal i8* @"_ZN5slice57Items$LT$$x27a$C$$x20T$GT$.Iterator$LT$$BP$$x27a$x20T$GT$4next21h17569184356016087143E"(%"struct.core::slice::Items<[Box<HyObj>]>[#3]"* noalias nocapture dereferenceable(16)) unnamed_addr #1 {
entry-block:
  %sret_slot = alloca i8*
  %self = alloca %"struct.core::slice::Items<[Box<HyObj>]>[#3]"*
  %1 = alloca i64
  %old = alloca %"struct.HyObj<[]>"**
  store %"struct.core::slice::Items<[Box<HyObj>]>[#3]"* %0, %"struct.core::slice::Items<[Box<HyObj>]>[#3]"** %self
  %2 = load %"struct.core::slice::Items<[Box<HyObj>]>[#3]"** %self
  %3 = getelementptr inbounds %"struct.core::slice::Items<[Box<HyObj>]>[#3]"* %2, i32 0, i32 0
  %4 = load %"struct.core::slice::Items<[Box<HyObj>]>[#3]"** %self
  %5 = getelementptr inbounds %"struct.core::slice::Items<[Box<HyObj>]>[#3]"* %4, i32 0, i32 1
  %6 = load %"struct.HyObj<[]>"*** %3
  %7 = load %"struct.HyObj<[]>"*** %5
  %8 = icmp eq %"struct.HyObj<[]>"** %6, %7
  br i1 %8, label %then-block-3149-, label %else-block

then-block-3149-:                                 ; preds = %entry-block
  store i8* null, i8** %sret_slot
  br label %join2

else-block:                                       ; preds = %entry-block
  %9 = call i64 @_ZN3mem7size_of21h15234428265663029702E()
  store i64 %9, i64* %1
  %10 = load i64* %1
  %11 = icmp eq i64 %10, 0
  br i1 %11, label %then-block-3160-, label %else-block1

then-block-3160-:                                 ; preds = %else-block
  %12 = load %"struct.core::slice::Items<[Box<HyObj>]>[#3]"** %self
  %13 = getelementptr inbounds %"struct.core::slice::Items<[Box<HyObj>]>[#3]"* %12, i32 0, i32 0
  %14 = bitcast %"struct.HyObj<[]>"*** %13 to i64*
  %15 = load %"struct.core::slice::Items<[Box<HyObj>]>[#3]"** %self
  %16 = getelementptr inbounds %"struct.core::slice::Items<[Box<HyObj>]>[#3]"* %15, i32 0, i32 0
  %17 = load %"struct.HyObj<[]>"*** %16
  %18 = ptrtoint %"struct.HyObj<[]>"** %17 to i64
  %19 = add i64 %18, 1
  store i64 %19, i64* %14
  %20 = bitcast i8** %sret_slot to %"struct.HyObj<[]>"***
  %21 = bitcast %"struct.HyObj<[]>"*** %20 to i64*
  store i64 1, i64* %21
  br label %join

else-block1:                                      ; preds = %else-block
  %22 = load %"struct.core::slice::Items<[Box<HyObj>]>[#3]"** %self
  %23 = getelementptr inbounds %"struct.core::slice::Items<[Box<HyObj>]>[#3]"* %22, i32 0, i32 0
  %24 = load %"struct.HyObj<[]>"*** %23
  store %"struct.HyObj<[]>"** %24, %"struct.HyObj<[]>"*** %old
  %25 = load %"struct.core::slice::Items<[Box<HyObj>]>[#3]"** %self
  %26 = getelementptr inbounds %"struct.core::slice::Items<[Box<HyObj>]>[#3]"* %25, i32 0, i32 0
  %27 = load %"struct.core::slice::Items<[Box<HyObj>]>[#3]"** %self
  %28 = getelementptr inbounds %"struct.core::slice::Items<[Box<HyObj>]>[#3]"* %27, i32 0, i32 0
  %29 = load %"struct.HyObj<[]>"*** %28
  %30 = call %"struct.HyObj<[]>"** @"_ZN3ptr31_$RP$const$x20T.RawPtr$LT$T$GT$6offset21h15244941566609166629E"(%"struct.HyObj<[]>"** %29, i64 1)
  store %"struct.HyObj<[]>"** %30, %"struct.HyObj<[]>"*** %26
  %31 = bitcast i8** %sret_slot to %"struct.HyObj<[]>"***
  %32 = load %"struct.HyObj<[]>"*** %old
  store %"struct.HyObj<[]>"** %32, %"struct.HyObj<[]>"*** %31
  br label %join

join:                                             ; preds = %else-block1, %then-block-3160-
  br label %join2

join2:                                            ; preds = %join, %then-block-3149-
  %33 = load i8** %sret_slot
  ret i8* %33
}

; Function Attrs: uwtable
define i32 @hy_obj_to_truthy_val(%"struct.HyObj<[]>"* nocapture dereferenceable(112)) unnamed_addr #0 {
entry-block:
  %sret_slot = alloca i32
  %obj = alloca %"struct.HyObj<[]>"*
  %__llmatch = alloca i8*
  %b = alloca i8
  store %"struct.HyObj<[]>"* %0, %"struct.HyObj<[]>"** %obj
  %1 = load %"struct.HyObj<[]>"** %obj
  %2 = getelementptr inbounds %"struct.HyObj<[]>"* %1, i32 0, i32 0
  %3 = getelementptr inbounds %"enum.HyObjType<[]>"* %2, i32 0, i32 0
  %4 = load i8* %3, !range !1
  switch i8 %4, label %match_else [
    i8 8, label %match_case
  ]

case_body:                                        ; preds = %match_case
  %5 = load i8** %__llmatch
  %6 = load i8* %5
  store i8 %6, i8* %b
  %7 = load i8* %b, !range !0
  %8 = trunc i8 %7 to i1
  %9 = zext i1 %8 to i32
  store i32 %9, i32* %sret_slot
  br label %join

case_body1:                                       ; preds = %match_else
  store i32 0, i32* %sret_slot
  br label %join

match_else:                                       ; preds = %entry-block
  br label %case_body1

match_case:                                       ; preds = %entry-block
  %10 = bitcast %"enum.HyObjType<[]>"* %2 to { i8, i8 }*
  %11 = getelementptr inbounds { i8, i8 }* %10, i32 0, i32 1
  store i8* %11, i8** %__llmatch
  br label %case_body

join:                                             ; preds = %case_body1, %case_body
  %12 = load i32* %sret_slot
  ret i32 %12
}

; Function Attrs: uwtable
define i8* @hy_obj_to_str(%"struct.HyObj<[]>"* nocapture dereferenceable(112)) unnamed_addr #0 {
entry-block:
  %sret_slot = alloca i8*
  %self = alloca %"struct.HyObj<[]>"*
  %__llmatch = alloca i64*
  %i = alloca i64
  %__llmatch4 = alloca double*
  %f = alloca double
  %s = alloca %"struct.collections::string::String<[]>[#6]"*
  %r = alloca %"enum.regex::re::Regex<[]>[#10]"*
  %vec = alloca %"struct.collections::vec::Vec<[Box<HyObj>]>[#6]"*
  %vec9 = alloca %"struct.collections::vec::Vec<[Box<HyObj>]>[#6]"*
  %map = alloca %"struct.collections::treemap::TreeMap<[collections::string::String, Box<HyObj>]>[#6]"*
  %b = alloca i8*
  %1 = alloca %"struct.rustrt::c_str::CString<[]>[#9]"
  %2 = alloca %"struct.collections::string::String<[]>[#6]"
  %3 = alloca %str_slice
  %4 = alloca { i8*, i32 }
  %5 = alloca %"struct.rustrt::c_str::CString<[]>[#9]"
  %6 = alloca %"struct.collections::string::String<[]>[#6]"
  %7 = alloca %str_slice
  %8 = alloca %"struct.rustrt::c_str::CString<[]>[#9]"
  %9 = alloca %"struct.collections::string::String<[]>[#6]"
  %10 = alloca { i64* }
  %match = alloca { i64* }
  %__llmatch26 = alloca i64**
  %__arg0 = alloca i64*
  %__args_vec = alloca { %"struct.core::fmt::Argument<[]>[#3]"*, i64 }
  %11 = alloca %"struct.core::fmt::Argument<[]>[#3]"
  %__args = alloca %"struct.core::fmt::Arguments<[]>[#3]"
  %__adjust = alloca { %"enum.core::fmt::rt::Piece<[]>[#3]"*, i64 }
  %__adjust27 = alloca { %"struct.core::fmt::Argument<[]>[#3]"*, i64 }
  %12 = alloca %"struct.rustrt::c_str::CString<[]>[#9]"
  %13 = alloca %"struct.collections::string::String<[]>[#6]"
  %14 = alloca { double* }
  %match31 = alloca { double* }
  %__llmatch33 = alloca double**
  %__arg034 = alloca double*
  %__args_vec35 = alloca { %"struct.core::fmt::Argument<[]>[#3]"*, i64 }
  %15 = alloca %"struct.core::fmt::Argument<[]>[#3]"
  %__args36 = alloca %"struct.core::fmt::Arguments<[]>[#3]"
  %__adjust37 = alloca { %"enum.core::fmt::rt::Piece<[]>[#3]"*, i64 }
  %__adjust38 = alloca { %"struct.core::fmt::Argument<[]>[#3]"*, i64 }
  %ret = alloca i8*
  %16 = alloca %"struct.rustrt::c_str::CString<[]>[#9]"
  %17 = alloca %"struct.rustrt::c_str::CString<[]>[#9]"
  %18 = alloca %"struct.collections::string::String<[]>[#6]"
  %19 = alloca { %"enum.regex::re::Regex<[]>[#10]"** }
  %match43 = alloca { %"enum.regex::re::Regex<[]>[#10]"** }
  %__llmatch45 = alloca %"enum.regex::re::Regex<[]>[#10]"***
  %__arg046 = alloca %"enum.regex::re::Regex<[]>[#10]"**
  %__args_vec47 = alloca { %"struct.core::fmt::Argument<[]>[#3]"*, i64 }
  %20 = alloca %"struct.core::fmt::Argument<[]>[#3]"
  %__args48 = alloca %"struct.core::fmt::Arguments<[]>[#3]"
  %__adjust49 = alloca { %"enum.core::fmt::rt::Piece<[]>[#3]"*, i64 }
  %__adjust50 = alloca { %"struct.core::fmt::Argument<[]>[#3]"*, i64 }
  %21 = alloca %"struct.rustrt::c_str::CString<[]>[#9]"
  %22 = alloca %"struct.collections::string::String<[]>[#6]"
  %23 = alloca %str_slice
  %24 = alloca %"struct.rustrt::c_str::CString<[]>[#9]"
  %25 = alloca %"struct.collections::string::String<[]>[#6]"
  %26 = alloca %str_slice
  %27 = alloca %"struct.rustrt::c_str::CString<[]>[#9]"
  %28 = alloca %"struct.collections::string::String<[]>[#6]"
  %29 = alloca %str_slice
  %30 = alloca %"struct.rustrt::c_str::CString<[]>[#9]"
  %31 = alloca %"struct.collections::string::String<[]>[#6]"
  %32 = alloca %str_slice
  %33 = alloca %"struct.rustrt::c_str::CString<[]>[#9]"
  %34 = alloca %"struct.collections::string::String<[]>[#6]"
  %35 = alloca %str_slice
  %36 = alloca %"struct.rustrt::c_str::CString<[]>[#9]"
  %37 = alloca %"struct.collections::string::String<[]>[#6]"
  %38 = alloca %str_slice
  store %"struct.HyObj<[]>"* %0, %"struct.HyObj<[]>"** %self
  %39 = load %"struct.HyObj<[]>"** %self
  %40 = getelementptr inbounds %"struct.HyObj<[]>"* %39, i32 0, i32 0
  %41 = getelementptr inbounds %"enum.HyObjType<[]>"* %40, i32 0, i32 0
  %42 = load i8* %41, !range !1
  switch i8 %42, label %match_else [
    i8 10, label %match_case
    i8 11, label %match_case13
    i8 9, label %match_case14
    i8 7, label %match_case15
    i8 5, label %match_case16
    i8 6, label %match_case17
    i8 3, label %match_case18
    i8 4, label %match_case19
    i8 2, label %match_case20
    i8 8, label %match_case21
  ]

case_body:                                        ; preds = %match_case
  %43 = getelementptr inbounds %str_slice* %3, i32 0, i32 0
  store i8* getelementptr inbounds ([9 x i8]* @str2515, i32 0, i32 0), i8** %43
  %44 = getelementptr inbounds %str_slice* %3, i32 0, i32 1
  store i64 9, i64* %44
  call void @_ZN9to_string10T.ToString9to_string21h17534012255684857973E(%"struct.collections::string::String<[]>[#6]"* noalias nocapture sret dereferenceable(24) %2, %str_slice* noalias dereferenceable(16) %3)
  invoke void @_ZN5c_str13String.ToCStr8to_c_str20h54b4e5d75917422eNZaE(%"struct.rustrt::c_str::CString<[]>[#9]"* noalias nocapture sret dereferenceable(16) %1, %"struct.collections::string::String<[]>[#6]"* noalias dereferenceable(24) %2)
          to label %normal-return unwind label %unwind_ast_673_

case_body1:                                       ; preds = %match_case13
  %45 = getelementptr inbounds %str_slice* %7, i32 0, i32 0
  store i8* getelementptr inbounds ([4 x i8]* @str2563, i32 0, i32 0), i8** %45
  %46 = getelementptr inbounds %str_slice* %7, i32 0, i32 1
  store i64 4, i64* %46
  call void @_ZN9to_string10T.ToString9to_string21h17534012255684857973E(%"struct.collections::string::String<[]>[#6]"* noalias nocapture sret dereferenceable(24) %6, %str_slice* noalias dereferenceable(16) %7)
  invoke void @_ZN5c_str13String.ToCStr8to_c_str20h54b4e5d75917422eNZaE(%"struct.rustrt::c_str::CString<[]>[#9]"* noalias nocapture sret dereferenceable(16) %5, %"struct.collections::string::String<[]>[#6]"* noalias dereferenceable(24) %6)
          to label %normal-return23 unwind label %unwind_ast_682_

case_body2:                                       ; preds = %match_case14
  %47 = load i64** %__llmatch
  %48 = load i64* %47
  store i64 %48, i64* %i
  %49 = getelementptr inbounds { i64* }* %10, i32 0, i32 0
  store i64* %i, i64** %49
  %50 = load { i64* }* %10
  store { i64* } %50, { i64* }* %match
  %51 = getelementptr inbounds { i64* }* %match, i32 0, i32 0
  store i64** %51, i64*** %__llmatch26
  br label %case_body25

case_body3:                                       ; preds = %match_case15
  %52 = load double** %__llmatch4
  %53 = load double* %52
  store double %53, double* %f
  %54 = getelementptr inbounds { double* }* %14, i32 0, i32 0
  store double* %f, double** %54
  %55 = load { double* }* %14
  store { double* } %55, { double* }* %match31
  %56 = getelementptr inbounds { double* }* %match31, i32 0, i32 0
  store double** %56, double*** %__llmatch33
  br label %case_body32

case_body5:                                       ; preds = %match_case16
  %57 = load %"struct.collections::string::String<[]>[#6]"** %s
  call void @_ZN5c_str13String.ToCStr18to_c_str_unchecked20h82d2dd373fbc6aec93aE(%"struct.rustrt::c_str::CString<[]>[#9]"* noalias nocapture sret dereferenceable(16) %16, %"struct.collections::string::String<[]>[#6]"* noalias dereferenceable(24) %57)
  %58 = call i8* @_ZN5c_str7CString6unwrap20h438c841e01f73389b4aE(%"struct.rustrt::c_str::CString<[]>[#9]"* noalias nocapture dereferenceable(16) %16)
  store i8* %58, i8** %ret
  %59 = load i8** %ret
  store i8* %59, i8** %sret_slot
  br label %join72

case_body6:                                       ; preds = %match_case17
  %60 = getelementptr inbounds { %"enum.regex::re::Regex<[]>[#10]"** }* %19, i32 0, i32 0
  store %"enum.regex::re::Regex<[]>[#10]"** %r, %"enum.regex::re::Regex<[]>[#10]"*** %60
  %61 = load { %"enum.regex::re::Regex<[]>[#10]"** }* %19
  store { %"enum.regex::re::Regex<[]>[#10]"** } %61, { %"enum.regex::re::Regex<[]>[#10]"** }* %match43
  %62 = getelementptr inbounds { %"enum.regex::re::Regex<[]>[#10]"** }* %match43, i32 0, i32 0
  store %"enum.regex::re::Regex<[]>[#10]"*** %62, %"enum.regex::re::Regex<[]>[#10]"**** %__llmatch45
  br label %case_body44

case_body7:                                       ; preds = %match_case18
  %63 = getelementptr inbounds %str_slice* %23, i32 0, i32 0
  store i8* getelementptr inbounds ([10 x i8]* @str2572, i32 0, i32 0), i8** %63
  %64 = getelementptr inbounds %str_slice* %23, i32 0, i32 1
  store i64 10, i64* %64
  call void @_ZN9to_string10T.ToString9to_string21h17534012255684857973E(%"struct.collections::string::String<[]>[#6]"* noalias nocapture sret dereferenceable(24) %22, %str_slice* noalias dereferenceable(16) %23)
  invoke void @_ZN5c_str13String.ToCStr8to_c_str20h54b4e5d75917422eNZaE(%"struct.rustrt::c_str::CString<[]>[#9]"* noalias nocapture sret dereferenceable(16) %21, %"struct.collections::string::String<[]>[#6]"* noalias dereferenceable(24) %22)
          to label %normal-return55 unwind label %unwind_ast_892_

case_body8:                                       ; preds = %match_case19
  %65 = getelementptr inbounds %str_slice* %26, i32 0, i32 0
  store i8* getelementptr inbounds ([10 x i8]* @str2573, i32 0, i32 0), i8** %65
  %66 = getelementptr inbounds %str_slice* %26, i32 0, i32 1
  store i64 10, i64* %66
  call void @_ZN9to_string10T.ToString9to_string21h17534012255684857973E(%"struct.collections::string::String<[]>[#6]"* noalias nocapture sret dereferenceable(24) %25, %str_slice* noalias dereferenceable(16) %26)
  invoke void @_ZN5c_str13String.ToCStr8to_c_str20h54b4e5d75917422eNZaE(%"struct.rustrt::c_str::CString<[]>[#9]"* noalias nocapture sret dereferenceable(16) %24, %"struct.collections::string::String<[]>[#6]"* noalias dereferenceable(24) %25)
          to label %normal-return58 unwind label %unwind_ast_902_

case_body10:                                      ; preds = %match_case20
  %67 = getelementptr inbounds %str_slice* %29, i32 0, i32 0
  store i8* getelementptr inbounds ([8 x i8]* @str2574, i32 0, i32 0), i8** %67
  %68 = getelementptr inbounds %str_slice* %29, i32 0, i32 1
  store i64 8, i64* %68
  call void @_ZN9to_string10T.ToString9to_string21h17534012255684857973E(%"struct.collections::string::String<[]>[#6]"* noalias nocapture sret dereferenceable(24) %28, %str_slice* noalias dereferenceable(16) %29)
  invoke void @_ZN5c_str13String.ToCStr8to_c_str20h54b4e5d75917422eNZaE(%"struct.rustrt::c_str::CString<[]>[#9]"* noalias nocapture sret dereferenceable(16) %27, %"struct.collections::string::String<[]>[#6]"* noalias dereferenceable(24) %28)
          to label %normal-return61 unwind label %unwind_ast_912_

case_body11:                                      ; preds = %match_case21
  %69 = load i8** %b
  %70 = load i8* %69, !range !0
  %71 = trunc i8 %70 to i1
  br i1 %71, label %then-block-927-, label %else-block

case_body12:                                      ; preds = %match_else
  %72 = getelementptr inbounds %str_slice* %38, i32 0, i32 0
  store i8* getelementptr inbounds ([60 x i8]* @str2577, i32 0, i32 0), i8** %72
  %73 = getelementptr inbounds %str_slice* %38, i32 0, i32 1
  store i64 60, i64* %73
  call void @_ZN9to_string10T.ToString9to_string21h17534012255684857973E(%"struct.collections::string::String<[]>[#6]"* noalias nocapture sret dereferenceable(24) %37, %str_slice* noalias dereferenceable(16) %38)
  invoke void @_ZN5c_str13String.ToCStr8to_c_str20h54b4e5d75917422eNZaE(%"struct.rustrt::c_str::CString<[]>[#9]"* noalias nocapture sret dereferenceable(16) %36, %"struct.collections::string::String<[]>[#6]"* noalias dereferenceable(24) %37)
          to label %normal-return70 unwind label %unwind_ast_943_

match_else:                                       ; preds = %entry-block
  br label %case_body12

match_case:                                       ; preds = %entry-block
  br label %case_body

match_case13:                                     ; preds = %entry-block
  br label %case_body1

match_case14:                                     ; preds = %entry-block
  %74 = bitcast %"enum.HyObjType<[]>"* %40 to { i8, i64 }*
  %75 = getelementptr inbounds { i8, i64 }* %74, i32 0, i32 1
  store i64* %75, i64** %__llmatch
  br label %case_body2

match_case15:                                     ; preds = %entry-block
  %76 = bitcast %"enum.HyObjType<[]>"* %40 to { i8, double }*
  %77 = getelementptr inbounds { i8, double }* %76, i32 0, i32 1
  store double* %77, double** %__llmatch4
  br label %case_body3

match_case16:                                     ; preds = %entry-block
  %78 = bitcast %"enum.HyObjType<[]>"* %40 to { i8, %"struct.collections::string::String<[]>[#6]" }*
  %79 = getelementptr inbounds { i8, %"struct.collections::string::String<[]>[#6]" }* %78, i32 0, i32 1
  store %"struct.collections::string::String<[]>[#6]"* %79, %"struct.collections::string::String<[]>[#6]"** %s
  br label %case_body5

match_case17:                                     ; preds = %entry-block
  %80 = bitcast %"enum.HyObjType<[]>"* %40 to { i8, %"enum.regex::re::Regex<[]>[#10]" }*
  %81 = getelementptr inbounds { i8, %"enum.regex::re::Regex<[]>[#10]" }* %80, i32 0, i32 1
  store %"enum.regex::re::Regex<[]>[#10]"* %81, %"enum.regex::re::Regex<[]>[#10]"** %r
  br label %case_body6

match_case18:                                     ; preds = %entry-block
  %82 = bitcast %"enum.HyObjType<[]>"* %40 to { i8, %"struct.collections::vec::Vec<[Box<HyObj>]>[#6]" }*
  %83 = getelementptr inbounds { i8, %"struct.collections::vec::Vec<[Box<HyObj>]>[#6]" }* %82, i32 0, i32 1
  store %"struct.collections::vec::Vec<[Box<HyObj>]>[#6]"* %83, %"struct.collections::vec::Vec<[Box<HyObj>]>[#6]"** %vec
  br label %case_body7

match_case19:                                     ; preds = %entry-block
  %84 = bitcast %"enum.HyObjType<[]>"* %40 to { i8, %"struct.collections::vec::Vec<[Box<HyObj>]>[#6]" }*
  %85 = getelementptr inbounds { i8, %"struct.collections::vec::Vec<[Box<HyObj>]>[#6]" }* %84, i32 0, i32 1
  store %"struct.collections::vec::Vec<[Box<HyObj>]>[#6]"* %85, %"struct.collections::vec::Vec<[Box<HyObj>]>[#6]"** %vec9
  br label %case_body8

match_case20:                                     ; preds = %entry-block
  %86 = bitcast %"enum.HyObjType<[]>"* %40 to { i8, %"struct.collections::treemap::TreeMap<[collections::string::String, Box<HyObj>]>[#6]" }*
  %87 = getelementptr inbounds { i8, %"struct.collections::treemap::TreeMap<[collections::string::String, Box<HyObj>]>[#6]" }* %86, i32 0, i32 1
  store %"struct.collections::treemap::TreeMap<[collections::string::String, Box<HyObj>]>[#6]"* %87, %"struct.collections::treemap::TreeMap<[collections::string::String, Box<HyObj>]>[#6]"** %map
  br label %case_body10

match_case21:                                     ; preds = %entry-block
  %88 = bitcast %"enum.HyObjType<[]>"* %40 to { i8, i8 }*
  %89 = getelementptr inbounds { i8, i8 }* %88, i32 0, i32 1
  store i8* %89, i8** %b
  br label %case_body11

normal-return:                                    ; preds = %case_body
  %90 = invoke i8* @_ZN5c_str7CString6unwrap20h438c841e01f73389b4aE(%"struct.rustrt::c_str::CString<[]>[#9]"* noalias nocapture dereferenceable(16) %1)
          to label %normal-return22 unwind label %unwind_ast_673_

unwind_ast_673_:                                  ; preds = %normal-return, %case_body
  %91 = landingpad { i8*, i32 } personality i32 (i32, i32, i64, %"struct.rustrt::libunwind::_Unwind_Exception<[]>[#9]"*, %"enum.rustrt::libunwind::_Unwind_Context<[]>[#9]"*)* @rust_eh_personality
          cleanup
  store { i8*, i32 } %91, { i8*, i32 }* %4
  br label %clean_ast_673_

resume:                                           ; preds = %clean_custom_
  %92 = load { i8*, i32 }* %4
  resume { i8*, i32 } %92

clean_custom_:                                    ; preds = %clean_ast_943_, %clean_custom_65, %clean_custom_62, %clean_custom_59, %clean_custom_56, %clean_custom_53, %clean_custom_41, %clean_custom_29, %clean_ast_682_, %clean_ast_673_
  br label %resume

clean_ast_673_:                                   ; preds = %unwind_ast_673_
  call void @_ZN27collections..string..String14glue_drop.254617h993ff6726f821cd0E(%"struct.collections::string::String<[]>[#6]"* %2)
  br label %clean_custom_

normal-return22:                                  ; preds = %normal-return
  store i8* %90, i8** %sret_slot
  call void @_ZN27collections..string..String14glue_drop.254617h993ff6726f821cd0E(%"struct.collections::string::String<[]>[#6]"* %2)
  br label %join72

normal-return23:                                  ; preds = %case_body1
  %93 = invoke i8* @_ZN5c_str7CString6unwrap20h438c841e01f73389b4aE(%"struct.rustrt::c_str::CString<[]>[#9]"* noalias nocapture dereferenceable(16) %5)
          to label %normal-return24 unwind label %unwind_ast_682_

unwind_ast_682_:                                  ; preds = %normal-return23, %case_body1
  %94 = landingpad { i8*, i32 } personality i32 (i32, i32, i64, %"struct.rustrt::libunwind::_Unwind_Exception<[]>[#9]"*, %"enum.rustrt::libunwind::_Unwind_Context<[]>[#9]"*)* @rust_eh_personality
          cleanup
  store { i8*, i32 } %94, { i8*, i32 }* %4
  br label %clean_ast_682_

clean_ast_682_:                                   ; preds = %unwind_ast_682_
  call void @_ZN27collections..string..String14glue_drop.254617h993ff6726f821cd0E(%"struct.collections::string::String<[]>[#6]"* %6)
  br label %clean_custom_

normal-return24:                                  ; preds = %normal-return23
  store i8* %93, i8** %sret_slot
  call void @_ZN27collections..string..String14glue_drop.254617h993ff6726f821cd0E(%"struct.collections::string::String<[]>[#6]"* %6)
  br label %join72

case_body25:                                      ; preds = %case_body2
  %95 = load i64*** %__llmatch26
  %96 = load i64** %95
  store i64* %96, i64** %__arg0
  %97 = bitcast %"struct.core::fmt::Argument<[]>[#3]"* %11 to [1 x %"struct.core::fmt::Argument<[]>[#3]"]*
  %98 = getelementptr inbounds %"struct.core::fmt::Argument<[]>[#3]"* %11, i32 0
  %99 = load i64** %__arg0
  call void @_ZN3fmt8argument20h6100430583159702791E(%"struct.core::fmt::Argument<[]>[#3]"* noalias nocapture sret dereferenceable(16) %98, %"enum.core::result::Result<[(), core::fmt::FormatError]>[#3]" (i64*, %"struct.core::fmt::Formatter<[]>[#3]"*)* @_ZN3fmt11secret_show20h6104192457487343950E, i64* noalias dereferenceable(8) %99)
  %100 = getelementptr inbounds { %"struct.core::fmt::Argument<[]>[#3]"*, i64 }* %__args_vec, i32 0, i32 0
  store %"struct.core::fmt::Argument<[]>[#3]"* %11, %"struct.core::fmt::Argument<[]>[#3]"** %100
  %101 = getelementptr inbounds { %"struct.core::fmt::Argument<[]>[#3]"*, i64 }* %__args_vec, i32 0, i32 1
  store i64 1, i64* %101
  %102 = getelementptr inbounds { %"enum.core::fmt::rt::Piece<[]>[#3]"*, i64 }* %__adjust, i32 0, i32 0
  store %"enum.core::fmt::rt::Piece<[]>[#3]"* getelementptr inbounds ([2 x %"enum.core::fmt::rt::Piece<[]>[#3]"]* bitcast ({ { i8, %str_slice, [48 x i8] }, { i8, { { i8, [15 x i8] }, { i32, i8, i64, { i8, [15 x i8] }, { i8, [15 x i8] } } }, [0 x i8] } }* @_ZN5HyObj13hy_obj_to_str15__STATIC_FMTSTR20h42038198f74a27d4AlaE to [2 x %"enum.core::fmt::rt::Piece<[]>[#3]"]*), i32 0, i32 0), %"enum.core::fmt::rt::Piece<[]>[#3]"** %102
  %103 = getelementptr inbounds { %"enum.core::fmt::rt::Piece<[]>[#3]"*, i64 }* %__adjust, i32 0, i32 1
  store i64 2, i64* %103
  %104 = getelementptr inbounds { %"struct.core::fmt::Argument<[]>[#3]"*, i64 }* %__args_vec, i32 0, i32 0
  %105 = load %"struct.core::fmt::Argument<[]>[#3]"** %104
  %106 = getelementptr inbounds { %"struct.core::fmt::Argument<[]>[#3]"*, i64 }* %__args_vec, i32 0, i32 1
  %107 = load i64* %106
  %108 = getelementptr inbounds { %"struct.core::fmt::Argument<[]>[#3]"*, i64 }* %__adjust27, i32 0, i32 0
  store %"struct.core::fmt::Argument<[]>[#3]"* %105, %"struct.core::fmt::Argument<[]>[#3]"** %108
  %109 = getelementptr inbounds { %"struct.core::fmt::Argument<[]>[#3]"*, i64 }* %__adjust27, i32 0, i32 1
  store i64 %107, i64* %109
  call void @"_ZN3fmt22Arguments$LT$$x27a$GT$3new20h08e5545b7031607ajUaE"(%"struct.core::fmt::Arguments<[]>[#3]"* noalias nocapture sret dereferenceable(32) %__args, { %"enum.core::fmt::rt::Piece<[]>[#3]"*, i64 }* noalias nocapture dereferenceable(16) %__adjust, { %"struct.core::fmt::Argument<[]>[#3]"*, i64 }* noalias nocapture dereferenceable(16) %__adjust27)
  call void @_ZN3fmt6format20h05b71c90fa35a7ceeWqE(%"struct.collections::string::String<[]>[#6]"* noalias nocapture sret dereferenceable(24) %9, %"struct.core::fmt::Arguments<[]>[#3]"* noalias nocapture dereferenceable(32) %__args)
  br label %join

join:                                             ; preds = %case_body25
  invoke void @_ZN5c_str13String.ToCStr8to_c_str20h54b4e5d75917422eNZaE(%"struct.rustrt::c_str::CString<[]>[#9]"* noalias nocapture sret dereferenceable(16) %8, %"struct.collections::string::String<[]>[#6]"* noalias dereferenceable(24) %9)
          to label %normal-return28 unwind label %unwind_ast_692_

normal-return28:                                  ; preds = %join
  %110 = invoke i8* @_ZN5c_str7CString6unwrap20h438c841e01f73389b4aE(%"struct.rustrt::c_str::CString<[]>[#9]"* noalias nocapture dereferenceable(16) %8)
          to label %normal-return30 unwind label %unwind_ast_692_

unwind_ast_692_:                                  ; preds = %normal-return28, %join
  %111 = landingpad { i8*, i32 } personality i32 (i32, i32, i64, %"struct.rustrt::libunwind::_Unwind_Exception<[]>[#9]"*, %"enum.rustrt::libunwind::_Unwind_Context<[]>[#9]"*)* @rust_eh_personality
          cleanup
  store { i8*, i32 } %111, { i8*, i32 }* %4
  br label %clean_ast_692_

clean_custom_29:                                  ; preds = %clean_ast_692_
  br label %clean_custom_

clean_ast_692_:                                   ; preds = %unwind_ast_692_
  call void @_ZN27collections..string..String14glue_drop.254617h993ff6726f821cd0E(%"struct.collections::string::String<[]>[#6]"* %9)
  br label %clean_custom_29

normal-return30:                                  ; preds = %normal-return28
  store i8* %110, i8** %sret_slot
  call void @_ZN27collections..string..String14glue_drop.254617h993ff6726f821cd0E(%"struct.collections::string::String<[]>[#6]"* %9)
  br label %join72

case_body32:                                      ; preds = %case_body3
  %112 = load double*** %__llmatch33
  %113 = load double** %112
  store double* %113, double** %__arg034
  %114 = bitcast %"struct.core::fmt::Argument<[]>[#3]"* %15 to [1 x %"struct.core::fmt::Argument<[]>[#3]"]*
  %115 = getelementptr inbounds %"struct.core::fmt::Argument<[]>[#3]"* %15, i32 0
  %116 = load double** %__arg034
  call void @_ZN3fmt8argument20h9873654193213671307E(%"struct.core::fmt::Argument<[]>[#3]"* noalias nocapture sret dereferenceable(16) %115, %"enum.core::result::Result<[(), core::fmt::FormatError]>[#3]" (double*, %"struct.core::fmt::Formatter<[]>[#3]"*)* @_ZN3fmt11secret_show21h17332124287520084912E, double* noalias dereferenceable(8) %116)
  %117 = getelementptr inbounds { %"struct.core::fmt::Argument<[]>[#3]"*, i64 }* %__args_vec35, i32 0, i32 0
  store %"struct.core::fmt::Argument<[]>[#3]"* %15, %"struct.core::fmt::Argument<[]>[#3]"** %117
  %118 = getelementptr inbounds { %"struct.core::fmt::Argument<[]>[#3]"*, i64 }* %__args_vec35, i32 0, i32 1
  store i64 1, i64* %118
  %119 = getelementptr inbounds { %"enum.core::fmt::rt::Piece<[]>[#3]"*, i64 }* %__adjust37, i32 0, i32 0
  store %"enum.core::fmt::rt::Piece<[]>[#3]"* getelementptr inbounds ([2 x %"enum.core::fmt::rt::Piece<[]>[#3]"]* bitcast ({ { i8, %str_slice, [48 x i8] }, { i8, { { i8, [15 x i8] }, { i32, i8, i64, { i8, [15 x i8] }, { i8, [15 x i8] } } }, [0 x i8] } }* @_ZN5HyObj13hy_obj_to_str15__STATIC_FMTSTR20h42038198f74a27d4AmaE to [2 x %"enum.core::fmt::rt::Piece<[]>[#3]"]*), i32 0, i32 0), %"enum.core::fmt::rt::Piece<[]>[#3]"** %119
  %120 = getelementptr inbounds { %"enum.core::fmt::rt::Piece<[]>[#3]"*, i64 }* %__adjust37, i32 0, i32 1
  store i64 2, i64* %120
  %121 = getelementptr inbounds { %"struct.core::fmt::Argument<[]>[#3]"*, i64 }* %__args_vec35, i32 0, i32 0
  %122 = load %"struct.core::fmt::Argument<[]>[#3]"** %121
  %123 = getelementptr inbounds { %"struct.core::fmt::Argument<[]>[#3]"*, i64 }* %__args_vec35, i32 0, i32 1
  %124 = load i64* %123
  %125 = getelementptr inbounds { %"struct.core::fmt::Argument<[]>[#3]"*, i64 }* %__adjust38, i32 0, i32 0
  store %"struct.core::fmt::Argument<[]>[#3]"* %122, %"struct.core::fmt::Argument<[]>[#3]"** %125
  %126 = getelementptr inbounds { %"struct.core::fmt::Argument<[]>[#3]"*, i64 }* %__adjust38, i32 0, i32 1
  store i64 %124, i64* %126
  call void @"_ZN3fmt22Arguments$LT$$x27a$GT$3new20h08e5545b7031607ajUaE"(%"struct.core::fmt::Arguments<[]>[#3]"* noalias nocapture sret dereferenceable(32) %__args36, { %"enum.core::fmt::rt::Piece<[]>[#3]"*, i64 }* noalias nocapture dereferenceable(16) %__adjust37, { %"struct.core::fmt::Argument<[]>[#3]"*, i64 }* noalias nocapture dereferenceable(16) %__adjust38)
  call void @_ZN3fmt6format20h05b71c90fa35a7ceeWqE(%"struct.collections::string::String<[]>[#6]"* noalias nocapture sret dereferenceable(24) %13, %"struct.core::fmt::Arguments<[]>[#3]"* noalias nocapture dereferenceable(32) %__args36)
  br label %join39

join39:                                           ; preds = %case_body32
  invoke void @_ZN5c_str13String.ToCStr8to_c_str20h54b4e5d75917422eNZaE(%"struct.rustrt::c_str::CString<[]>[#9]"* noalias nocapture sret dereferenceable(16) %12, %"struct.collections::string::String<[]>[#6]"* noalias dereferenceable(24) %13)
          to label %normal-return40 unwind label %unwind_ast_754_

normal-return40:                                  ; preds = %join39
  %127 = invoke i8* @_ZN5c_str7CString6unwrap20h438c841e01f73389b4aE(%"struct.rustrt::c_str::CString<[]>[#9]"* noalias nocapture dereferenceable(16) %12)
          to label %normal-return42 unwind label %unwind_ast_754_

unwind_ast_754_:                                  ; preds = %normal-return40, %join39
  %128 = landingpad { i8*, i32 } personality i32 (i32, i32, i64, %"struct.rustrt::libunwind::_Unwind_Exception<[]>[#9]"*, %"enum.rustrt::libunwind::_Unwind_Context<[]>[#9]"*)* @rust_eh_personality
          cleanup
  store { i8*, i32 } %128, { i8*, i32 }* %4
  br label %clean_ast_754_

clean_custom_41:                                  ; preds = %clean_ast_754_
  br label %clean_custom_

clean_ast_754_:                                   ; preds = %unwind_ast_754_
  call void @_ZN27collections..string..String14glue_drop.254617h993ff6726f821cd0E(%"struct.collections::string::String<[]>[#6]"* %13)
  br label %clean_custom_41

normal-return42:                                  ; preds = %normal-return40
  store i8* %127, i8** %sret_slot
  call void @_ZN27collections..string..String14glue_drop.254617h993ff6726f821cd0E(%"struct.collections::string::String<[]>[#6]"* %13)
  br label %join72

case_body44:                                      ; preds = %case_body6
  %129 = load %"enum.regex::re::Regex<[]>[#10]"**** %__llmatch45
  %130 = load %"enum.regex::re::Regex<[]>[#10]"*** %129
  store %"enum.regex::re::Regex<[]>[#10]"** %130, %"enum.regex::re::Regex<[]>[#10]"*** %__arg046
  %131 = bitcast %"struct.core::fmt::Argument<[]>[#3]"* %20 to [1 x %"struct.core::fmt::Argument<[]>[#3]"]*
  %132 = getelementptr inbounds %"struct.core::fmt::Argument<[]>[#3]"* %20, i32 0
  %133 = load %"enum.regex::re::Regex<[]>[#10]"*** %__arg046
  call void @_ZN3fmt8argument21h15251286205247066397E(%"struct.core::fmt::Argument<[]>[#3]"* noalias nocapture sret dereferenceable(16) %132, %"enum.core::result::Result<[(), core::fmt::FormatError]>[#3]" (%"enum.regex::re::Regex<[]>[#10]"**, %"struct.core::fmt::Formatter<[]>[#3]"*)* @_ZN3fmt11secret_show20h1263191540033821210E, %"enum.regex::re::Regex<[]>[#10]"** noalias dereferenceable(8) %133)
  %134 = getelementptr inbounds { %"struct.core::fmt::Argument<[]>[#3]"*, i64 }* %__args_vec47, i32 0, i32 0
  store %"struct.core::fmt::Argument<[]>[#3]"* %20, %"struct.core::fmt::Argument<[]>[#3]"** %134
  %135 = getelementptr inbounds { %"struct.core::fmt::Argument<[]>[#3]"*, i64 }* %__args_vec47, i32 0, i32 1
  store i64 1, i64* %135
  %136 = getelementptr inbounds { %"enum.core::fmt::rt::Piece<[]>[#3]"*, i64 }* %__adjust49, i32 0, i32 0
  store %"enum.core::fmt::rt::Piece<[]>[#3]"* getelementptr inbounds ([2 x %"enum.core::fmt::rt::Piece<[]>[#3]"]* bitcast ({ { i8, %str_slice, [48 x i8] }, { i8, { { i8, [15 x i8] }, { i32, i8, i64, { i8, [15 x i8] }, { i8, [15 x i8] } } }, [0 x i8] } }* @_ZN5HyObj13hy_obj_to_str15__STATIC_FMTSTR20h42038198f74a27d4OnaE to [2 x %"enum.core::fmt::rt::Piece<[]>[#3]"]*), i32 0, i32 0), %"enum.core::fmt::rt::Piece<[]>[#3]"** %136
  %137 = getelementptr inbounds { %"enum.core::fmt::rt::Piece<[]>[#3]"*, i64 }* %__adjust49, i32 0, i32 1
  store i64 2, i64* %137
  %138 = getelementptr inbounds { %"struct.core::fmt::Argument<[]>[#3]"*, i64 }* %__args_vec47, i32 0, i32 0
  %139 = load %"struct.core::fmt::Argument<[]>[#3]"** %138
  %140 = getelementptr inbounds { %"struct.core::fmt::Argument<[]>[#3]"*, i64 }* %__args_vec47, i32 0, i32 1
  %141 = load i64* %140
  %142 = getelementptr inbounds { %"struct.core::fmt::Argument<[]>[#3]"*, i64 }* %__adjust50, i32 0, i32 0
  store %"struct.core::fmt::Argument<[]>[#3]"* %139, %"struct.core::fmt::Argument<[]>[#3]"** %142
  %143 = getelementptr inbounds { %"struct.core::fmt::Argument<[]>[#3]"*, i64 }* %__adjust50, i32 0, i32 1
  store i64 %141, i64* %143
  call void @"_ZN3fmt22Arguments$LT$$x27a$GT$3new20h08e5545b7031607ajUaE"(%"struct.core::fmt::Arguments<[]>[#3]"* noalias nocapture sret dereferenceable(32) %__args48, { %"enum.core::fmt::rt::Piece<[]>[#3]"*, i64 }* noalias nocapture dereferenceable(16) %__adjust49, { %"struct.core::fmt::Argument<[]>[#3]"*, i64 }* noalias nocapture dereferenceable(16) %__adjust50)
  call void @_ZN3fmt6format20h05b71c90fa35a7ceeWqE(%"struct.collections::string::String<[]>[#6]"* noalias nocapture sret dereferenceable(24) %18, %"struct.core::fmt::Arguments<[]>[#3]"* noalias nocapture dereferenceable(32) %__args48)
  br label %join51

join51:                                           ; preds = %case_body44
  invoke void @_ZN5c_str13String.ToCStr8to_c_str20h54b4e5d75917422eNZaE(%"struct.rustrt::c_str::CString<[]>[#9]"* noalias nocapture sret dereferenceable(16) %17, %"struct.collections::string::String<[]>[#6]"* noalias dereferenceable(24) %18)
          to label %normal-return52 unwind label %unwind_ast_830_

normal-return52:                                  ; preds = %join51
  %144 = invoke i8* @_ZN5c_str7CString6unwrap20h438c841e01f73389b4aE(%"struct.rustrt::c_str::CString<[]>[#9]"* noalias nocapture dereferenceable(16) %17)
          to label %normal-return54 unwind label %unwind_ast_830_

unwind_ast_830_:                                  ; preds = %normal-return52, %join51
  %145 = landingpad { i8*, i32 } personality i32 (i32, i32, i64, %"struct.rustrt::libunwind::_Unwind_Exception<[]>[#9]"*, %"enum.rustrt::libunwind::_Unwind_Context<[]>[#9]"*)* @rust_eh_personality
          cleanup
  store { i8*, i32 } %145, { i8*, i32 }* %4
  br label %clean_ast_830_

clean_custom_53:                                  ; preds = %clean_ast_830_
  br label %clean_custom_

clean_ast_830_:                                   ; preds = %unwind_ast_830_
  call void @_ZN27collections..string..String14glue_drop.254617h993ff6726f821cd0E(%"struct.collections::string::String<[]>[#6]"* %18)
  br label %clean_custom_53

normal-return54:                                  ; preds = %normal-return52
  store i8* %144, i8** %sret_slot
  call void @_ZN27collections..string..String14glue_drop.254617h993ff6726f821cd0E(%"struct.collections::string::String<[]>[#6]"* %18)
  br label %join72

normal-return55:                                  ; preds = %case_body7
  %146 = invoke i8* @_ZN5c_str7CString6unwrap20h438c841e01f73389b4aE(%"struct.rustrt::c_str::CString<[]>[#9]"* noalias nocapture dereferenceable(16) %21)
          to label %normal-return57 unwind label %unwind_ast_892_

unwind_ast_892_:                                  ; preds = %normal-return55, %case_body7
  %147 = landingpad { i8*, i32 } personality i32 (i32, i32, i64, %"struct.rustrt::libunwind::_Unwind_Exception<[]>[#9]"*, %"enum.rustrt::libunwind::_Unwind_Context<[]>[#9]"*)* @rust_eh_personality
          cleanup
  store { i8*, i32 } %147, { i8*, i32 }* %4
  br label %clean_ast_892_

clean_custom_56:                                  ; preds = %clean_ast_892_
  br label %clean_custom_

clean_ast_892_:                                   ; preds = %unwind_ast_892_
  call void @_ZN27collections..string..String14glue_drop.254617h993ff6726f821cd0E(%"struct.collections::string::String<[]>[#6]"* %22)
  br label %clean_custom_56

normal-return57:                                  ; preds = %normal-return55
  store i8* %146, i8** %sret_slot
  call void @_ZN27collections..string..String14glue_drop.254617h993ff6726f821cd0E(%"struct.collections::string::String<[]>[#6]"* %22)
  br label %join72

normal-return58:                                  ; preds = %case_body8
  %148 = invoke i8* @_ZN5c_str7CString6unwrap20h438c841e01f73389b4aE(%"struct.rustrt::c_str::CString<[]>[#9]"* noalias nocapture dereferenceable(16) %24)
          to label %normal-return60 unwind label %unwind_ast_902_

unwind_ast_902_:                                  ; preds = %normal-return58, %case_body8
  %149 = landingpad { i8*, i32 } personality i32 (i32, i32, i64, %"struct.rustrt::libunwind::_Unwind_Exception<[]>[#9]"*, %"enum.rustrt::libunwind::_Unwind_Context<[]>[#9]"*)* @rust_eh_personality
          cleanup
  store { i8*, i32 } %149, { i8*, i32 }* %4
  br label %clean_ast_902_

clean_custom_59:                                  ; preds = %clean_ast_902_
  br label %clean_custom_

clean_ast_902_:                                   ; preds = %unwind_ast_902_
  call void @_ZN27collections..string..String14glue_drop.254617h993ff6726f821cd0E(%"struct.collections::string::String<[]>[#6]"* %25)
  br label %clean_custom_59

normal-return60:                                  ; preds = %normal-return58
  store i8* %148, i8** %sret_slot
  call void @_ZN27collections..string..String14glue_drop.254617h993ff6726f821cd0E(%"struct.collections::string::String<[]>[#6]"* %25)
  br label %join72

normal-return61:                                  ; preds = %case_body10
  %150 = invoke i8* @_ZN5c_str7CString6unwrap20h438c841e01f73389b4aE(%"struct.rustrt::c_str::CString<[]>[#9]"* noalias nocapture dereferenceable(16) %27)
          to label %normal-return63 unwind label %unwind_ast_912_

unwind_ast_912_:                                  ; preds = %normal-return61, %case_body10
  %151 = landingpad { i8*, i32 } personality i32 (i32, i32, i64, %"struct.rustrt::libunwind::_Unwind_Exception<[]>[#9]"*, %"enum.rustrt::libunwind::_Unwind_Context<[]>[#9]"*)* @rust_eh_personality
          cleanup
  store { i8*, i32 } %151, { i8*, i32 }* %4
  br label %clean_ast_912_

clean_custom_62:                                  ; preds = %clean_ast_912_
  br label %clean_custom_

clean_ast_912_:                                   ; preds = %unwind_ast_912_
  call void @_ZN27collections..string..String14glue_drop.254617h993ff6726f821cd0E(%"struct.collections::string::String<[]>[#6]"* %28)
  br label %clean_custom_62

normal-return63:                                  ; preds = %normal-return61
  store i8* %150, i8** %sret_slot
  call void @_ZN27collections..string..String14glue_drop.254617h993ff6726f821cd0E(%"struct.collections::string::String<[]>[#6]"* %28)
  br label %join72

then-block-927-:                                  ; preds = %case_body11
  %152 = getelementptr inbounds %str_slice* %32, i32 0, i32 0
  store i8* getelementptr inbounds ([11 x i8]* @str2575, i32 0, i32 0), i8** %152
  %153 = getelementptr inbounds %str_slice* %32, i32 0, i32 1
  store i64 11, i64* %153
  call void @_ZN9to_string10T.ToString9to_string21h17534012255684857973E(%"struct.collections::string::String<[]>[#6]"* noalias nocapture sret dereferenceable(24) %31, %str_slice* noalias dereferenceable(16) %32)
  invoke void @_ZN5c_str13String.ToCStr8to_c_str20h54b4e5d75917422eNZaE(%"struct.rustrt::c_str::CString<[]>[#9]"* noalias nocapture sret dereferenceable(16) %30, %"struct.collections::string::String<[]>[#6]"* noalias dereferenceable(24) %31)
          to label %normal-return64 unwind label %unwind_ast_927_

normal-return64:                                  ; preds = %then-block-927-
  %154 = invoke i8* @_ZN5c_str7CString6unwrap20h438c841e01f73389b4aE(%"struct.rustrt::c_str::CString<[]>[#9]"* noalias nocapture dereferenceable(16) %30)
          to label %normal-return66 unwind label %unwind_ast_927_

unwind_ast_927_:                                  ; preds = %normal-return64, %then-block-927-
  %155 = landingpad { i8*, i32 } personality i32 (i32, i32, i64, %"struct.rustrt::libunwind::_Unwind_Exception<[]>[#9]"*, %"enum.rustrt::libunwind::_Unwind_Context<[]>[#9]"*)* @rust_eh_personality
          cleanup
  store { i8*, i32 } %155, { i8*, i32 }* %4
  br label %clean_ast_927_

clean_custom_65:                                  ; preds = %clean_ast_934_, %clean_ast_927_
  br label %clean_custom_

clean_ast_927_:                                   ; preds = %unwind_ast_927_
  call void @_ZN27collections..string..String14glue_drop.254617h993ff6726f821cd0E(%"struct.collections::string::String<[]>[#6]"* %31)
  br label %clean_custom_65

normal-return66:                                  ; preds = %normal-return64
  store i8* %154, i8** %sret_slot
  call void @_ZN27collections..string..String14glue_drop.254617h993ff6726f821cd0E(%"struct.collections::string::String<[]>[#6]"* %31)
  br label %join69

else-block:                                       ; preds = %case_body11
  %156 = getelementptr inbounds %str_slice* %35, i32 0, i32 0
  store i8* getelementptr inbounds ([12 x i8]* @str2576, i32 0, i32 0), i8** %156
  %157 = getelementptr inbounds %str_slice* %35, i32 0, i32 1
  store i64 12, i64* %157
  call void @_ZN9to_string10T.ToString9to_string21h17534012255684857973E(%"struct.collections::string::String<[]>[#6]"* noalias nocapture sret dereferenceable(24) %34, %str_slice* noalias dereferenceable(16) %35)
  invoke void @_ZN5c_str13String.ToCStr8to_c_str20h54b4e5d75917422eNZaE(%"struct.rustrt::c_str::CString<[]>[#9]"* noalias nocapture sret dereferenceable(16) %33, %"struct.collections::string::String<[]>[#6]"* noalias dereferenceable(24) %34)
          to label %normal-return67 unwind label %unwind_ast_934_

normal-return67:                                  ; preds = %else-block
  %158 = invoke i8* @_ZN5c_str7CString6unwrap20h438c841e01f73389b4aE(%"struct.rustrt::c_str::CString<[]>[#9]"* noalias nocapture dereferenceable(16) %33)
          to label %normal-return68 unwind label %unwind_ast_934_

unwind_ast_934_:                                  ; preds = %normal-return67, %else-block
  %159 = landingpad { i8*, i32 } personality i32 (i32, i32, i64, %"struct.rustrt::libunwind::_Unwind_Exception<[]>[#9]"*, %"enum.rustrt::libunwind::_Unwind_Context<[]>[#9]"*)* @rust_eh_personality
          cleanup
  store { i8*, i32 } %159, { i8*, i32 }* %4
  br label %clean_ast_934_

clean_ast_934_:                                   ; preds = %unwind_ast_934_
  call void @_ZN27collections..string..String14glue_drop.254617h993ff6726f821cd0E(%"struct.collections::string::String<[]>[#6]"* %34)
  br label %clean_custom_65

normal-return68:                                  ; preds = %normal-return67
  store i8* %158, i8** %sret_slot
  call void @_ZN27collections..string..String14glue_drop.254617h993ff6726f821cd0E(%"struct.collections::string::String<[]>[#6]"* %34)
  br label %join69

join69:                                           ; preds = %normal-return68, %normal-return66
  br label %join72

normal-return70:                                  ; preds = %case_body12
  %160 = invoke i8* @_ZN5c_str7CString6unwrap20h438c841e01f73389b4aE(%"struct.rustrt::c_str::CString<[]>[#9]"* noalias nocapture dereferenceable(16) %36)
          to label %normal-return71 unwind label %unwind_ast_943_

unwind_ast_943_:                                  ; preds = %normal-return70, %case_body12
  %161 = landingpad { i8*, i32 } personality i32 (i32, i32, i64, %"struct.rustrt::libunwind::_Unwind_Exception<[]>[#9]"*, %"enum.rustrt::libunwind::_Unwind_Context<[]>[#9]"*)* @rust_eh_personality
          cleanup
  store { i8*, i32 } %161, { i8*, i32 }* %4
  br label %clean_ast_943_

clean_ast_943_:                                   ; preds = %unwind_ast_943_
  call void @_ZN27collections..string..String14glue_drop.254617h993ff6726f821cd0E(%"struct.collections::string::String<[]>[#6]"* %37)
  br label %clean_custom_

normal-return71:                                  ; preds = %normal-return70
  store i8* %160, i8** %sret_slot
  call void @_ZN27collections..string..String14glue_drop.254617h993ff6726f821cd0E(%"struct.collections::string::String<[]>[#6]"* %37)
  br label %join72

join72:                                           ; preds = %normal-return71, %join69, %normal-return63, %normal-return60, %normal-return57, %normal-return54, %case_body5, %normal-return42, %normal-return30, %normal-return24, %normal-return22
  %162 = load i8** %sret_slot
  ret i8* %162
}

declare i8* @_ZN5c_str7CString6unwrap20h438c841e01f73389b4aE(%"struct.rustrt::c_str::CString<[]>[#9]"* noalias nocapture dereferenceable(16)) unnamed_addr #2

; Function Attrs: inlinehint uwtable
define internal void @_ZN5c_str13String.ToCStr8to_c_str20h54b4e5d75917422eNZaE(%"struct.rustrt::c_str::CString<[]>[#9]"* noalias nocapture sret dereferenceable(16), %"struct.collections::string::String<[]>[#6]"* noalias nocapture dereferenceable(24)) unnamed_addr #1 {
entry-block:
  %self = alloca %"struct.collections::string::String<[]>[#6]"*
  %2 = alloca { i8*, i64 }
  store %"struct.collections::string::String<[]>[#6]"* %1, %"struct.collections::string::String<[]>[#6]"** %self
  %3 = load %"struct.collections::string::String<[]>[#6]"** %self
  call void @_ZN6string6String8as_bytes20h315039ac766f13c9YZaE({ i8*, i64 }* noalias nocapture sret dereferenceable(16) %2, %"struct.collections::string::String<[]>[#6]"* noalias dereferenceable(24) %3)
  call void @"_ZN5c_str31_$BP$$x27a$x20$x5bu8$x5d.ToCStr8to_c_str20hbabd71a2b0452c14q9aE"(%"struct.rustrt::c_str::CString<[]>[#9]"* noalias nocapture sret dereferenceable(16) %0, { i8*, i64 }* noalias dereferenceable(16) %2)
  ret void
}

declare void @"_ZN5c_str31_$BP$$x27a$x20$x5bu8$x5d.ToCStr8to_c_str20hbabd71a2b0452c14q9aE"(%"struct.rustrt::c_str::CString<[]>[#9]"* noalias nocapture sret dereferenceable(16), { i8*, i64 }* noalias nocapture dereferenceable(16)) unnamed_addr #2

; Function Attrs: inlinehint uwtable
define internal void @_ZN6string6String8as_bytes20h315039ac766f13c9YZaE({ i8*, i64 }* noalias nocapture sret dereferenceable(16), %"struct.collections::string::String<[]>[#6]"* noalias dereferenceable(24)) unnamed_addr #1 {
entry-block:
  %self = alloca %"struct.collections::string::String<[]>[#6]"*
  store %"struct.collections::string::String<[]>[#6]"* %1, %"struct.collections::string::String<[]>[#6]"** %self
  %2 = load %"struct.collections::string::String<[]>[#6]"** %self
  %3 = getelementptr inbounds %"struct.collections::string::String<[]>[#6]"* %2, i32 0, i32 0
  call void @"_ZN3vec28Vec$LT$T$GT$.Vector$LT$T$GT$8as_slice20h1713832396890008114E"({ i8*, i64 }* noalias nocapture sret dereferenceable(16) %0, %"struct.collections::vec::Vec<[u8]>[#6]"* noalias dereferenceable(24) %3)
  ret void
}

; Function Attrs: inlinehint uwtable
define internal void @"_ZN3vec28Vec$LT$T$GT$.Vector$LT$T$GT$8as_slice20h1713832396890008114E"({ i8*, i64 }* noalias nocapture sret dereferenceable(16), %"struct.collections::vec::Vec<[u8]>[#6]"* noalias dereferenceable(24)) unnamed_addr #1 {
entry-block:
  %self = alloca %"struct.collections::vec::Vec<[u8]>[#6]"*
  store %"struct.collections::vec::Vec<[u8]>[#6]"* %1, %"struct.collections::vec::Vec<[u8]>[#6]"** %self
  %2 = bitcast { i8*, i64 }* %0 to %"struct.core::raw::Slice<[u8]>[#3]"*
  %3 = getelementptr inbounds %"struct.core::raw::Slice<[u8]>[#3]"* %2, i32 0, i32 0
  %4 = load %"struct.collections::vec::Vec<[u8]>[#6]"** %self
  %5 = call i8* @"_ZN3vec12Vec$LT$T$GT$6as_ptr20h7830425201929597804E"(%"struct.collections::vec::Vec<[u8]>[#6]"* noalias dereferenceable(24) %4)
  store i8* %5, i8** %3
  %6 = getelementptr inbounds %"struct.core::raw::Slice<[u8]>[#3]"* %2, i32 0, i32 1
  %7 = load %"struct.collections::vec::Vec<[u8]>[#6]"** %self
  %8 = getelementptr inbounds %"struct.collections::vec::Vec<[u8]>[#6]"* %7, i32 0, i32 0
  %9 = load i64* %8
  store i64 %9, i64* %6
  ret void
}

; Function Attrs: inlinehint uwtable
define internal i8* @"_ZN3vec12Vec$LT$T$GT$6as_ptr20h7830425201929597804E"(%"struct.collections::vec::Vec<[u8]>[#6]"* noalias nocapture dereferenceable(24)) unnamed_addr #1 {
entry-block:
  %self = alloca %"struct.collections::vec::Vec<[u8]>[#6]"*
  store %"struct.collections::vec::Vec<[u8]>[#6]"* %0, %"struct.collections::vec::Vec<[u8]>[#6]"** %self
  %1 = load %"struct.collections::vec::Vec<[u8]>[#6]"** %self
  %2 = getelementptr inbounds %"struct.collections::vec::Vec<[u8]>[#6]"* %1, i32 0, i32 2
  %3 = load i8** %2
  ret i8* %3
}

; Function Attrs: uwtable
define internal void @_ZN9to_string10T.ToString9to_string21h17534012255684857973E(%"struct.collections::string::String<[]>[#6]"* noalias nocapture sret dereferenceable(24), %str_slice* noalias nocapture dereferenceable(16)) unnamed_addr #0 {
entry-block:
  %self = alloca %str_slice*
  %2 = alloca { %str_slice* }
  %match = alloca { %str_slice* }
  %__llmatch = alloca %str_slice**
  %__arg0 = alloca %str_slice*
  %__args_vec = alloca { %"struct.core::fmt::Argument<[]>[#3]"*, i64 }
  %3 = alloca %"struct.core::fmt::Argument<[]>[#3]"
  %__args = alloca %"struct.core::fmt::Arguments<[]>[#3]"
  %__adjust = alloca { %"enum.core::fmt::rt::Piece<[]>[#3]"*, i64 }
  %__adjust1 = alloca { %"struct.core::fmt::Argument<[]>[#3]"*, i64 }
  store %str_slice* %1, %str_slice** %self
  %4 = getelementptr inbounds { %str_slice* }* %2, i32 0, i32 0
  %5 = load %str_slice** %self
  store %str_slice* %5, %str_slice** %4
  %6 = load { %str_slice* }* %2
  store { %str_slice* } %6, { %str_slice* }* %match
  %7 = getelementptr inbounds { %str_slice* }* %match, i32 0, i32 0
  store %str_slice** %7, %str_slice*** %__llmatch
  br label %case_body

case_body:                                        ; preds = %entry-block
  %8 = load %str_slice*** %__llmatch
  %9 = load %str_slice** %8
  store %str_slice* %9, %str_slice** %__arg0
  %10 = bitcast %"struct.core::fmt::Argument<[]>[#3]"* %3 to [1 x %"struct.core::fmt::Argument<[]>[#3]"]*
  %11 = getelementptr inbounds %"struct.core::fmt::Argument<[]>[#3]"* %3, i32 0
  %12 = load %str_slice** %__arg0
  call void @_ZN3fmt8argument21h12951519187437715559E(%"struct.core::fmt::Argument<[]>[#3]"* noalias nocapture sret dereferenceable(16) %11, %"enum.core::result::Result<[(), core::fmt::FormatError]>[#3]" (%str_slice*, %"struct.core::fmt::Formatter<[]>[#3]"*)* @_ZN3fmt11secret_show21h13495507410434688215E, %str_slice* noalias dereferenceable(16) %12)
  %13 = getelementptr inbounds { %"struct.core::fmt::Argument<[]>[#3]"*, i64 }* %__args_vec, i32 0, i32 0
  store %"struct.core::fmt::Argument<[]>[#3]"* %3, %"struct.core::fmt::Argument<[]>[#3]"** %13
  %14 = getelementptr inbounds { %"struct.core::fmt::Argument<[]>[#3]"*, i64 }* %__args_vec, i32 0, i32 1
  store i64 1, i64* %14
  %15 = getelementptr inbounds { %"enum.core::fmt::rt::Piece<[]>[#3]"*, i64 }* %__adjust, i32 0, i32 0
  store %"enum.core::fmt::rt::Piece<[]>[#3]"* getelementptr inbounds ([1 x %"enum.core::fmt::rt::Piece<[]>[#3]"]* bitcast ({ { i8, { { i8, [15 x i8] }, { i32, i8, i64, { i8, [15 x i8] }, { i8, [15 x i8] } } }, [0 x i8] } }* @_ZN9to_string10T.ToString9to_string15__STATIC_FMTSTR20h8b23f08f60bcdf37dfeE to [1 x %"enum.core::fmt::rt::Piece<[]>[#3]"]*), i32 0, i32 0), %"enum.core::fmt::rt::Piece<[]>[#3]"** %15
  %16 = getelementptr inbounds { %"enum.core::fmt::rt::Piece<[]>[#3]"*, i64 }* %__adjust, i32 0, i32 1
  store i64 1, i64* %16
  %17 = getelementptr inbounds { %"struct.core::fmt::Argument<[]>[#3]"*, i64 }* %__args_vec, i32 0, i32 0
  %18 = load %"struct.core::fmt::Argument<[]>[#3]"** %17
  %19 = getelementptr inbounds { %"struct.core::fmt::Argument<[]>[#3]"*, i64 }* %__args_vec, i32 0, i32 1
  %20 = load i64* %19
  %21 = getelementptr inbounds { %"struct.core::fmt::Argument<[]>[#3]"*, i64 }* %__adjust1, i32 0, i32 0
  store %"struct.core::fmt::Argument<[]>[#3]"* %18, %"struct.core::fmt::Argument<[]>[#3]"** %21
  %22 = getelementptr inbounds { %"struct.core::fmt::Argument<[]>[#3]"*, i64 }* %__adjust1, i32 0, i32 1
  store i64 %20, i64* %22
  call void @"_ZN3fmt22Arguments$LT$$x27a$GT$3new20h08e5545b7031607ajUaE"(%"struct.core::fmt::Arguments<[]>[#3]"* noalias nocapture sret dereferenceable(32) %__args, { %"enum.core::fmt::rt::Piece<[]>[#3]"*, i64 }* noalias nocapture dereferenceable(16) %__adjust, { %"struct.core::fmt::Argument<[]>[#3]"*, i64 }* noalias nocapture dereferenceable(16) %__adjust1)
  call void @_ZN3fmt6format20h05b71c90fa35a7ceeWqE(%"struct.collections::string::String<[]>[#6]"* noalias nocapture sret dereferenceable(24) %0, %"struct.core::fmt::Arguments<[]>[#3]"* noalias nocapture dereferenceable(32) %__args)
  br label %join

join:                                             ; preds = %case_body
  ret void
}

; Function Attrs: inlinehint uwtable
define internal void @_ZN3fmt8argument21h12951519187437715559E(%"struct.core::fmt::Argument<[]>[#3]"* noalias nocapture sret dereferenceable(16), %"enum.core::result::Result<[(), core::fmt::FormatError]>[#3]" (%str_slice*, %"struct.core::fmt::Formatter<[]>[#3]"*)*, %str_slice* noalias dereferenceable(16)) unnamed_addr #1 {
entry-block:
  %f = alloca %"enum.core::result::Result<[(), core::fmt::FormatError]>[#3]" (%str_slice*, %"struct.core::fmt::Formatter<[]>[#3]"*)*
  %t = alloca %str_slice*
  store %"enum.core::result::Result<[(), core::fmt::FormatError]>[#3]" (%str_slice*, %"struct.core::fmt::Formatter<[]>[#3]"*)* %1, %"enum.core::result::Result<[(), core::fmt::FormatError]>[#3]" (%str_slice*, %"struct.core::fmt::Formatter<[]>[#3]"*)** %f
  store %str_slice* %2, %str_slice** %t
  %3 = getelementptr inbounds %"struct.core::fmt::Argument<[]>[#3]"* %0, i32 0, i32 0
  %4 = bitcast %"enum.core::result::Result<[(), core::fmt::FormatError]>[#3]" (%"enum.core::fmt::Void<[]>[#3]"*, %"struct.core::fmt::Formatter<[]>[#3]"*)** %3 to %"enum.core::result::Result<[(), core::fmt::FormatError]>[#3]" (%str_slice*, %"struct.core::fmt::Formatter<[]>[#3]"*)**
  %5 = load %"enum.core::result::Result<[(), core::fmt::FormatError]>[#3]" (%str_slice*, %"struct.core::fmt::Formatter<[]>[#3]"*)** %f
  store %"enum.core::result::Result<[(), core::fmt::FormatError]>[#3]" (%str_slice*, %"struct.core::fmt::Formatter<[]>[#3]"*)* %5, %"enum.core::result::Result<[(), core::fmt::FormatError]>[#3]" (%str_slice*, %"struct.core::fmt::Formatter<[]>[#3]"*)** %4
  %6 = getelementptr inbounds %"struct.core::fmt::Argument<[]>[#3]"* %0, i32 0, i32 1
  %7 = bitcast %"enum.core::fmt::Void<[]>[#3]"** %6 to %str_slice**
  %8 = load %str_slice** %t
  store %str_slice* %8, %str_slice** %7
  ret void
}

; Function Attrs: uwtable
define internal %"enum.core::result::Result<[(), core::fmt::FormatError]>[#3]" @_ZN3fmt11secret_show21h13495507410434688215E(%str_slice* noalias nocapture dereferenceable(16), %"struct.core::fmt::Formatter<[]>[#3]"* noalias nocapture dereferenceable(96)) unnamed_addr #0 {
entry-block:
  %x = alloca %str_slice*
  %fmt = alloca %"struct.core::fmt::Formatter<[]>[#3]"*
  store %str_slice* %0, %str_slice** %x
  store %"struct.core::fmt::Formatter<[]>[#3]"* %1, %"struct.core::fmt::Formatter<[]>[#3]"** %fmt
  %2 = load %str_slice** %x
  %3 = load %"struct.core::fmt::Formatter<[]>[#3]"** %fmt
  %4 = call %"enum.core::result::Result<[(), core::fmt::FormatError]>[#3]" @"_ZN3fmt22_$BP$$x27a$x20str.Show3fmt20hf827b502a0b3b7489VyE"(%str_slice* noalias dereferenceable(16) %2, %"struct.core::fmt::Formatter<[]>[#3]"* noalias dereferenceable(96) %3)
  ret %"enum.core::result::Result<[(), core::fmt::FormatError]>[#3]" %4
}

declare %"enum.core::result::Result<[(), core::fmt::FormatError]>[#3]" @"_ZN3fmt22_$BP$$x27a$x20str.Show3fmt20hf827b502a0b3b7489VyE"(%str_slice* noalias nocapture dereferenceable(16), %"struct.core::fmt::Formatter<[]>[#3]"* noalias nocapture dereferenceable(96)) unnamed_addr #2

declare void @_ZN3fmt6format20h05b71c90fa35a7ceeWqE(%"struct.collections::string::String<[]>[#6]"* noalias nocapture sret dereferenceable(24), %"struct.core::fmt::Arguments<[]>[#3]"* noalias nocapture dereferenceable(32)) unnamed_addr #2

declare i32 @rust_eh_personality(i32, i32, i64, %"struct.rustrt::libunwind::_Unwind_Exception<[]>[#9]"*, %"enum.rustrt::libunwind::_Unwind_Context<[]>[#9]"*) unnamed_addr #2

define internal void @_ZN27collections..string..String14glue_drop.254617h993ff6726f821cd0E(%"struct.collections::string::String<[]>[#6]"*) unnamed_addr #2 {
entry-block:
  %1 = getelementptr inbounds %"struct.collections::string::String<[]>[#6]"* %0, i32 0, i32 0
  call void @"_ZN31collections..vec..Vec$LT$u8$GT$14glue_drop.254917h7cc7b89f5b731560E"(%"struct.collections::vec::Vec<[u8]>[#6]"* %1)
  ret void
}

define internal void @"_ZN31collections..vec..Vec$LT$u8$GT$14glue_drop.254917h7cc7b89f5b731560E"(%"struct.collections::vec::Vec<[u8]>[#6]"*) unnamed_addr #2 {
entry-block:
  %1 = getelementptr inbounds %"struct.collections::vec::Vec<[u8]>[#6]"* %0, i32 0, i32 0
  %2 = getelementptr inbounds %"struct.collections::vec::Vec<[u8]>[#6]"* %0, i32 0, i32 1
  %3 = getelementptr inbounds %"struct.collections::vec::Vec<[u8]>[#6]"* %0, i32 0, i32 2
  call void @"_ZN3vec17Vec$LT$T$GT$.Drop4drop21h16634449376178541087E"(%"struct.collections::vec::Vec<[u8]>[#6]"* noalias nocapture dereferenceable(24) %0)
  ret void
}

; Function Attrs: uwtable
define internal void @"_ZN3vec17Vec$LT$T$GT$.Drop4drop21h16634449376178541087E"(%"struct.collections::vec::Vec<[u8]>[#6]"* noalias nocapture dereferenceable(24)) unnamed_addr #0 {
entry-block:
  %src.i = alloca i8*
  %tmp.i = alloca i8
  %self = alloca %"struct.collections::vec::Vec<[u8]>[#6]"*
  %1 = alloca %"struct.core::slice::Items<[u8]>[#3]"
  %2 = alloca { i8*, i64 }
  %__adjust = alloca { i8*, i64 }
  %for_head = alloca %"struct.core::slice::Items<[u8]>[#3]"*
  %loop_option = alloca i8*
  store %"struct.collections::vec::Vec<[u8]>[#6]"* %0, %"struct.collections::vec::Vec<[u8]>[#6]"** %self
  %3 = load %"struct.collections::vec::Vec<[u8]>[#6]"** %self
  %4 = getelementptr inbounds %"struct.collections::vec::Vec<[u8]>[#6]"* %3, i32 0, i32 1
  %5 = load i64* %4
  %6 = icmp ne i64 %5, 0
  br i1 %6, label %then-block-3374-, label %next-block

then-block-3374-:                                 ; preds = %entry-block
  %7 = load %"struct.collections::vec::Vec<[u8]>[#6]"** %self
  call void @"_ZN3vec12Vec$LT$T$GT$12as_mut_slice20h9731355162818105609E"({ i8*, i64 }* noalias nocapture sret dereferenceable(16) %2, %"struct.collections::vec::Vec<[u8]>[#6]"* noalias dereferenceable(24) %7)
  %8 = getelementptr inbounds { i8*, i64 }* %2, i32 0, i32 0
  %9 = load i8** %8
  %10 = getelementptr inbounds { i8*, i64 }* %2, i32 0, i32 1
  %11 = load i64* %10
  %12 = getelementptr inbounds { i8*, i64 }* %__adjust, i32 0, i32 0
  store i8* %9, i8** %12
  %13 = getelementptr inbounds { i8*, i64 }* %__adjust, i32 0, i32 1
  store i64 %11, i64* %13
  call void @"_ZN5slice60_$BP$$x27a$x20$x5bT$x5d.ImmutableVector$LT$$x27a$C$$x20T$GT$4iter20h5988657575564463183E"(%"struct.core::slice::Items<[u8]>[#3]"* noalias nocapture sret dereferenceable(16) %1, { i8*, i64 }* noalias nocapture dereferenceable(16) %__adjust)
  store %"struct.core::slice::Items<[u8]>[#3]"* %1, %"struct.core::slice::Items<[u8]>[#3]"** %for_head
  %14 = load %"struct.core::slice::Items<[u8]>[#3]"** %for_head
  br label %for_loopback

for_exit:                                         ; preds = %for_loopback
  %15 = load %"struct.collections::vec::Vec<[u8]>[#6]"** %self
  %16 = getelementptr inbounds %"struct.collections::vec::Vec<[u8]>[#6]"* %15, i32 0, i32 2
  %17 = load i8** %16
  %18 = load %"struct.collections::vec::Vec<[u8]>[#6]"** %self
  %19 = getelementptr inbounds %"struct.collections::vec::Vec<[u8]>[#6]"* %18, i32 0, i32 1
  %20 = load i64* %19
  call void @_ZN3vec7dealloc21h15973657247948967830E(i8* %17, i64 %20)
  br label %next-block

for_loopback:                                     ; preds = %for_body, %then-block-3374-
  %21 = call i8* @"_ZN5slice57Items$LT$$x27a$C$$x20T$GT$.Iterator$LT$$BP$$x27a$x20T$GT$4next21h11158999227114724758E"(%"struct.core::slice::Items<[u8]>[#3]"* noalias dereferenceable(16) %14)
  store i8* %21, i8** %loop_option
  %22 = load i8** %loop_option
  %23 = icmp ne i8* %22, null
  %24 = zext i1 %23 to i8
  %25 = icmp ne i8 %24, 0
  br i1 %25, label %for_body, label %for_exit

for_body:                                         ; preds = %for_loopback
  %26 = load i8** %loop_option
  store i8* %26, i8** %src.i
  %27 = call i8 @_ZN3mem13uninitialized20h9522951720622532277E()
  store i8 %27, i8* %tmp.i
  %28 = load i8** %src.i
  call void @llvm.memcpy.p0i8.p0i8.i64(i8* %tmp.i, i8* %28, i64 1, i32 1, i1 false)
  %29 = load i8* %tmp.i
  br label %for_loopback

next-block:                                       ; preds = %entry-block, %for_exit
  ret void
}

; Function Attrs: inlinehint uwtable
define internal void @"_ZN5slice60_$BP$$x27a$x20$x5bT$x5d.ImmutableVector$LT$$x27a$C$$x20T$GT$4iter20h5988657575564463183E"(%"struct.core::slice::Items<[u8]>[#3]"* noalias nocapture sret dereferenceable(16), { i8*, i64 }* noalias nocapture dereferenceable(16)) unnamed_addr #1 {
entry-block:
  %p = alloca i8*
  %2 = alloca i64
  %3 = alloca i64
  %4 = alloca i64
  %5 = call i8* @"_ZN5slice60_$BP$$x27a$x20$x5bT$x5d.ImmutableVector$LT$$x27a$C$$x20T$GT$6as_ptr18h11203397245632134E"({ i8*, i64 }* noalias dereferenceable(16) %1)
  store i8* %5, i8** %p
  %6 = call i64 @_ZN3mem7size_of20h8801843898092001589E()
  store i64 %6, i64* %2
  %7 = load i64* %2
  %8 = icmp eq i64 %7, 0
  br i1 %8, label %then-block-2930-, label %else-block

then-block-2930-:                                 ; preds = %entry-block
  %9 = getelementptr inbounds %"struct.core::slice::Items<[u8]>[#3]"* %0, i32 0, i32 0
  %10 = load i8** %p
  store i8* %10, i8** %9
  %11 = getelementptr inbounds %"struct.core::slice::Items<[u8]>[#3]"* %0, i32 0, i32 1
  %12 = load i8** %p
  %13 = ptrtoint i8* %12 to i64
  %14 = call i64 @"_ZN5slice34_$BP$$x27a$x20$x5bT$x5d.Collection3len20h3475456214221098877E"({ i8*, i64 }* noalias dereferenceable(16) %1)
  store i64 %14, i64* %3
  %15 = load i64* %3
  %16 = add i64 %13, %15
  %17 = inttoptr i64 %16 to i8*
  store i8* %17, i8** %11
  %18 = getelementptr inbounds %"struct.core::slice::Items<[u8]>[#3]"* %0, i32 0, i32 2
  br label %join

else-block:                                       ; preds = %entry-block
  %19 = getelementptr inbounds %"struct.core::slice::Items<[u8]>[#3]"* %0, i32 0, i32 0
  %20 = load i8** %p
  store i8* %20, i8** %19
  %21 = getelementptr inbounds %"struct.core::slice::Items<[u8]>[#3]"* %0, i32 0, i32 1
  %22 = load i8** %p
  %23 = call i64 @"_ZN5slice34_$BP$$x27a$x20$x5bT$x5d.Collection3len20h3475456214221098877E"({ i8*, i64 }* noalias dereferenceable(16) %1)
  store i64 %23, i64* %4
  %24 = load i64* %4
  %25 = call i8* @"_ZN3ptr31_$RP$const$x20T.RawPtr$LT$T$GT$6offset20h3541890102477077159E"(i8* %22, i64 %24)
  store i8* %25, i8** %21
  %26 = getelementptr inbounds %"struct.core::slice::Items<[u8]>[#3]"* %0, i32 0, i32 2
  br label %join

join:                                             ; preds = %else-block, %then-block-2930-
  ret void
}

; Function Attrs: inlinehint uwtable
define internal i8* @"_ZN5slice60_$BP$$x27a$x20$x5bT$x5d.ImmutableVector$LT$$x27a$C$$x20T$GT$6as_ptr18h11203397245632134E"({ i8*, i64 }* noalias nocapture dereferenceable(16)) unnamed_addr #1 {
entry-block:
  %self = alloca { i8*, i64 }*
  %1 = alloca %"struct.core::raw::Slice<[u8]>[#3]"
  store { i8*, i64 }* %0, { i8*, i64 }** %self
  %2 = load { i8*, i64 }** %self
  call void @_ZN3raw4Repr4repr21h12747791714424439175E(%"struct.core::raw::Slice<[u8]>[#3]"* noalias nocapture sret dereferenceable(16) %1, { i8*, i64 }* noalias dereferenceable(16) %2)
  %3 = getelementptr inbounds %"struct.core::raw::Slice<[u8]>[#3]"* %1, i32 0, i32 0
  %4 = load i8** %3
  ret i8* %4
}

; Function Attrs: inlinehint uwtable
define internal void @_ZN3raw4Repr4repr21h12747791714424439175E(%"struct.core::raw::Slice<[u8]>[#3]"* noalias nocapture sret dereferenceable(16), { i8*, i64 }* noalias nocapture dereferenceable(16)) unnamed_addr #1 {
entry-block:
  %self = alloca { i8*, i64 }*
  store { i8*, i64 }* %1, { i8*, i64 }** %self
  %2 = load { i8*, i64 }** %self
  call void @_ZN3mem14transmute_copy21h10956423274901033223E(%"struct.core::raw::Slice<[u8]>[#3]"* noalias nocapture sret dereferenceable(16) %0, { i8*, i64 }* noalias nocapture dereferenceable(16) %2)
  ret void
}

; Function Attrs: inlinehint uwtable
define internal void @_ZN3mem14transmute_copy21h10956423274901033223E(%"struct.core::raw::Slice<[u8]>[#3]"* noalias nocapture sret dereferenceable(16), { i8*, i64 }* noalias nocapture dereferenceable(16)) unnamed_addr #1 {
entry-block:
  %src.i = alloca %"struct.core::raw::Slice<[u8]>[#3]"*
  %tmp.i = alloca %"struct.core::raw::Slice<[u8]>[#3]"
  %src = alloca { i8*, i64 }*
  store { i8*, i64 }* %1, { i8*, i64 }** %src
  %2 = load { i8*, i64 }** %src
  %3 = bitcast { i8*, i64 }* %2 to %"struct.core::raw::Slice<[u8]>[#3]"*
  store %"struct.core::raw::Slice<[u8]>[#3]"* %3, %"struct.core::raw::Slice<[u8]>[#3]"** %src.i
  call void @_ZN3mem13uninitialized20h6951251881723933451E(%"struct.core::raw::Slice<[u8]>[#3]"* noalias nocapture sret dereferenceable(16) %tmp.i)
  %4 = load %"struct.core::raw::Slice<[u8]>[#3]"** %src.i
  %5 = bitcast %"struct.core::raw::Slice<[u8]>[#3]"* %tmp.i to i8*
  %6 = bitcast %"struct.core::raw::Slice<[u8]>[#3]"* %4 to i8*
  call void @llvm.memcpy.p0i8.p0i8.i64(i8* %5, i8* %6, i64 16, i32 8, i1 false)
  %7 = bitcast %"struct.core::raw::Slice<[u8]>[#3]"* %tmp.i to i8*
  %8 = bitcast %"struct.core::raw::Slice<[u8]>[#3]"* %0 to i8*
  call void @llvm.memcpy.p0i8.p0i8.i64(i8* %8, i8* %7, i64 16, i32 8, i1 false)
  ret void
}

; Function Attrs: inlinehint uwtable
define internal void @_ZN3mem13uninitialized20h6951251881723933451E(%"struct.core::raw::Slice<[u8]>[#3]"* noalias nocapture sret dereferenceable(16)) unnamed_addr #1 {
entry-block:
  ret void
}

; Function Attrs: inlinehint uwtable
define internal i64 @_ZN3mem7size_of20h8801843898092001589E() unnamed_addr #1 {
entry-block:
  ret i64 1
}

; Function Attrs: inlinehint uwtable
define internal i64 @"_ZN5slice34_$BP$$x27a$x20$x5bT$x5d.Collection3len20h3475456214221098877E"({ i8*, i64 }* noalias nocapture dereferenceable(16)) unnamed_addr #1 {
entry-block:
  %self = alloca { i8*, i64 }*
  %1 = alloca %"struct.core::raw::Slice<[u8]>[#3]"
  store { i8*, i64 }* %0, { i8*, i64 }** %self
  %2 = load { i8*, i64 }** %self
  call void @_ZN3raw4Repr4repr20h7937067501635105378E(%"struct.core::raw::Slice<[u8]>[#3]"* noalias nocapture sret dereferenceable(16) %1, { i8*, i64 }* noalias dereferenceable(16) %2)
  %3 = getelementptr inbounds %"struct.core::raw::Slice<[u8]>[#3]"* %1, i32 0, i32 1
  %4 = load i64* %3
  ret i64 %4
}

; Function Attrs: inlinehint uwtable
define internal void @_ZN3raw4Repr4repr20h7937067501635105378E(%"struct.core::raw::Slice<[u8]>[#3]"* noalias nocapture sret dereferenceable(16), { i8*, i64 }* noalias nocapture dereferenceable(16)) unnamed_addr #1 {
entry-block:
  %self = alloca { i8*, i64 }*
  store { i8*, i64 }* %1, { i8*, i64 }** %self
  %2 = load { i8*, i64 }** %self
  call void @_ZN3mem14transmute_copy21h14933909980514977732E(%"struct.core::raw::Slice<[u8]>[#3]"* noalias nocapture sret dereferenceable(16) %0, { i8*, i64 }* noalias nocapture dereferenceable(16) %2)
  ret void
}

; Function Attrs: inlinehint uwtable
define internal void @_ZN3mem14transmute_copy21h14933909980514977732E(%"struct.core::raw::Slice<[u8]>[#3]"* noalias nocapture sret dereferenceable(16), { i8*, i64 }* noalias nocapture dereferenceable(16)) unnamed_addr #1 {
entry-block:
  %src.i = alloca %"struct.core::raw::Slice<[u8]>[#3]"*
  %tmp.i = alloca %"struct.core::raw::Slice<[u8]>[#3]"
  %src = alloca { i8*, i64 }*
  store { i8*, i64 }* %1, { i8*, i64 }** %src
  %2 = load { i8*, i64 }** %src
  %3 = bitcast { i8*, i64 }* %2 to %"struct.core::raw::Slice<[u8]>[#3]"*
  store %"struct.core::raw::Slice<[u8]>[#3]"* %3, %"struct.core::raw::Slice<[u8]>[#3]"** %src.i
  call void @_ZN3mem13uninitialized20h6951251881723933451E(%"struct.core::raw::Slice<[u8]>[#3]"* noalias nocapture sret dereferenceable(16) %tmp.i)
  %4 = load %"struct.core::raw::Slice<[u8]>[#3]"** %src.i
  %5 = bitcast %"struct.core::raw::Slice<[u8]>[#3]"* %tmp.i to i8*
  %6 = bitcast %"struct.core::raw::Slice<[u8]>[#3]"* %4 to i8*
  call void @llvm.memcpy.p0i8.p0i8.i64(i8* %5, i8* %6, i64 16, i32 8, i1 false)
  %7 = bitcast %"struct.core::raw::Slice<[u8]>[#3]"* %tmp.i to i8*
  %8 = bitcast %"struct.core::raw::Slice<[u8]>[#3]"* %0 to i8*
  call void @llvm.memcpy.p0i8.p0i8.i64(i8* %8, i8* %7, i64 16, i32 8, i1 false)
  ret void
}

; Function Attrs: inlinehint uwtable
define internal i8* @"_ZN3ptr31_$RP$const$x20T.RawPtr$LT$T$GT$6offset20h3541890102477077159E"(i8*, i64) unnamed_addr #1 {
entry-block:
  %self = alloca i8*
  %count = alloca i64
  store i8* %0, i8** %self
  store i64 %1, i64* %count
  %2 = load i8** %self
  %3 = load i64* %count
  %4 = getelementptr inbounds i8* %2, i64 %3
  ret i8* %4
}

; Function Attrs: inlinehint uwtable
define internal void @"_ZN3vec12Vec$LT$T$GT$12as_mut_slice20h9731355162818105609E"({ i8*, i64 }* noalias nocapture sret dereferenceable(16), %"struct.collections::vec::Vec<[u8]>[#6]"* noalias dereferenceable(24)) unnamed_addr #1 {
entry-block:
  %self = alloca %"struct.collections::vec::Vec<[u8]>[#6]"*
  %2 = alloca i8*
  store %"struct.collections::vec::Vec<[u8]>[#6]"* %1, %"struct.collections::vec::Vec<[u8]>[#6]"** %self
  %3 = bitcast { i8*, i64 }* %0 to %"struct.core::raw::Slice<[u8]>[#3]"*
  %4 = getelementptr inbounds %"struct.core::raw::Slice<[u8]>[#3]"* %3, i32 0, i32 0
  %5 = load %"struct.collections::vec::Vec<[u8]>[#6]"** %self
  %6 = call i8* @"_ZN3vec12Vec$LT$T$GT$10as_mut_ptr21h18096979113371527065E"(%"struct.collections::vec::Vec<[u8]>[#6]"* noalias dereferenceable(24) %5)
  store i8* %6, i8** %2
  %7 = load i8** %2
  store i8* %7, i8** %4
  %8 = getelementptr inbounds %"struct.core::raw::Slice<[u8]>[#3]"* %3, i32 0, i32 1
  %9 = load %"struct.collections::vec::Vec<[u8]>[#6]"** %self
  %10 = getelementptr inbounds %"struct.collections::vec::Vec<[u8]>[#6]"* %9, i32 0, i32 0
  %11 = load i64* %10
  store i64 %11, i64* %8
  ret void
}

; Function Attrs: inlinehint uwtable
define internal i8* @"_ZN3vec12Vec$LT$T$GT$10as_mut_ptr21h18096979113371527065E"(%"struct.collections::vec::Vec<[u8]>[#6]"* noalias nocapture dereferenceable(24)) unnamed_addr #1 {
entry-block:
  %self = alloca %"struct.collections::vec::Vec<[u8]>[#6]"*
  store %"struct.collections::vec::Vec<[u8]>[#6]"* %0, %"struct.collections::vec::Vec<[u8]>[#6]"** %self
  %1 = load %"struct.collections::vec::Vec<[u8]>[#6]"** %self
  %2 = getelementptr inbounds %"struct.collections::vec::Vec<[u8]>[#6]"* %1, i32 0, i32 2
  %3 = load i8** %2
  ret i8* %3
}

; Function Attrs: inlinehint uwtable
define internal i8* @"_ZN5slice57Items$LT$$x27a$C$$x20T$GT$.Iterator$LT$$BP$$x27a$x20T$GT$4next21h11158999227114724758E"(%"struct.core::slice::Items<[u8]>[#3]"* noalias nocapture dereferenceable(16)) unnamed_addr #1 {
entry-block:
  %sret_slot = alloca i8*
  %self = alloca %"struct.core::slice::Items<[u8]>[#3]"*
  %1 = alloca i64
  %old = alloca i8*
  store %"struct.core::slice::Items<[u8]>[#3]"* %0, %"struct.core::slice::Items<[u8]>[#3]"** %self
  %2 = load %"struct.core::slice::Items<[u8]>[#3]"** %self
  %3 = getelementptr inbounds %"struct.core::slice::Items<[u8]>[#3]"* %2, i32 0, i32 0
  %4 = load %"struct.core::slice::Items<[u8]>[#3]"** %self
  %5 = getelementptr inbounds %"struct.core::slice::Items<[u8]>[#3]"* %4, i32 0, i32 1
  %6 = load i8** %3
  %7 = load i8** %5
  %8 = icmp eq i8* %6, %7
  br i1 %8, label %then-block-3149-, label %else-block

then-block-3149-:                                 ; preds = %entry-block
  store i8* null, i8** %sret_slot
  br label %join2

else-block:                                       ; preds = %entry-block
  %9 = call i64 @_ZN3mem7size_of20h8801843898092001589E()
  store i64 %9, i64* %1
  %10 = load i64* %1
  %11 = icmp eq i64 %10, 0
  br i1 %11, label %then-block-3160-, label %else-block1

then-block-3160-:                                 ; preds = %else-block
  %12 = load %"struct.core::slice::Items<[u8]>[#3]"** %self
  %13 = getelementptr inbounds %"struct.core::slice::Items<[u8]>[#3]"* %12, i32 0, i32 0
  %14 = bitcast i8** %13 to i64*
  %15 = load %"struct.core::slice::Items<[u8]>[#3]"** %self
  %16 = getelementptr inbounds %"struct.core::slice::Items<[u8]>[#3]"* %15, i32 0, i32 0
  %17 = load i8** %16
  %18 = ptrtoint i8* %17 to i64
  %19 = add i64 %18, 1
  store i64 %19, i64* %14
  %20 = bitcast i8** %sret_slot to i64*
  store i64 1, i64* %20
  br label %join

else-block1:                                      ; preds = %else-block
  %21 = load %"struct.core::slice::Items<[u8]>[#3]"** %self
  %22 = getelementptr inbounds %"struct.core::slice::Items<[u8]>[#3]"* %21, i32 0, i32 0
  %23 = load i8** %22
  store i8* %23, i8** %old
  %24 = load %"struct.core::slice::Items<[u8]>[#3]"** %self
  %25 = getelementptr inbounds %"struct.core::slice::Items<[u8]>[#3]"* %24, i32 0, i32 0
  %26 = load %"struct.core::slice::Items<[u8]>[#3]"** %self
  %27 = getelementptr inbounds %"struct.core::slice::Items<[u8]>[#3]"* %26, i32 0, i32 0
  %28 = load i8** %27
  %29 = call i8* @"_ZN3ptr31_$RP$const$x20T.RawPtr$LT$T$GT$6offset20h3541890102477077159E"(i8* %28, i64 1)
  store i8* %29, i8** %25
  %30 = load i8** %old
  store i8* %30, i8** %sret_slot
  br label %join

join:                                             ; preds = %else-block1, %then-block-3160-
  br label %join2

join2:                                            ; preds = %join, %then-block-3149-
  %31 = load i8** %sret_slot
  ret i8* %31
}

; Function Attrs: inlinehint uwtable
define internal i8 @_ZN3mem13uninitialized20h9522951720622532277E() unnamed_addr #1 {
entry-block:
  %sret_slot = alloca i8
  %0 = load i8* %sret_slot
  ret i8 %0
}

; Function Attrs: inlinehint uwtable
define internal void @_ZN3vec7dealloc21h15973657247948967830E(i8*, i64) unnamed_addr #1 {
entry-block:
  %ptr = alloca i8*
  %len = alloca i64
  %2 = alloca i64
  %3 = alloca i64
  %4 = alloca i64
  store i8* %0, i8** %ptr
  store i64 %1, i64* %len
  %5 = call i64 @_ZN3mem7size_of20h8801843898092001589E()
  store i64 %5, i64* %2
  %6 = load i64* %2
  %7 = icmp ne i64 %6, 0
  br i1 %7, label %then-block-3452-, label %next-block

then-block-3452-:                                 ; preds = %entry-block
  %8 = load i8** %ptr
  %9 = call i64 @_ZN3mem7size_of20h8801843898092001589E()
  store i64 %9, i64* %3
  %10 = load i64* %3
  %11 = load i64* %len
  %12 = mul i64 %11, %10
  %13 = call i64 @_ZN3mem12min_align_of21h13789648851169850150E()
  store i64 %13, i64* %4
  %14 = load i64* %4
  call void @_ZN4heap10deallocate20haba22702ee4715b4hQaE(i8* %8, i64 %12, i64 %14)
  br label %next-block

next-block:                                       ; preds = %entry-block, %then-block-3452-
  ret void
}

; Function Attrs: inlinehint uwtable
define internal i64 @_ZN3mem12min_align_of21h13789648851169850150E() unnamed_addr #1 {
entry-block:
  ret i64 1
}

; Function Attrs: inlinehint uwtable
define internal void @_ZN3fmt8argument20h6100430583159702791E(%"struct.core::fmt::Argument<[]>[#3]"* noalias nocapture sret dereferenceable(16), %"enum.core::result::Result<[(), core::fmt::FormatError]>[#3]" (i64*, %"struct.core::fmt::Formatter<[]>[#3]"*)*, i64* noalias dereferenceable(8)) unnamed_addr #1 {
entry-block:
  %f = alloca %"enum.core::result::Result<[(), core::fmt::FormatError]>[#3]" (i64*, %"struct.core::fmt::Formatter<[]>[#3]"*)*
  %t = alloca i64*
  store %"enum.core::result::Result<[(), core::fmt::FormatError]>[#3]" (i64*, %"struct.core::fmt::Formatter<[]>[#3]"*)* %1, %"enum.core::result::Result<[(), core::fmt::FormatError]>[#3]" (i64*, %"struct.core::fmt::Formatter<[]>[#3]"*)** %f
  store i64* %2, i64** %t
  %3 = getelementptr inbounds %"struct.core::fmt::Argument<[]>[#3]"* %0, i32 0, i32 0
  %4 = bitcast %"enum.core::result::Result<[(), core::fmt::FormatError]>[#3]" (%"enum.core::fmt::Void<[]>[#3]"*, %"struct.core::fmt::Formatter<[]>[#3]"*)** %3 to %"enum.core::result::Result<[(), core::fmt::FormatError]>[#3]" (i64*, %"struct.core::fmt::Formatter<[]>[#3]"*)**
  %5 = load %"enum.core::result::Result<[(), core::fmt::FormatError]>[#3]" (i64*, %"struct.core::fmt::Formatter<[]>[#3]"*)** %f
  store %"enum.core::result::Result<[(), core::fmt::FormatError]>[#3]" (i64*, %"struct.core::fmt::Formatter<[]>[#3]"*)* %5, %"enum.core::result::Result<[(), core::fmt::FormatError]>[#3]" (i64*, %"struct.core::fmt::Formatter<[]>[#3]"*)** %4
  %6 = getelementptr inbounds %"struct.core::fmt::Argument<[]>[#3]"* %0, i32 0, i32 1
  %7 = bitcast %"enum.core::fmt::Void<[]>[#3]"** %6 to i64**
  %8 = load i64** %t
  store i64* %8, i64** %7
  ret void
}

; Function Attrs: uwtable
define internal %"enum.core::result::Result<[(), core::fmt::FormatError]>[#3]" @_ZN3fmt11secret_show20h6104192457487343950E(i64* noalias nocapture dereferenceable(8), %"struct.core::fmt::Formatter<[]>[#3]"* noalias nocapture dereferenceable(96)) unnamed_addr #0 {
entry-block:
  %x = alloca i64*
  %fmt = alloca %"struct.core::fmt::Formatter<[]>[#3]"*
  store i64* %0, i64** %x
  store %"struct.core::fmt::Formatter<[]>[#3]"* %1, %"struct.core::fmt::Formatter<[]>[#3]"** %fmt
  %2 = load i64** %x
  %3 = load %"struct.core::fmt::Formatter<[]>[#3]"** %fmt
  %4 = call %"enum.core::result::Result<[(), core::fmt::FormatError]>[#3]" @_ZN3fmt3num13int.fmt..Show3fmt20h39cc85f3e74d7298gsxE(i64* noalias dereferenceable(8) %2, %"struct.core::fmt::Formatter<[]>[#3]"* noalias dereferenceable(96) %3)
  ret %"enum.core::result::Result<[(), core::fmt::FormatError]>[#3]" %4
}

declare %"enum.core::result::Result<[(), core::fmt::FormatError]>[#3]" @_ZN3fmt3num13int.fmt..Show3fmt20h39cc85f3e74d7298gsxE(i64* noalias nocapture dereferenceable(8), %"struct.core::fmt::Formatter<[]>[#3]"* noalias nocapture dereferenceable(96)) unnamed_addr #2

; Function Attrs: inlinehint uwtable
define internal void @_ZN3fmt8argument20h9873654193213671307E(%"struct.core::fmt::Argument<[]>[#3]"* noalias nocapture sret dereferenceable(16), %"enum.core::result::Result<[(), core::fmt::FormatError]>[#3]" (double*, %"struct.core::fmt::Formatter<[]>[#3]"*)*, double* noalias dereferenceable(8)) unnamed_addr #1 {
entry-block:
  %f = alloca %"enum.core::result::Result<[(), core::fmt::FormatError]>[#3]" (double*, %"struct.core::fmt::Formatter<[]>[#3]"*)*
  %t = alloca double*
  store %"enum.core::result::Result<[(), core::fmt::FormatError]>[#3]" (double*, %"struct.core::fmt::Formatter<[]>[#3]"*)* %1, %"enum.core::result::Result<[(), core::fmt::FormatError]>[#3]" (double*, %"struct.core::fmt::Formatter<[]>[#3]"*)** %f
  store double* %2, double** %t
  %3 = getelementptr inbounds %"struct.core::fmt::Argument<[]>[#3]"* %0, i32 0, i32 0
  %4 = bitcast %"enum.core::result::Result<[(), core::fmt::FormatError]>[#3]" (%"enum.core::fmt::Void<[]>[#3]"*, %"struct.core::fmt::Formatter<[]>[#3]"*)** %3 to %"enum.core::result::Result<[(), core::fmt::FormatError]>[#3]" (double*, %"struct.core::fmt::Formatter<[]>[#3]"*)**
  %5 = load %"enum.core::result::Result<[(), core::fmt::FormatError]>[#3]" (double*, %"struct.core::fmt::Formatter<[]>[#3]"*)** %f
  store %"enum.core::result::Result<[(), core::fmt::FormatError]>[#3]" (double*, %"struct.core::fmt::Formatter<[]>[#3]"*)* %5, %"enum.core::result::Result<[(), core::fmt::FormatError]>[#3]" (double*, %"struct.core::fmt::Formatter<[]>[#3]"*)** %4
  %6 = getelementptr inbounds %"struct.core::fmt::Argument<[]>[#3]"* %0, i32 0, i32 1
  %7 = bitcast %"enum.core::fmt::Void<[]>[#3]"** %6 to double**
  %8 = load double** %t
  store double* %8, double** %7
  ret void
}

; Function Attrs: uwtable
define internal %"enum.core::result::Result<[(), core::fmt::FormatError]>[#3]" @_ZN3fmt11secret_show21h17332124287520084912E(double* noalias nocapture dereferenceable(8), %"struct.core::fmt::Formatter<[]>[#3]"* noalias nocapture dereferenceable(96)) unnamed_addr #0 {
entry-block:
  %x = alloca double*
  %fmt = alloca %"struct.core::fmt::Formatter<[]>[#3]"*
  store double* %0, double** %x
  store %"struct.core::fmt::Formatter<[]>[#3]"* %1, %"struct.core::fmt::Formatter<[]>[#3]"** %fmt
  %2 = load double** %x
  %3 = load %"struct.core::fmt::Formatter<[]>[#3]"** %fmt
  %4 = call %"enum.core::result::Result<[(), core::fmt::FormatError]>[#3]" @_ZN3fmt8f64.Show3fmt20hfe989d094d62b1b5zXyE(double* noalias dereferenceable(8) %2, %"struct.core::fmt::Formatter<[]>[#3]"* noalias dereferenceable(96) %3)
  ret %"enum.core::result::Result<[(), core::fmt::FormatError]>[#3]" %4
}

declare %"enum.core::result::Result<[(), core::fmt::FormatError]>[#3]" @_ZN3fmt8f64.Show3fmt20hfe989d094d62b1b5zXyE(double* noalias nocapture dereferenceable(8), %"struct.core::fmt::Formatter<[]>[#3]"* noalias nocapture dereferenceable(96)) unnamed_addr #2

; Function Attrs: inlinehint uwtable
define internal void @_ZN5c_str13String.ToCStr18to_c_str_unchecked20h82d2dd373fbc6aec93aE(%"struct.rustrt::c_str::CString<[]>[#9]"* noalias nocapture sret dereferenceable(16), %"struct.collections::string::String<[]>[#6]"* noalias nocapture dereferenceable(24)) unnamed_addr #1 {
entry-block:
  %self = alloca %"struct.collections::string::String<[]>[#6]"*
  %2 = alloca { i8*, i64 }
  store %"struct.collections::string::String<[]>[#6]"* %1, %"struct.collections::string::String<[]>[#6]"** %self
  %3 = load %"struct.collections::string::String<[]>[#6]"** %self
  call void @_ZN6string6String8as_bytes20h315039ac766f13c9YZaE({ i8*, i64 }* noalias nocapture sret dereferenceable(16) %2, %"struct.collections::string::String<[]>[#6]"* noalias dereferenceable(24) %3)
  call void @"_ZN5c_str31_$BP$$x27a$x20$x5bu8$x5d.ToCStr18to_c_str_unchecked20h9a953aefc50a899cN9aE"(%"struct.rustrt::c_str::CString<[]>[#9]"* noalias nocapture sret dereferenceable(16) %0, { i8*, i64 }* noalias dereferenceable(16) %2)
  ret void
}

declare void @"_ZN5c_str31_$BP$$x27a$x20$x5bu8$x5d.ToCStr18to_c_str_unchecked20h9a953aefc50a899cN9aE"(%"struct.rustrt::c_str::CString<[]>[#9]"* noalias nocapture sret dereferenceable(16), { i8*, i64 }* noalias nocapture dereferenceable(16)) unnamed_addr #2

; Function Attrs: inlinehint uwtable
define internal void @_ZN3fmt8argument21h15251286205247066397E(%"struct.core::fmt::Argument<[]>[#3]"* noalias nocapture sret dereferenceable(16), %"enum.core::result::Result<[(), core::fmt::FormatError]>[#3]" (%"enum.regex::re::Regex<[]>[#10]"**, %"struct.core::fmt::Formatter<[]>[#3]"*)*, %"enum.regex::re::Regex<[]>[#10]"** noalias dereferenceable(8)) unnamed_addr #1 {
entry-block:
  %f = alloca %"enum.core::result::Result<[(), core::fmt::FormatError]>[#3]" (%"enum.regex::re::Regex<[]>[#10]"**, %"struct.core::fmt::Formatter<[]>[#3]"*)*
  %t = alloca %"enum.regex::re::Regex<[]>[#10]"**
  store %"enum.core::result::Result<[(), core::fmt::FormatError]>[#3]" (%"enum.regex::re::Regex<[]>[#10]"**, %"struct.core::fmt::Formatter<[]>[#3]"*)* %1, %"enum.core::result::Result<[(), core::fmt::FormatError]>[#3]" (%"enum.regex::re::Regex<[]>[#10]"**, %"struct.core::fmt::Formatter<[]>[#3]"*)** %f
  store %"enum.regex::re::Regex<[]>[#10]"** %2, %"enum.regex::re::Regex<[]>[#10]"*** %t
  %3 = getelementptr inbounds %"struct.core::fmt::Argument<[]>[#3]"* %0, i32 0, i32 0
  %4 = bitcast %"enum.core::result::Result<[(), core::fmt::FormatError]>[#3]" (%"enum.core::fmt::Void<[]>[#3]"*, %"struct.core::fmt::Formatter<[]>[#3]"*)** %3 to %"enum.core::result::Result<[(), core::fmt::FormatError]>[#3]" (%"enum.regex::re::Regex<[]>[#10]"**, %"struct.core::fmt::Formatter<[]>[#3]"*)**
  %5 = load %"enum.core::result::Result<[(), core::fmt::FormatError]>[#3]" (%"enum.regex::re::Regex<[]>[#10]"**, %"struct.core::fmt::Formatter<[]>[#3]"*)** %f
  store %"enum.core::result::Result<[(), core::fmt::FormatError]>[#3]" (%"enum.regex::re::Regex<[]>[#10]"**, %"struct.core::fmt::Formatter<[]>[#3]"*)* %5, %"enum.core::result::Result<[(), core::fmt::FormatError]>[#3]" (%"enum.regex::re::Regex<[]>[#10]"**, %"struct.core::fmt::Formatter<[]>[#3]"*)** %4
  %6 = getelementptr inbounds %"struct.core::fmt::Argument<[]>[#3]"* %0, i32 0, i32 1
  %7 = bitcast %"enum.core::fmt::Void<[]>[#3]"** %6 to %"enum.regex::re::Regex<[]>[#10]"***
  %8 = load %"enum.regex::re::Regex<[]>[#10]"*** %t
  store %"enum.regex::re::Regex<[]>[#10]"** %8, %"enum.regex::re::Regex<[]>[#10]"*** %7
  ret void
}

; Function Attrs: uwtable
define internal %"enum.core::result::Result<[(), core::fmt::FormatError]>[#3]" @_ZN3fmt11secret_show20h1263191540033821210E(%"enum.regex::re::Regex<[]>[#10]"** noalias nocapture dereferenceable(8), %"struct.core::fmt::Formatter<[]>[#3]"* noalias nocapture dereferenceable(96)) unnamed_addr #0 {
entry-block:
  %x = alloca %"enum.regex::re::Regex<[]>[#10]"**
  %fmt = alloca %"struct.core::fmt::Formatter<[]>[#3]"*
  store %"enum.regex::re::Regex<[]>[#10]"** %0, %"enum.regex::re::Regex<[]>[#10]"*** %x
  store %"struct.core::fmt::Formatter<[]>[#3]"* %1, %"struct.core::fmt::Formatter<[]>[#3]"** %fmt
  %2 = load %"enum.regex::re::Regex<[]>[#10]"*** %x
  %3 = load %"struct.core::fmt::Formatter<[]>[#3]"** %fmt
  %4 = call %"enum.core::result::Result<[(), core::fmt::FormatError]>[#3]" @"_ZN3fmt20_$BP$$x27a$x20T.Show3fmt20h6470093238363689331E"(%"enum.regex::re::Regex<[]>[#10]"** noalias dereferenceable(8) %2, %"struct.core::fmt::Formatter<[]>[#3]"* noalias dereferenceable(96) %3)
  ret %"enum.core::result::Result<[(), core::fmt::FormatError]>[#3]" %4
}

; Function Attrs: uwtable
define internal %"enum.core::result::Result<[(), core::fmt::FormatError]>[#3]" @"_ZN3fmt20_$BP$$x27a$x20T.Show3fmt20h6470093238363689331E"(%"enum.regex::re::Regex<[]>[#10]"** noalias nocapture dereferenceable(8), %"struct.core::fmt::Formatter<[]>[#3]"* noalias nocapture dereferenceable(96)) unnamed_addr #0 {
entry-block:
  %self = alloca %"enum.regex::re::Regex<[]>[#10]"**
  %f = alloca %"struct.core::fmt::Formatter<[]>[#3]"*
  store %"enum.regex::re::Regex<[]>[#10]"** %0, %"enum.regex::re::Regex<[]>[#10]"*** %self
  store %"struct.core::fmt::Formatter<[]>[#3]"* %1, %"struct.core::fmt::Formatter<[]>[#3]"** %f
  %2 = load %"enum.regex::re::Regex<[]>[#10]"*** %self
  %3 = load %"enum.regex::re::Regex<[]>[#10]"** %2
  %4 = load %"struct.core::fmt::Formatter<[]>[#3]"** %f
  %5 = call %"enum.core::result::Result<[(), core::fmt::FormatError]>[#3]" @_ZN3fmt11secret_show21h11274008366476661648E(%"enum.regex::re::Regex<[]>[#10]"* noalias nocapture dereferenceable(104) %3, %"struct.core::fmt::Formatter<[]>[#3]"* noalias nocapture dereferenceable(96) %4)
  ret %"enum.core::result::Result<[(), core::fmt::FormatError]>[#3]" %5
}

; Function Attrs: uwtable
define internal %"enum.core::result::Result<[(), core::fmt::FormatError]>[#3]" @_ZN3fmt11secret_show21h11274008366476661648E(%"enum.regex::re::Regex<[]>[#10]"* noalias nocapture dereferenceable(104), %"struct.core::fmt::Formatter<[]>[#3]"* noalias nocapture dereferenceable(96)) unnamed_addr #0 {
entry-block:
  %x = alloca %"enum.regex::re::Regex<[]>[#10]"*
  %fmt = alloca %"struct.core::fmt::Formatter<[]>[#3]"*
  store %"enum.regex::re::Regex<[]>[#10]"* %0, %"enum.regex::re::Regex<[]>[#10]"** %x
  store %"struct.core::fmt::Formatter<[]>[#3]"* %1, %"struct.core::fmt::Formatter<[]>[#3]"** %fmt
  %2 = load %"enum.regex::re::Regex<[]>[#10]"** %x
  %3 = load %"struct.core::fmt::Formatter<[]>[#3]"** %fmt
  %4 = call %"enum.core::result::Result<[(), core::fmt::FormatError]>[#3]" @_ZN2re15Regex.fmt..Show3fmt20hf8239867ce789425jIcE(%"enum.regex::re::Regex<[]>[#10]"* noalias dereferenceable(104) %2, %"struct.core::fmt::Formatter<[]>[#3]"* noalias dereferenceable(96) %3)
  ret %"enum.core::result::Result<[(), core::fmt::FormatError]>[#3]" %4
}

declare %"enum.core::result::Result<[(), core::fmt::FormatError]>[#3]" @_ZN2re15Regex.fmt..Show3fmt20hf8239867ce789425jIcE(%"enum.regex::re::Regex<[]>[#10]"* noalias nocapture dereferenceable(104), %"struct.core::fmt::Formatter<[]>[#3]"* noalias nocapture dereferenceable(96)) unnamed_addr #2

; Function Attrs: uwtable
define noalias dereferenceable(112) %"struct.HyObj<[]>"* @hy_new_map() unnamed_addr #0 {
entry-block:
  %0 = alloca { i8*, i32 }
  %1 = call i8* @_ZN4heap15exchange_malloc20h30d5ec1e5810ddf3uRaE(i64 112, i64 8)
  %2 = bitcast i8* %1 to %"struct.HyObj<[]>"*
  %3 = getelementptr inbounds %"struct.HyObj<[]>"* %2, i32 0, i32 0
  %4 = bitcast %"enum.HyObjType<[]>"* %3 to { i8, %"struct.collections::treemap::TreeMap<[collections::string::String, Box<HyObj>]>[#6]" }*
  %5 = getelementptr inbounds { i8, %"struct.collections::treemap::TreeMap<[collections::string::String, Box<HyObj>]>[#6]" }* %4, i32 0, i32 1
  invoke void @"_ZN7treemap24TreeMap$LT$K$C$$x20V$GT$3new20h6430134615500710471E"(%"struct.collections::treemap::TreeMap<[collections::string::String, Box<HyObj>]>[#6]"* noalias nocapture sret dereferenceable(16) %5)
          to label %normal-return unwind label %unwind_custom_

normal-return:                                    ; preds = %entry-block
  %6 = getelementptr inbounds %"enum.HyObjType<[]>"* %3, i32 0, i32 0
  store i8 2, i8* %6
  ret %"struct.HyObj<[]>"* %2

unwind_custom_:                                   ; preds = %entry-block
  %7 = landingpad { i8*, i32 } personality i32 (i32, i32, i64, %"struct.rustrt::libunwind::_Unwind_Exception<[]>[#9]"*, %"enum.rustrt::libunwind::_Unwind_Context<[]>[#9]"*)* @rust_eh_personality
          cleanup
  store { i8*, i32 } %7, { i8*, i32 }* %0
  br label %clean_custom_

resume:                                           ; preds = %clean_custom_
  %8 = load { i8*, i32 }* %0
  resume { i8*, i32 } %8

clean_custom_:                                    ; preds = %unwind_custom_
  %9 = bitcast %"struct.HyObj<[]>"* %2 to i8*
  call void @_ZN4heap13exchange_free20h39df02bdcf92c5138RaE(i8* %9, i64 112, i64 8)
  br label %resume
}

; Function Attrs: uwtable
define internal void @"_ZN7treemap24TreeMap$LT$K$C$$x20V$GT$3new20h6430134615500710471E"(%"struct.collections::treemap::TreeMap<[collections::string::String, Box<HyObj>]>[#6]"* noalias nocapture sret dereferenceable(16)) unnamed_addr #0 {
entry-block:
  %1 = getelementptr inbounds %"struct.collections::treemap::TreeMap<[collections::string::String, Box<HyObj>]>[#6]"* %0, i32 0, i32 0
  store i8* null, i8** %1
  %2 = getelementptr inbounds %"struct.collections::treemap::TreeMap<[collections::string::String, Box<HyObj>]>[#6]"* %0, i32 0, i32 1
  store i64 0, i64* %2
  ret void
}

; Function Attrs: uwtable
define noalias dereferenceable(112) %"struct.HyObj<[]>"* @hy_new_string(i8*) unnamed_addr #0 {
entry-block:
  %buf = alloca i8*
  %s = alloca %"struct.collections::string::String<[]>[#6]"
  %c_str = alloca %"struct.rustrt::c_str::CString<[]>[#9]"
  %1 = alloca { i8*, i32 }
  %2 = alloca { i8*, i64 }
  %__adjust = alloca { i8*, i64 }
  store i8* %0, i8** %buf
  call void @_ZN6string6String3new20h1e6de00da69ea7deO4aE(%"struct.collections::string::String<[]>[#6]"* noalias nocapture sret dereferenceable(24) %s)
  %3 = load i8** %buf
  invoke void @_ZN5c_str7CString3new20h34895b63ae630fccEZaE(%"struct.rustrt::c_str::CString<[]>[#9]"* noalias nocapture sret dereferenceable(16) %c_str, i8* %3, i1 zeroext false)
          to label %normal-return unwind label %unwind_ast_971_

normal-return:                                    ; preds = %entry-block
  invoke void @_ZN5c_str7CString8as_bytes20hdcab029ff171d02dHmbE({ i8*, i64 }* noalias nocapture sret dereferenceable(16) %2, %"struct.rustrt::c_str::CString<[]>[#9]"* noalias dereferenceable(16) %c_str)
          to label %normal-return1 unwind label %unwind_ast_980_

unwind_ast_971_:                                  ; preds = %normal-return2, %entry-block
  %4 = landingpad { i8*, i32 } personality i32 (i32, i32, i64, %"struct.rustrt::libunwind::_Unwind_Exception<[]>[#9]"*, %"enum.rustrt::libunwind::_Unwind_Context<[]>[#9]"*)* @rust_eh_personality
          cleanup
  store { i8*, i32 } %4, { i8*, i32 }* %1
  br label %clean_ast_971_

resume:                                           ; preds = %clean_custom_
  %5 = load { i8*, i32 }* %1
  resume { i8*, i32 } %5

clean_custom_:                                    ; preds = %clean_ast_971_
  br label %resume

clean_ast_971_:                                   ; preds = %clean_ast_980_, %unwind_ast_971_
  call void @_ZN27collections..string..String14glue_drop.254617h993ff6726f821cd0E(%"struct.collections::string::String<[]>[#6]"* %s)
  br label %clean_custom_

normal-return1:                                   ; preds = %normal-return
  %6 = getelementptr inbounds { i8*, i64 }* %2, i32 0, i32 0
  %7 = load i8** %6
  %8 = getelementptr inbounds { i8*, i64 }* %2, i32 0, i32 1
  %9 = load i64* %8
  %10 = getelementptr inbounds { i8*, i64 }* %__adjust, i32 0, i32 0
  store i8* %7, i8** %10
  %11 = getelementptr inbounds { i8*, i64 }* %__adjust, i32 0, i32 1
  store i64 %9, i64* %11
  invoke void @_ZN6string6String10push_bytes20h9f95c095dc2093fek5aE(%"struct.collections::string::String<[]>[#6]"* noalias dereferenceable(24) %s, { i8*, i64 }* noalias nocapture dereferenceable(16) %__adjust)
          to label %normal-return2 unwind label %unwind_ast_980_

unwind_ast_980_:                                  ; preds = %normal-return1, %normal-return
  %12 = landingpad { i8*, i32 } personality i32 (i32, i32, i64, %"struct.rustrt::libunwind::_Unwind_Exception<[]>[#9]"*, %"enum.rustrt::libunwind::_Unwind_Context<[]>[#9]"*)* @rust_eh_personality
          cleanup
  store { i8*, i32 } %12, { i8*, i32 }* %1
  br label %clean_ast_980_

clean_ast_980_:                                   ; preds = %unwind_ast_980_
  call void @_ZN22rustrt..c_str..CString14glue_drop.269217h37e8d864240884a1E(%"struct.rustrt::c_str::CString<[]>[#9]"* %c_str)
  br label %clean_ast_971_

normal-return2:                                   ; preds = %normal-return1
  call void @_ZN22rustrt..c_str..CString14glue_drop.269217h37e8d864240884a1E(%"struct.rustrt::c_str::CString<[]>[#9]"* %c_str)
  %13 = invoke i8* @_ZN4heap15exchange_malloc20h30d5ec1e5810ddf3uRaE(i64 112, i64 8)
          to label %normal-return3 unwind label %unwind_ast_971_

normal-return3:                                   ; preds = %normal-return2
  %14 = bitcast i8* %13 to %"struct.HyObj<[]>"*
  %15 = getelementptr inbounds %"struct.HyObj<[]>"* %14, i32 0, i32 0
  %16 = bitcast %"enum.HyObjType<[]>"* %15 to { i8, %"struct.collections::string::String<[]>[#6]" }*
  %17 = getelementptr inbounds { i8, %"struct.collections::string::String<[]>[#6]" }* %16, i32 0, i32 1
  %18 = bitcast %"struct.collections::string::String<[]>[#6]"* %s to i8*
  %19 = bitcast %"struct.collections::string::String<[]>[#6]"* %17 to i8*
  call void @llvm.memcpy.p0i8.p0i8.i64(i8* %19, i8* %18, i64 24, i32 8, i1 false)
  %20 = bitcast %"struct.collections::string::String<[]>[#6]"* %s to i8*
  call void @llvm.memset.p0i8.i64(i8* %20, i8 0, i64 24, i32 8, i1 false)
  %21 = getelementptr inbounds %"enum.HyObjType<[]>"* %15, i32 0, i32 0
  store i8 5, i8* %21
  call void @_ZN27collections..string..String14glue_drop.254617h993ff6726f821cd0E(%"struct.collections::string::String<[]>[#6]"* %s)
  ret %"struct.HyObj<[]>"* %14
}

; Function Attrs: inlinehint uwtable
define internal void @_ZN6string6String3new20h1e6de00da69ea7deO4aE(%"struct.collections::string::String<[]>[#6]"* noalias nocapture sret dereferenceable(24)) unnamed_addr #1 {
entry-block:
  %1 = getelementptr inbounds %"struct.collections::string::String<[]>[#6]"* %0, i32 0, i32 0
  call void @"_ZN3vec12Vec$LT$T$GT$3new20h8810909100692840116E"(%"struct.collections::vec::Vec<[u8]>[#6]"* noalias nocapture sret dereferenceable(24) %1)
  ret void
}

; Function Attrs: inlinehint uwtable
define internal void @"_ZN3vec12Vec$LT$T$GT$3new20h8810909100692840116E"(%"struct.collections::vec::Vec<[u8]>[#6]"* noalias nocapture sret dereferenceable(24)) unnamed_addr #1 {
entry-block:
  %1 = getelementptr inbounds %"struct.collections::vec::Vec<[u8]>[#6]"* %0, i32 0, i32 0
  store i64 0, i64* %1
  %2 = getelementptr inbounds %"struct.collections::vec::Vec<[u8]>[#6]"* %0, i32 0, i32 1
  store i64 0, i64* %2
  %3 = getelementptr inbounds %"struct.collections::vec::Vec<[u8]>[#6]"* %0, i32 0, i32 2
  store i8* @_ZN3vec10PTR_MARKER20hd0730fd7e79c68f4HgiE, i8** %3
  ret void
}

declare void @_ZN5c_str7CString3new20h34895b63ae630fccEZaE(%"struct.rustrt::c_str::CString<[]>[#9]"* noalias nocapture sret dereferenceable(16), i8*, i1 zeroext) unnamed_addr #2

; Function Attrs: inlinehint uwtable
define internal void @_ZN6string6String10push_bytes20h9f95c095dc2093fek5aE(%"struct.collections::string::String<[]>[#6]"* noalias nocapture dereferenceable(24), { i8*, i64 }* noalias nocapture dereferenceable(16)) unnamed_addr #1 {
entry-block:
  %self = alloca %"struct.collections::string::String<[]>[#6]"*
  %__adjust = alloca { i8*, i64 }
  store %"struct.collections::string::String<[]>[#6]"* %0, %"struct.collections::string::String<[]>[#6]"** %self
  %2 = load %"struct.collections::string::String<[]>[#6]"** %self
  %3 = getelementptr inbounds %"struct.collections::string::String<[]>[#6]"* %2, i32 0, i32 0
  %4 = getelementptr inbounds { i8*, i64 }* %1, i32 0, i32 0
  %5 = load i8** %4
  %6 = getelementptr inbounds { i8*, i64 }* %1, i32 0, i32 1
  %7 = load i64* %6
  %8 = getelementptr inbounds { i8*, i64 }* %__adjust, i32 0, i32 0
  store i8* %5, i8** %8
  %9 = getelementptr inbounds { i8*, i64 }* %__adjust, i32 0, i32 1
  store i64 %7, i64* %9
  call void @"_ZN3vec12Vec$LT$T$GT$8push_all19h234479435992782403E"(%"struct.collections::vec::Vec<[u8]>[#6]"* noalias dereferenceable(24) %3, { i8*, i64 }* noalias nocapture dereferenceable(16) %__adjust)
  ret void
}

; Function Attrs: inlinehint uwtable
define internal void @"_ZN3vec12Vec$LT$T$GT$8push_all19h234479435992782403E"(%"struct.collections::vec::Vec<[u8]>[#6]"* noalias nocapture dereferenceable(24), { i8*, i64 }* noalias nocapture dereferenceable(16)) unnamed_addr #1 {
entry-block:
  %self = alloca %"struct.collections::vec::Vec<[u8]>[#6]"*
  %2 = alloca i64
  %3 = alloca %"struct.core::iter::Range<[uint]>[#3]"
  %4 = alloca i64
  %for_head = alloca %"struct.core::iter::Range<[uint]>[#3]"*
  %loop_option = alloca %"enum.core::option::Option<[uint]>[#3]"
  %len = alloca i64
  %5 = alloca i8*
  %6 = alloca { i8*, i64 }
  %__adjust = alloca { i8*, i64 }
  %7 = alloca i8
  %8 = alloca i8*
  %__adjust1 = alloca { i8*, i64 }
  store %"struct.collections::vec::Vec<[u8]>[#6]"* %0, %"struct.collections::vec::Vec<[u8]>[#6]"** %self
  %9 = load %"struct.collections::vec::Vec<[u8]>[#6]"** %self
  %10 = call i64 @"_ZN5slice34_$BP$$x27a$x20$x5bT$x5d.Collection3len20h3475456214221098877E"({ i8*, i64 }* noalias dereferenceable(16) %1)
  store i64 %10, i64* %2
  %11 = load i64* %2
  call void @"_ZN3vec12Vec$LT$T$GT$18reserve_additional21h12507901313007296174E"(%"struct.collections::vec::Vec<[u8]>[#6]"* noalias dereferenceable(24) %9, i64 %11)
  %12 = call i64 @"_ZN5slice34_$BP$$x27a$x20$x5bT$x5d.Collection3len20h3475456214221098877E"({ i8*, i64 }* noalias dereferenceable(16) %1)
  store i64 %12, i64* %4
  %13 = load i64* %4
  call void @_ZN4iter5range21h13943714149629216218E(%"struct.core::iter::Range<[uint]>[#3]"* noalias nocapture sret dereferenceable(24) %3, i64 0, i64 %13)
  store %"struct.core::iter::Range<[uint]>[#3]"* %3, %"struct.core::iter::Range<[uint]>[#3]"** %for_head
  %14 = load %"struct.core::iter::Range<[uint]>[#3]"** %for_head
  br label %for_loopback

for_exit:                                         ; preds = %for_loopback
  ret void

for_loopback:                                     ; preds = %for_body, %entry-block
  call void @"_ZN4iter32Range$LT$A$GT$.Iterator$LT$A$GT$4next21h15869216241267199466E"(%"enum.core::option::Option<[uint]>[#3]"* noalias nocapture sret dereferenceable(16) %loop_option, %"struct.core::iter::Range<[uint]>[#3]"* noalias dereferenceable(24) %14)
  %15 = getelementptr inbounds %"enum.core::option::Option<[uint]>[#3]"* %loop_option, i32 0, i32 0
  %16 = load i8* %15, !range !0
  %17 = icmp ne i8 %16, 0
  br i1 %17, label %for_body, label %for_exit

for_body:                                         ; preds = %for_loopback
  %18 = bitcast %"enum.core::option::Option<[uint]>[#3]"* %loop_option to { i8, i64 }*
  %19 = getelementptr inbounds { i8, i64 }* %18, i32 0, i32 1
  %20 = load %"struct.collections::vec::Vec<[u8]>[#6]"** %self
  %21 = call i64 @"_ZN3vec23Vec$LT$T$GT$.Collection3len20h9824421377571166359E"(%"struct.collections::vec::Vec<[u8]>[#6]"* noalias dereferenceable(24) %20)
  store i64 %21, i64* %len
  %22 = load %"struct.collections::vec::Vec<[u8]>[#6]"** %self
  call void @"_ZN3vec12Vec$LT$T$GT$12as_mut_slice20h9731355162818105609E"({ i8*, i64 }* noalias nocapture sret dereferenceable(16) %6, %"struct.collections::vec::Vec<[u8]>[#6]"* noalias dereferenceable(24) %22)
  %23 = getelementptr inbounds { i8*, i64 }* %6, i32 0, i32 0
  %24 = load i8** %23
  %25 = getelementptr inbounds { i8*, i64 }* %6, i32 0, i32 1
  %26 = load i64* %25
  %27 = getelementptr inbounds { i8*, i64 }* %__adjust, i32 0, i32 0
  store i8* %24, i8** %27
  %28 = getelementptr inbounds { i8*, i64 }* %__adjust, i32 0, i32 1
  store i64 %26, i64* %28
  %29 = load i64* %len
  %30 = call dereferenceable(1) i8* @"_ZN5slice65_$BP$$x27a$x20mut$x20$x5bT$x5d.MutableVector$LT$$x27a$C$$x20T$GT$14unsafe_mut_ref21h15720098908229206567E"({ i8*, i64 }* noalias nocapture dereferenceable(16) %__adjust, i64 %29)
  store i8* %30, i8** %5
  %31 = load i8** %5
  %32 = getelementptr inbounds { i8*, i64 }* %1, i32 0, i32 0
  %33 = load i8** %32
  %34 = getelementptr inbounds { i8*, i64 }* %1, i32 0, i32 1
  %35 = load i64* %34
  %36 = getelementptr inbounds { i8*, i64 }* %__adjust1, i32 0, i32 0
  store i8* %33, i8** %36
  %37 = getelementptr inbounds { i8*, i64 }* %__adjust1, i32 0, i32 1
  store i64 %35, i64* %37
  %38 = load i64* %19
  %39 = call dereferenceable(1) i8* @"_ZN5slice60_$BP$$x27a$x20$x5bT$x5d.ImmutableVector$LT$$x27a$C$$x20T$GT$10unsafe_ref20h7061572914181480428E"({ i8*, i64 }* noalias nocapture dereferenceable(16) %__adjust1, i64 %38)
  store i8* %39, i8** %8
  %40 = load i8** %8
  %41 = call i8 @_ZN5clone8u8.Clone5clone20hf1cc8858eb2dc321TlbE(i8* noalias dereferenceable(1) %40)
  store i8 %41, i8* %7
  %42 = load i8* %7
  call void @_ZN3ptr5write20h1623738637920900419E(i8* %31, i8 %42)
  %43 = load %"struct.collections::vec::Vec<[u8]>[#6]"** %self
  %44 = load i64* %len
  %45 = add i64 %44, 1
  call void @"_ZN3vec12Vec$LT$T$GT$7set_len19h908893650939994279E"(%"struct.collections::vec::Vec<[u8]>[#6]"* noalias dereferenceable(24) %43, i64 %45)
  br label %for_loopback
}

; Function Attrs: uwtable
define internal void @"_ZN3vec12Vec$LT$T$GT$18reserve_additional21h12507901313007296174E"(%"struct.collections::vec::Vec<[u8]>[#6]"* noalias nocapture dereferenceable(24), i64) unnamed_addr #0 {
entry-block:
  %fmt.i = alloca %"struct.core::fmt::Arguments<[]>[#3]"*
  %self = alloca %"struct.collections::vec::Vec<[u8]>[#6]"*
  %extra = alloca i64
  %2 = alloca %"enum.core::option::Option<[uint]>[#3]"
  %__llmatch = alloca i64*
  %new_cap = alloca i64
  %3 = alloca { %str_slice* }
  %4 = alloca %str_slice
  %match = alloca { %str_slice* }
  %__llmatch3 = alloca %str_slice**
  %__arg0 = alloca %str_slice*
  %__args_vec = alloca { %"struct.core::fmt::Argument<[]>[#3]"*, i64 }
  %5 = alloca %"struct.core::fmt::Argument<[]>[#3]"
  %__args = alloca %"struct.core::fmt::Arguments<[]>[#3]"
  %__adjust = alloca { %"enum.core::fmt::rt::Piece<[]>[#3]"*, i64 }
  %__adjust4 = alloca { %"struct.core::fmt::Argument<[]>[#3]"*, i64 }
  store %"struct.collections::vec::Vec<[u8]>[#6]"* %0, %"struct.collections::vec::Vec<[u8]>[#6]"** %self
  store i64 %1, i64* %extra
  %6 = load %"struct.collections::vec::Vec<[u8]>[#6]"** %self
  %7 = getelementptr inbounds %"struct.collections::vec::Vec<[u8]>[#6]"* %6, i32 0, i32 1
  %8 = load %"struct.collections::vec::Vec<[u8]>[#6]"** %self
  %9 = getelementptr inbounds %"struct.collections::vec::Vec<[u8]>[#6]"* %8, i32 0, i32 0
  %10 = load i64* %7
  %11 = load i64* %9
  %12 = sub i64 %10, %11
  %13 = load i64* %extra
  %14 = icmp ult i64 %12, %13
  br i1 %14, label %then-block-3630-, label %next-block

then-block-3630-:                                 ; preds = %entry-block
  %15 = load %"struct.collections::vec::Vec<[u8]>[#6]"** %self
  %16 = getelementptr inbounds %"struct.collections::vec::Vec<[u8]>[#6]"* %15, i32 0, i32 0
  call void @_ZN3num15uint.CheckedAdd11checked_add20h168125a50a7422efc8aE(%"enum.core::option::Option<[uint]>[#3]"* noalias nocapture sret dereferenceable(16) %2, i64* noalias dereferenceable(8) %16, i64* noalias dereferenceable(8) %extra)
  %17 = getelementptr inbounds %"enum.core::option::Option<[uint]>[#3]"* %2, i32 0, i32 0
  %18 = load i8* %17, !range !0
  switch i8 %18, label %match_else [
    i8 0, label %match_case
  ]

case_body:                                        ; preds = %match_case
  %19 = getelementptr inbounds { %str_slice* }* %3, i32 0, i32 0
  %20 = getelementptr inbounds %str_slice* %4, i32 0, i32 0
  store i8* getelementptr inbounds ([40 x i8]* @str2614, i32 0, i32 0), i8** %20
  %21 = getelementptr inbounds %str_slice* %4, i32 0, i32 1
  store i64 40, i64* %21
  store %str_slice* %4, %str_slice** %19
  %22 = load { %str_slice* }* %3
  store { %str_slice* } %22, { %str_slice* }* %match
  %23 = getelementptr inbounds { %str_slice* }* %match, i32 0, i32 0
  store %str_slice** %23, %str_slice*** %__llmatch3
  br label %case_body2

case_body1:                                       ; preds = %match_else
  %24 = load i64** %__llmatch
  %25 = load i64* %24
  store i64 %25, i64* %new_cap
  %26 = load %"struct.collections::vec::Vec<[u8]>[#6]"** %self
  %27 = load i64* %new_cap
  call void @"_ZN3vec12Vec$LT$T$GT$7reserve21h16853846710466289871E"(%"struct.collections::vec::Vec<[u8]>[#6]"* noalias dereferenceable(24) %26, i64 %27)
  br label %join5

match_else:                                       ; preds = %then-block-3630-
  %28 = bitcast %"enum.core::option::Option<[uint]>[#3]"* %2 to { i8, i64 }*
  %29 = getelementptr inbounds { i8, i64 }* %28, i32 0, i32 1
  store i64* %29, i64** %__llmatch
  br label %case_body1

match_case:                                       ; preds = %then-block-3630-
  br label %case_body

case_body2:                                       ; preds = %case_body
  %30 = load %str_slice*** %__llmatch3
  %31 = load %str_slice** %30
  store %str_slice* %31, %str_slice** %__arg0
  %32 = bitcast %"struct.core::fmt::Argument<[]>[#3]"* %5 to [1 x %"struct.core::fmt::Argument<[]>[#3]"]*
  %33 = getelementptr inbounds %"struct.core::fmt::Argument<[]>[#3]"* %5, i32 0
  %34 = load %str_slice** %__arg0
  call void @_ZN3fmt8argument21h12951519187437715559E(%"struct.core::fmt::Argument<[]>[#3]"* noalias nocapture sret dereferenceable(16) %33, %"enum.core::result::Result<[(), core::fmt::FormatError]>[#3]" (%str_slice*, %"struct.core::fmt::Formatter<[]>[#3]"*)* @_ZN3fmt11secret_show21h13495507410434688215E, %str_slice* noalias dereferenceable(16) %34)
  %35 = getelementptr inbounds { %"struct.core::fmt::Argument<[]>[#3]"*, i64 }* %__args_vec, i32 0, i32 0
  store %"struct.core::fmt::Argument<[]>[#3]"* %5, %"struct.core::fmt::Argument<[]>[#3]"** %35
  %36 = getelementptr inbounds { %"struct.core::fmt::Argument<[]>[#3]"*, i64 }* %__args_vec, i32 0, i32 1
  store i64 1, i64* %36
  %37 = getelementptr inbounds { %"enum.core::fmt::rt::Piece<[]>[#3]"*, i64 }* %__adjust, i32 0, i32 0
  store %"enum.core::fmt::rt::Piece<[]>[#3]"* getelementptr inbounds ([1 x %"enum.core::fmt::rt::Piece<[]>[#3]"]* bitcast ({ { i8, { { i8, [15 x i8] }, { i32, i8, i64, { i8, [15 x i8] }, { i8, [15 x i8] } } }, [0 x i8] } }* @"_ZN3vec12Vec$LT$T$GT$18reserve_additional15__STATIC_FMTSTR20hc4afdecb9c205274fyiE" to [1 x %"enum.core::fmt::rt::Piece<[]>[#3]"]*), i32 0, i32 0), %"enum.core::fmt::rt::Piece<[]>[#3]"** %37
  %38 = getelementptr inbounds { %"enum.core::fmt::rt::Piece<[]>[#3]"*, i64 }* %__adjust, i32 0, i32 1
  store i64 1, i64* %38
  %39 = getelementptr inbounds { %"struct.core::fmt::Argument<[]>[#3]"*, i64 }* %__args_vec, i32 0, i32 0
  %40 = load %"struct.core::fmt::Argument<[]>[#3]"** %39
  %41 = getelementptr inbounds { %"struct.core::fmt::Argument<[]>[#3]"*, i64 }* %__args_vec, i32 0, i32 1
  %42 = load i64* %41
  %43 = getelementptr inbounds { %"struct.core::fmt::Argument<[]>[#3]"*, i64 }* %__adjust4, i32 0, i32 0
  store %"struct.core::fmt::Argument<[]>[#3]"* %40, %"struct.core::fmt::Argument<[]>[#3]"** %43
  %44 = getelementptr inbounds { %"struct.core::fmt::Argument<[]>[#3]"*, i64 }* %__adjust4, i32 0, i32 1
  store i64 %42, i64* %44
  call void @"_ZN3fmt22Arguments$LT$$x27a$GT$3new20h08e5545b7031607ajUaE"(%"struct.core::fmt::Arguments<[]>[#3]"* noalias nocapture sret dereferenceable(32) %__args, { %"enum.core::fmt::rt::Piece<[]>[#3]"*, i64 }* noalias nocapture dereferenceable(16) %__adjust, { %"struct.core::fmt::Argument<[]>[#3]"*, i64 }* noalias nocapture dereferenceable(16) %__adjust4)
  store %"struct.core::fmt::Arguments<[]>[#3]"* %__args, %"struct.core::fmt::Arguments<[]>[#3]"** %fmt.i
  %45 = load %"struct.core::fmt::Arguments<[]>[#3]"** %fmt.i
  call void @_ZN7failure12begin_unwind20h7d8f396ab219c1bbn5jE(%"struct.core::fmt::Arguments<[]>[#3]"* noalias nocapture dereferenceable(32) %45, { %str_slice, i64 }* noalias nocapture dereferenceable(24) @"_ZN3vec12Vec$LT$T$GT$18reserve_additional8_run_fmt10_FILE_LINE20hcbe4b606f4a2422dQxiE")
  unreachable

"_ZN3vec12Vec$LT$T$GT$18reserve_additional8_run_fmt20h59eaf2291fcfa3d1u9aE.exit": ; No predecessors!
  unreachable

join:                                             ; No predecessors!
  unreachable

join5:                                            ; preds = %case_body1
  br label %next-block

next-block:                                       ; preds = %entry-block, %join5
  ret void
}

; Function Attrs: inlinehint uwtable
define internal void @_ZN3num15uint.CheckedAdd11checked_add20h168125a50a7422efc8aE(%"enum.core::option::Option<[uint]>[#3]"* noalias nocapture sret dereferenceable(16), i64* noalias nocapture dereferenceable(8), i64* noalias nocapture dereferenceable(8)) unnamed_addr #1 {
entry-block:
  %self = alloca i64*
  %v = alloca i64*
  %3 = alloca { i64, i8 }
  %x = alloca i64
  %y = alloca i8
  store i64* %1, i64** %self
  store i64* %2, i64** %v
  %4 = load i64** %self
  %5 = load i64* %4
  %6 = load i64** %v
  %7 = load i64* %6
  %8 = call { i64, i1 } @llvm.uadd.with.overflow.i64(i64 %5, i64 %7)
  %9 = extractvalue { i64, i1 } %8, 0
  %10 = extractvalue { i64, i1 } %8, 1
  %11 = zext i1 %10 to i8
  %12 = insertvalue { i64, i8 } undef, i64 %9, 0
  %13 = insertvalue { i64, i8 } %12, i8 %11, 1
  store { i64, i8 } %13, { i64, i8 }* %3
  %14 = getelementptr inbounds { i64, i8 }* %3, i32 0, i32 0
  %15 = load i64* %14
  store i64 %15, i64* %x
  %16 = getelementptr inbounds { i64, i8 }* %3, i32 0, i32 1
  %17 = load i8* %16
  store i8 %17, i8* %y
  %18 = load i8* %y, !range !0
  %19 = trunc i8 %18 to i1
  br i1 %19, label %then-block-3758-, label %else-block

then-block-3758-:                                 ; preds = %entry-block
  %20 = getelementptr inbounds %"enum.core::option::Option<[uint]>[#3]"* %0, i32 0, i32 0
  store i8 0, i8* %20
  br label %join

else-block:                                       ; preds = %entry-block
  %21 = bitcast %"enum.core::option::Option<[uint]>[#3]"* %0 to { i8, i64 }*
  %22 = getelementptr inbounds { i8, i64 }* %21, i32 0, i32 1
  %23 = load i64* %x
  store i64 %23, i64* %22
  %24 = getelementptr inbounds %"enum.core::option::Option<[uint]>[#3]"* %0, i32 0, i32 0
  store i8 1, i8* %24
  br label %join

join:                                             ; preds = %else-block, %then-block-3758-
  ret void
}

; Function Attrs: nounwind readnone
declare { i64, i1 } @llvm.uadd.with.overflow.i64(i64, i64) unnamed_addr #3

; Function Attrs: cold noinline noreturn
declare void @_ZN7failure12begin_unwind20h7d8f396ab219c1bbn5jE(%"struct.core::fmt::Arguments<[]>[#3]"* noalias nocapture dereferenceable(32), { %str_slice, i64 }* noalias nocapture dereferenceable(24)) unnamed_addr #6

; Function Attrs: uwtable
define internal void @"_ZN3vec12Vec$LT$T$GT$7reserve21h16853846710466289871E"(%"struct.collections::vec::Vec<[u8]>[#6]"* noalias nocapture dereferenceable(24), i64) unnamed_addr #0 {
entry-block:
  %self = alloca %"struct.collections::vec::Vec<[u8]>[#6]"*
  %capacity = alloca i64
  %2 = alloca i64
  store %"struct.collections::vec::Vec<[u8]>[#6]"* %0, %"struct.collections::vec::Vec<[u8]>[#6]"** %self
  store i64 %1, i64* %capacity
  %3 = load %"struct.collections::vec::Vec<[u8]>[#6]"** %self
  %4 = getelementptr inbounds %"struct.collections::vec::Vec<[u8]>[#6]"* %3, i32 0, i32 1
  %5 = load i64* %capacity
  %6 = load i64* %4
  %7 = icmp ugt i64 %5, %6
  br i1 %7, label %then-block-3855-, label %next-block

then-block-3855-:                                 ; preds = %entry-block
  %8 = load %"struct.collections::vec::Vec<[u8]>[#6]"** %self
  %9 = load i64* %capacity
  %10 = call i64 @_ZN3num17next_power_of_two21h10811780256953814246E(i64 %9)
  store i64 %10, i64* %2
  %11 = load i64* %2
  call void @"_ZN3vec12Vec$LT$T$GT$13reserve_exact20h4117717781804655759E"(%"struct.collections::vec::Vec<[u8]>[#6]"* noalias dereferenceable(24) %8, i64 %11)
  br label %next-block

next-block:                                       ; preds = %entry-block, %then-block-3855-
  ret void
}

; Function Attrs: uwtable
define internal void @"_ZN3vec12Vec$LT$T$GT$13reserve_exact20h4117717781804655759E"(%"struct.collections::vec::Vec<[u8]>[#6]"* noalias nocapture dereferenceable(24), i64) unnamed_addr #0 {
entry-block:
  %self = alloca %"struct.collections::vec::Vec<[u8]>[#6]"*
  %capacity = alloca i64
  %2 = alloca i64
  %size = alloca i64
  %3 = alloca %"enum.core::option::Option<[uint]>[#3]"
  %4 = alloca i64
  %addr_of = alloca i64
  %5 = alloca %str_slice
  %6 = alloca i64
  store %"struct.collections::vec::Vec<[u8]>[#6]"* %0, %"struct.collections::vec::Vec<[u8]>[#6]"** %self
  store i64 %1, i64* %capacity
  %7 = call i64 @_ZN3mem7size_of20h8801843898092001589E()
  store i64 %7, i64* %2
  %8 = load i64* %2
  %9 = icmp eq i64 %8, 0
  br i1 %9, label %then-block-3880-, label %next-block

then-block-3880-:                                 ; preds = %entry-block
  br label %clean_custom_

clean_custom_:                                    ; preds = %next-block1, %then-block-3880-
  br label %return

next-block:                                       ; preds = %entry-block
  %10 = load %"struct.collections::vec::Vec<[u8]>[#6]"** %self
  %11 = getelementptr inbounds %"struct.collections::vec::Vec<[u8]>[#6]"* %10, i32 0, i32 1
  %12 = load i64* %capacity
  %13 = load i64* %11
  %14 = icmp ugt i64 %12, %13
  br i1 %14, label %then-block-3887-, label %next-block1

then-block-3887-:                                 ; preds = %next-block
  %15 = call i64 @_ZN3mem7size_of20h8801843898092001589E()
  store i64 %15, i64* %4
  %16 = load i64* %4
  store i64 %16, i64* %addr_of
  call void @_ZN3num15uint.CheckedMul11checked_mul20h5d321d5ebb1c6700XdbE(%"enum.core::option::Option<[uint]>[#3]"* noalias nocapture sret dereferenceable(16) %3, i64* noalias dereferenceable(8) %capacity, i64* noalias dereferenceable(8) %addr_of)
  %17 = getelementptr inbounds %str_slice* %5, i32 0, i32 0
  store i8* getelementptr inbounds ([17 x i8]* @str2643, i32 0, i32 0), i8** %17
  %18 = getelementptr inbounds %str_slice* %5, i32 0, i32 1
  store i64 17, i64* %18
  %19 = call i64 @"_ZN6option15Option$LT$T$GT$6expect21h14719520378251898507E"(%"enum.core::option::Option<[uint]>[#3]"* noalias nocapture dereferenceable(16) %3, %str_slice* noalias nocapture dereferenceable(16) %5)
  store i64 %19, i64* %size
  %20 = load %"struct.collections::vec::Vec<[u8]>[#6]"** %self
  %21 = getelementptr inbounds %"struct.collections::vec::Vec<[u8]>[#6]"* %20, i32 0, i32 2
  %22 = load %"struct.collections::vec::Vec<[u8]>[#6]"** %self
  %23 = getelementptr inbounds %"struct.collections::vec::Vec<[u8]>[#6]"* %22, i32 0, i32 2
  %24 = load i8** %23
  %25 = load i64* %size
  %26 = load %"struct.collections::vec::Vec<[u8]>[#6]"** %self
  %27 = getelementptr inbounds %"struct.collections::vec::Vec<[u8]>[#6]"* %26, i32 0, i32 1
  %28 = call i64 @_ZN3mem7size_of20h8801843898092001589E()
  store i64 %28, i64* %6
  %29 = load i64* %6
  %30 = load i64* %27
  %31 = mul i64 %30, %29
  %32 = call i8* @_ZN3vec16alloc_or_realloc20h1502041559917371718E(i8* %24, i64 %25, i64 %31)
  store i8* %32, i8** %21
  %33 = load %"struct.collections::vec::Vec<[u8]>[#6]"** %self
  %34 = getelementptr inbounds %"struct.collections::vec::Vec<[u8]>[#6]"* %33, i32 0, i32 1
  %35 = load i64* %capacity
  store i64 %35, i64* %34
  br label %next-block1

next-block1:                                      ; preds = %next-block, %then-block-3887-
  br label %clean_custom_

return:                                           ; preds = %clean_custom_
  ret void
}

; Function Attrs: inlinehint uwtable
define internal i64 @"_ZN6option15Option$LT$T$GT$6expect21h14719520378251898507E"(%"enum.core::option::Option<[uint]>[#3]"* noalias nocapture dereferenceable(16), %str_slice* noalias nocapture dereferenceable(16)) unnamed_addr #1 {
entry-block:
  %fmt.i = alloca %"struct.core::fmt::Arguments<[]>[#3]"*
  %__llmatch = alloca i64*
  %val = alloca i64
  %2 = alloca { %str_slice* }
  %match = alloca { %str_slice* }
  %__llmatch3 = alloca %str_slice**
  %__arg0 = alloca %str_slice*
  %__args_vec = alloca { %"struct.core::fmt::Argument<[]>[#3]"*, i64 }
  %3 = alloca %"struct.core::fmt::Argument<[]>[#3]"
  %__args = alloca %"struct.core::fmt::Arguments<[]>[#3]"
  %__adjust = alloca { %"enum.core::fmt::rt::Piece<[]>[#3]"*, i64 }
  %__adjust4 = alloca { %"struct.core::fmt::Argument<[]>[#3]"*, i64 }
  %4 = getelementptr inbounds %"enum.core::option::Option<[uint]>[#3]"* %0, i32 0, i32 0
  %5 = load i8* %4, !range !0
  switch i8 %5, label %match_else [
    i8 1, label %match_case
  ]

case_body:                                        ; preds = %match_case
  %6 = load i64** %__llmatch
  %7 = load i64* %6
  store i64 %7, i64* %val
  %8 = load i64* %val
  br label %join5

case_body1:                                       ; preds = %match_else
  %9 = getelementptr inbounds { %str_slice* }* %2, i32 0, i32 0
  store %str_slice* %1, %str_slice** %9
  %10 = load { %str_slice* }* %2
  store { %str_slice* } %10, { %str_slice* }* %match
  %11 = getelementptr inbounds { %str_slice* }* %match, i32 0, i32 0
  store %str_slice** %11, %str_slice*** %__llmatch3
  br label %case_body2

match_else:                                       ; preds = %entry-block
  br label %case_body1

match_case:                                       ; preds = %entry-block
  %12 = bitcast %"enum.core::option::Option<[uint]>[#3]"* %0 to { i8, i64 }*
  %13 = getelementptr inbounds { i8, i64 }* %12, i32 0, i32 1
  store i64* %13, i64** %__llmatch
  br label %case_body

case_body2:                                       ; preds = %case_body1
  %14 = load %str_slice*** %__llmatch3
  %15 = load %str_slice** %14
  store %str_slice* %15, %str_slice** %__arg0
  %16 = bitcast %"struct.core::fmt::Argument<[]>[#3]"* %3 to [1 x %"struct.core::fmt::Argument<[]>[#3]"]*
  %17 = getelementptr inbounds %"struct.core::fmt::Argument<[]>[#3]"* %3, i32 0
  %18 = load %str_slice** %__arg0
  call void @_ZN3fmt8argument21h14107487263877511182E(%"struct.core::fmt::Argument<[]>[#3]"* noalias nocapture sret dereferenceable(16) %17, %"enum.core::result::Result<[(), core::fmt::FormatError]>[#3]" (%str_slice*, %"struct.core::fmt::Formatter<[]>[#3]"*)* @_ZN3fmt11secret_show19h806351974768849059E, %str_slice* noalias dereferenceable(16) %18)
  %19 = getelementptr inbounds { %"struct.core::fmt::Argument<[]>[#3]"*, i64 }* %__args_vec, i32 0, i32 0
  store %"struct.core::fmt::Argument<[]>[#3]"* %3, %"struct.core::fmt::Argument<[]>[#3]"** %19
  %20 = getelementptr inbounds { %"struct.core::fmt::Argument<[]>[#3]"*, i64 }* %__args_vec, i32 0, i32 1
  store i64 1, i64* %20
  %21 = getelementptr inbounds { %"enum.core::fmt::rt::Piece<[]>[#3]"*, i64 }* %__adjust, i32 0, i32 0
  store %"enum.core::fmt::rt::Piece<[]>[#3]"* getelementptr inbounds ([1 x %"enum.core::fmt::rt::Piece<[]>[#3]"]* bitcast ({ { i8, { { i8, [15 x i8] }, { i32, i8, i64, { i8, [15 x i8] }, { i8, [15 x i8] } } }, [0 x i8] } }* @"_ZN6option15Option$LT$T$GT$6expect15__STATIC_FMTSTR20h79b308b23b8faec4humE" to [1 x %"enum.core::fmt::rt::Piece<[]>[#3]"]*), i32 0, i32 0), %"enum.core::fmt::rt::Piece<[]>[#3]"** %21
  %22 = getelementptr inbounds { %"enum.core::fmt::rt::Piece<[]>[#3]"*, i64 }* %__adjust, i32 0, i32 1
  store i64 1, i64* %22
  %23 = getelementptr inbounds { %"struct.core::fmt::Argument<[]>[#3]"*, i64 }* %__args_vec, i32 0, i32 0
  %24 = load %"struct.core::fmt::Argument<[]>[#3]"** %23
  %25 = getelementptr inbounds { %"struct.core::fmt::Argument<[]>[#3]"*, i64 }* %__args_vec, i32 0, i32 1
  %26 = load i64* %25
  %27 = getelementptr inbounds { %"struct.core::fmt::Argument<[]>[#3]"*, i64 }* %__adjust4, i32 0, i32 0
  store %"struct.core::fmt::Argument<[]>[#3]"* %24, %"struct.core::fmt::Argument<[]>[#3]"** %27
  %28 = getelementptr inbounds { %"struct.core::fmt::Argument<[]>[#3]"*, i64 }* %__adjust4, i32 0, i32 1
  store i64 %26, i64* %28
  call void @"_ZN3fmt22Arguments$LT$$x27a$GT$3new20h08e5545b7031607ajUaE"(%"struct.core::fmt::Arguments<[]>[#3]"* noalias nocapture sret dereferenceable(32) %__args, { %"enum.core::fmt::rt::Piece<[]>[#3]"*, i64 }* noalias nocapture dereferenceable(16) %__adjust, { %"struct.core::fmt::Argument<[]>[#3]"*, i64 }* noalias nocapture dereferenceable(16) %__adjust4)
  store %"struct.core::fmt::Arguments<[]>[#3]"* %__args, %"struct.core::fmt::Arguments<[]>[#3]"** %fmt.i
  %29 = load %"struct.core::fmt::Arguments<[]>[#3]"** %fmt.i
  call void @_ZN7failure12begin_unwind20h7d8f396ab219c1bbn5jE(%"struct.core::fmt::Arguments<[]>[#3]"* noalias nocapture dereferenceable(32) %29, { %str_slice, i64 }* noalias nocapture dereferenceable(24) @"_ZN6option15Option$LT$T$GT$6expect8_run_fmt10_FILE_LINE20h9519b9138055b1fdStmE")
  unreachable

"_ZN6option15Option$LT$T$GT$6expect8_run_fmt20h80a8c8af0eebf625ldbE.exit": ; No predecessors!
  unreachable

join:                                             ; No predecessors!
  unreachable

join5:                                            ; preds = %case_body
  ret i64 %8
}

; Function Attrs: inlinehint uwtable
define internal void @_ZN3fmt8argument21h14107487263877511182E(%"struct.core::fmt::Argument<[]>[#3]"* noalias nocapture sret dereferenceable(16), %"enum.core::result::Result<[(), core::fmt::FormatError]>[#3]" (%str_slice*, %"struct.core::fmt::Formatter<[]>[#3]"*)*, %str_slice* noalias dereferenceable(16)) unnamed_addr #1 {
entry-block:
  %f = alloca %"enum.core::result::Result<[(), core::fmt::FormatError]>[#3]" (%str_slice*, %"struct.core::fmt::Formatter<[]>[#3]"*)*
  %t = alloca %str_slice*
  store %"enum.core::result::Result<[(), core::fmt::FormatError]>[#3]" (%str_slice*, %"struct.core::fmt::Formatter<[]>[#3]"*)* %1, %"enum.core::result::Result<[(), core::fmt::FormatError]>[#3]" (%str_slice*, %"struct.core::fmt::Formatter<[]>[#3]"*)** %f
  store %str_slice* %2, %str_slice** %t
  %3 = getelementptr inbounds %"struct.core::fmt::Argument<[]>[#3]"* %0, i32 0, i32 0
  %4 = bitcast %"enum.core::result::Result<[(), core::fmt::FormatError]>[#3]" (%"enum.core::fmt::Void<[]>[#3]"*, %"struct.core::fmt::Formatter<[]>[#3]"*)** %3 to %"enum.core::result::Result<[(), core::fmt::FormatError]>[#3]" (%str_slice*, %"struct.core::fmt::Formatter<[]>[#3]"*)**
  %5 = load %"enum.core::result::Result<[(), core::fmt::FormatError]>[#3]" (%str_slice*, %"struct.core::fmt::Formatter<[]>[#3]"*)** %f
  store %"enum.core::result::Result<[(), core::fmt::FormatError]>[#3]" (%str_slice*, %"struct.core::fmt::Formatter<[]>[#3]"*)* %5, %"enum.core::result::Result<[(), core::fmt::FormatError]>[#3]" (%str_slice*, %"struct.core::fmt::Formatter<[]>[#3]"*)** %4
  %6 = getelementptr inbounds %"struct.core::fmt::Argument<[]>[#3]"* %0, i32 0, i32 1
  %7 = bitcast %"enum.core::fmt::Void<[]>[#3]"** %6 to %str_slice**
  %8 = load %str_slice** %t
  store %str_slice* %8, %str_slice** %7
  ret void
}

; Function Attrs: uwtable
define internal %"enum.core::result::Result<[(), core::fmt::FormatError]>[#3]" @_ZN3fmt11secret_show19h806351974768849059E(%str_slice* noalias nocapture dereferenceable(16), %"struct.core::fmt::Formatter<[]>[#3]"* noalias nocapture dereferenceable(96)) unnamed_addr #0 {
entry-block:
  %x = alloca %str_slice*
  %fmt = alloca %"struct.core::fmt::Formatter<[]>[#3]"*
  store %str_slice* %0, %str_slice** %x
  store %"struct.core::fmt::Formatter<[]>[#3]"* %1, %"struct.core::fmt::Formatter<[]>[#3]"** %fmt
  %2 = load %str_slice** %x
  %3 = load %"struct.core::fmt::Formatter<[]>[#3]"** %fmt
  %4 = call %"enum.core::result::Result<[(), core::fmt::FormatError]>[#3]" @"_ZN3fmt22_$BP$$x27a$x20str.Show3fmt20hf827b502a0b3b7489VyE"(%str_slice* noalias dereferenceable(16) %2, %"struct.core::fmt::Formatter<[]>[#3]"* noalias dereferenceable(96) %3)
  ret %"enum.core::result::Result<[(), core::fmt::FormatError]>[#3]" %4
}

; Function Attrs: inlinehint uwtable
define internal void @_ZN3num15uint.CheckedMul11checked_mul20h5d321d5ebb1c6700XdbE(%"enum.core::option::Option<[uint]>[#3]"* noalias nocapture sret dereferenceable(16), i64* noalias nocapture dereferenceable(8), i64* noalias nocapture dereferenceable(8)) unnamed_addr #1 {
entry-block:
  %self = alloca i64*
  %v = alloca i64*
  %3 = alloca { i64, i8 }
  %x = alloca i64
  %y = alloca i8
  store i64* %1, i64** %self
  store i64* %2, i64** %v
  %4 = load i64** %self
  %5 = load i64* %4
  %6 = load i64** %v
  %7 = load i64* %6
  %8 = call { i64, i1 } @llvm.umul.with.overflow.i64(i64 %5, i64 %7)
  %9 = extractvalue { i64, i1 } %8, 0
  %10 = extractvalue { i64, i1 } %8, 1
  %11 = zext i1 %10 to i8
  %12 = insertvalue { i64, i8 } undef, i64 %9, 0
  %13 = insertvalue { i64, i8 } %12, i8 %11, 1
  store { i64, i8 } %13, { i64, i8 }* %3
  %14 = getelementptr inbounds { i64, i8 }* %3, i32 0, i32 0
  %15 = load i64* %14
  store i64 %15, i64* %x
  %16 = getelementptr inbounds { i64, i8 }* %3, i32 0, i32 1
  %17 = load i8* %16
  store i8 %17, i8* %y
  %18 = load i8* %y, !range !0
  %19 = trunc i8 %18 to i1
  br i1 %19, label %then-block-4115-, label %else-block

then-block-4115-:                                 ; preds = %entry-block
  %20 = getelementptr inbounds %"enum.core::option::Option<[uint]>[#3]"* %0, i32 0, i32 0
  store i8 0, i8* %20
  br label %join

else-block:                                       ; preds = %entry-block
  %21 = bitcast %"enum.core::option::Option<[uint]>[#3]"* %0 to { i8, i64 }*
  %22 = getelementptr inbounds { i8, i64 }* %21, i32 0, i32 1
  %23 = load i64* %x
  store i64 %23, i64* %22
  %24 = getelementptr inbounds %"enum.core::option::Option<[uint]>[#3]"* %0, i32 0, i32 0
  store i8 1, i8* %24
  br label %join

join:                                             ; preds = %else-block, %then-block-4115-
  ret void
}

; Function Attrs: nounwind readnone
declare { i64, i1 } @llvm.umul.with.overflow.i64(i64, i64) unnamed_addr #3

; Function Attrs: noinline uwtable
define internal i8* @_ZN3vec16alloc_or_realloc20h1502041559917371718E(i8*, i64, i64) unnamed_addr #8 {
entry-block:
  %sret_slot = alloca i8*
  %ptr = alloca i8*
  %size = alloca i64
  %old_size = alloca i64
  %3 = alloca i8*
  %4 = alloca i64
  %5 = alloca i8*
  %6 = alloca i64
  store i8* %0, i8** %ptr
  store i64 %1, i64* %size
  store i64 %2, i64* %old_size
  %7 = load i64* %old_size
  %8 = icmp eq i64 %7, 0
  br i1 %8, label %then-block-4164-, label %else-block

then-block-4164-:                                 ; preds = %entry-block
  %9 = load i64* %size
  %10 = call i64 @_ZN3mem12min_align_of21h13789648851169850150E()
  store i64 %10, i64* %4
  %11 = load i64* %4
  %12 = call i8* @_ZN4heap8allocate20hbbf7a98b60e7e368ZNaE(i64 %9, i64 %11)
  store i8* %12, i8** %3
  %13 = load i8** %3
  store i8* %13, i8** %sret_slot
  br label %join

else-block:                                       ; preds = %entry-block
  %14 = load i8** %ptr
  %15 = load i64* %size
  %16 = call i64 @_ZN3mem12min_align_of21h13789648851169850150E()
  store i64 %16, i64* %6
  %17 = load i64* %6
  %18 = load i64* %old_size
  %19 = call i8* @_ZN4heap10reallocate20h63e4c06526838d72QfbE(i8* %14, i64 %15, i64 %17, i64 %18)
  store i8* %19, i8** %5
  %20 = load i8** %5
  store i8* %20, i8** %sret_slot
  br label %join

join:                                             ; preds = %else-block, %then-block-4164-
  %21 = load i8** %sret_slot
  ret i8* %21
}

; Function Attrs: inlinehint uwtable
define internal i8* @_ZN4heap10reallocate20h63e4c06526838d72QfbE(i8*, i64, i64, i64) unnamed_addr #1 {
entry-block:
  %ptr = alloca i8*
  %size = alloca i64
  %align = alloca i64
  %old_size = alloca i64
  store i8* %0, i8** %ptr
  store i64 %1, i64* %size
  store i64 %2, i64* %align
  store i64 %3, i64* %old_size
  %4 = load i8** %ptr
  %5 = load i64* %size
  %6 = load i64* %align
  %7 = load i64* %old_size
  %8 = call i8* @_ZN4heap3imp10reallocate20hae6444ca289a5b4ejgbE(i8* %4, i64 %5, i64 %6, i64 %7)
  ret i8* %8
}

; Function Attrs: inlinehint uwtable
define internal i8* @_ZN4heap3imp10reallocate20hae6444ca289a5b4ejgbE(i8*, i64, i64, i64) unnamed_addr #1 {
entry-block:
  %a.i = alloca i64
  %4 = alloca i64
  %ptr = alloca i8*
  %size = alloca i64
  %align = alloca i64
  %_old_size = alloca i64
  %ptr1 = alloca i8*
  %5 = alloca i8*
  %6 = alloca i32
  %__arg = alloca i8*
  %__arg2 = alloca i64
  %__arg3 = alloca i32
  %7 = alloca i8
  store i8* %0, i8** %ptr
  store i64 %1, i64* %size
  store i64 %2, i64* %align
  store i64 %3, i64* %_old_size
  %8 = load i8** %ptr
  %9 = load i64* %size
  %10 = load i64* %align
  store i64 %10, i64* %a.i
  %11 = load i64* %a.i
  %12 = call i64 @_ZN3num8uint.Int14trailing_zeros20hf9eb50f4435007808OaE(i64 %11)
  store i64 %12, i64* %4
  %13 = load i64* %4
  %14 = trunc i64 %13 to i32
  store i32 %14, i32* %6
  %15 = load i32* %6
  store i8* %8, i8** %__arg
  %16 = load i8** %__arg
  store i64 %9, i64* %__arg2
  %17 = load i64* %__arg2
  store i32 %15, i32* %__arg3
  %18 = load i32* %__arg3
  %19 = call i8* @je_rallocx(i8* %16, i64 %17, i32 %18)
  store i8* %19, i8** %5
  %20 = load i8** %5
  store i8* %20, i8** %ptr1
  %21 = call zeroext i1 @"_ZN3ptr29_$RP$mut$x20T.RawPtr$LT$T$GT$7is_null20h9947899616967216770E"(i8** noalias dereferenceable(8) %ptr1)
  %22 = zext i1 %21 to i8
  store i8 %22, i8* %7
  %23 = load i8* %7, !range !0
  %24 = trunc i8 %23 to i1
  br i1 %24, label %then-block-4273-, label %next-block

then-block-4273-:                                 ; preds = %entry-block
  call void @_ZN3oom20h70228b11624052eclRaE()
  unreachable

next-block:                                       ; preds = %entry-block
  %25 = load i8** %ptr1
  ret i8* %25
}

declare i8* @je_rallocx(i8*, i64, i32) unnamed_addr #2

; Function Attrs: inlinehint uwtable
define internal i64 @_ZN3num17next_power_of_two21h10811780256953814246E(i64) unnamed_addr #1 {
entry-block:
  %n = alloca i64
  %halfbits = alloca i64
  %1 = alloca i64
  %tmp = alloca i64
  %2 = alloca i64
  %arg = alloca i64
  %shift = alloca i64
  %3 = alloca i64
  %arg1 = alloca i64
  %4 = alloca i64
  %arg2 = alloca i64
  store i64 %0, i64* %n
  %5 = call i64 @_ZN3mem7size_of19h556577793911685956E()
  store i64 %5, i64* %1
  %6 = load i64* %1
  %7 = mul i64 %6, 4
  store i64 %7, i64* %halfbits
  %8 = call i64 @_ZN3num8uint.One3one20h60c8f198b8237c8biibE()
  store i64 %8, i64* %2
  %9 = load i64* %2
  store i64 %9, i64* %arg
  %10 = call i64 @"_ZN3ops31uint.Sub$LT$uint$C$$x20uint$GT$3sub20h56442b49efecb977oibE"(i64* noalias dereferenceable(8) %n, i64* noalias dereferenceable(8) %arg)
  store i64 %10, i64* %tmp
  store i64 1, i64* %shift
  br label %while_cond

while_exit:                                       ; preds = %while_cond
  %11 = call i64 @_ZN3num8uint.One3one20h60c8f198b8237c8biibE()
  store i64 %11, i64* %4
  %12 = load i64* %4
  store i64 %12, i64* %arg2
  %13 = call i64 @"_ZN3ops31uint.Add$LT$uint$C$$x20uint$GT$3add20h549a00081cc3ddb5mjbE"(i64* noalias dereferenceable(8) %tmp, i64* noalias dereferenceable(8) %arg2)
  ret i64 %13

while_cond:                                       ; preds = %while_body, %entry-block
  %14 = load i64* %shift
  %15 = load i64* %halfbits
  %16 = icmp ule i64 %14, %15
  br i1 %16, label %while_body, label %while_exit

while_body:                                       ; preds = %while_cond
  %17 = call i64 @"_ZN3ops31uint.Shr$LT$uint$C$$x20uint$GT$3shr20h53021fa9e4f94c41IibE"(i64* noalias dereferenceable(8) %tmp, i64* noalias dereferenceable(8) %shift)
  store i64 %17, i64* %3
  %18 = load i64* %3
  store i64 %18, i64* %arg1
  %19 = call i64 @"_ZN3ops33uint.BitOr$LT$uint$C$$x20uint$GT$5bitor20h6616edacb85c33e62ibE"(i64* noalias dereferenceable(8) %tmp, i64* noalias dereferenceable(8) %arg1)
  store i64 %19, i64* %tmp
  %20 = load i64* %shift
  %21 = shl i64 %20, 1
  store i64 %21, i64* %shift
  br label %while_cond
}

; Function Attrs: inlinehint uwtable
define internal i64 @_ZN3mem7size_of19h556577793911685956E() unnamed_addr #1 {
